 reaper_drivenbymoss

 Timestamp is 61503a3c (Sun Sep 26 11:15:40 2021)

 Preferred load address is 0000000180000000

 Start         Length     Name                   Class
 0001:00000000 000000d0H .text$di                CODE
 0001:000000d0 0005bd20H .text$mn                CODE
 0001:0005bdf0 00000040H .text$mn$00             CODE
 0001:0005be30 00003220H .text$x                 CODE
 0001:0005f050 000001b4H .text$yd                CODE
 0002:00000000 00000330H .idata$5                DATA
 0002:00000330 00000028H .00cfg                  DATA
 0002:00000358 00000008H .CRT$XCA                DATA
 0002:00000360 00000018H .CRT$XCC                DATA
 0002:00000378 00000010H .CRT$XCL                DATA
 0002:00000388 00000018H .CRT$XCU                DATA
 0002:000003a0 00000008H .CRT$XCZ                DATA
 0002:000003a8 00000008H .CRT$XIA                DATA
 0002:000003b0 00000030H .CRT$XIC                DATA
 0002:000003e0 00000008H .CRT$XIZ                DATA
 0002:000003e8 00000008H .CRT$XPA                DATA
 0002:000003f0 00000010H .CRT$XPX                DATA
 0002:00000400 00000008H .CRT$XPXA               DATA
 0002:00000408 00000008H .CRT$XPZ                DATA
 0002:00000410 00000008H .CRT$XTA                DATA
 0002:00000418 00000008H .CRT$XTZ                DATA
 0002:00000420 00000000H .gehcont$y              DATA
 0002:00000420 00000000H .gfids$y                DATA
 0002:00000420 000199e0H .rdata                  DATA
 0002:00019e00 00000000H .rdata$CastGuardVftablesA DATA
 0002:00019e00 00000000H .rdata$CastGuardVftablesC DATA
 0002:00019e00 0000302cH .rdata$r                DATA
 0002:0001ce2c 0000013cH .rdata$voltmd           DATA
 0002:0001cf68 000003f0H .rdata$zzzdbg           DATA
 0002:0001d358 00000008H .rtc$IAA                DATA
 0002:0001d360 00000008H .rtc$IZZ                DATA
 0002:0001d368 00000008H .rtc$TAA                DATA
 0002:0001d370 00000008H .rtc$TZZ                DATA
 0002:0001d378 00006ac0H .xdata                  DATA
 0002:00023e38 000004e8H .xdata$x                DATA
 0002:00024320 0000005cH .edata                  DATA
 0002:0002437c 00000028H .idata$2                DATA
 0002:000243a4 00000014H .idata$3                DATA
 0002:000243b8 00000330H .idata$4                DATA
 0002:000246e8 000007a4H .idata$6                DATA
 0003:00000000 00000cd0H .data                   DATA
 0003:00000cd0 00000430H .data$r                 DATA
 0003:00001100 00001150H .data$rs                DATA
 0003:00002250 000031ecH .bss                    DATA
 0004:00000000 00004008H .pdata                  DATA
 0005:00000000 000000f4H _RDATA                  DATA
 0006:00000000 00000160H .rsrc$01                DATA
 0006:00000160 000005c8H .rsrc$02                DATA

  Address         Publics by Value              Rva+Base               Lib:Object

 0000:00000000       __x64_code_ranges_to_entry_points_count 0000000000000000     <absolute>
 0000:00000000       __arm64x_redirection_metadata 0000000000000000     <absolute>
 0000:00000000       __guard_iat_table          0000000000000000     <absolute>
 0000:00000000       __guard_longjmp_table      0000000000000000     <absolute>
 0000:00000000       __x64_code_ranges_to_entry_points 0000000000000000     <absolute>
 0000:00000000       __guard_iat_count          0000000000000000     <absolute>
 0000:00000000       __guard_longjmp_count      0000000000000000     <absolute>
 0000:00000000       __dynamic_value_reloc_table 0000000000000000     <absolute>
 0000:00000000       __guard_fids_count         0000000000000000     <absolute>
 0000:00000000       ___safe_se_handler_table   0000000000000000     <absolute>
 0000:00000000       __hybrid_auxiliary_iat     0000000000000000     <absolute>
 0000:00000000       __hybrid_auxiliary_iat_copy 0000000000000000     <absolute>
 0000:00000000       __arm64x_extra_rfe_table   0000000000000000     <absolute>
 0000:00000000       __hybrid_code_map          0000000000000000     <absolute>
 0000:00000000       __arm64x_extra_rfe_table_size 0000000000000000     <absolute>
 0000:00000000       ___safe_se_handler_count   0000000000000000     <absolute>
 0000:00000000       __AbsoluteZero             0000000000000000     <absolute>
 0000:00000000       __guard_check_icall_a64n_fptr 0000000000000000     <absolute>
 0000:00000000       __guard_fids_table         0000000000000000     <absolute>
 0000:00000000       __guard_eh_cont_count      0000000000000000     <absolute>
 0000:00000000       __arm64x_redirection_metadata_count 0000000000000000     <absolute>
 0000:00000000       __enclave_config           0000000000000000     <absolute>
 0000:00000000       __guard_eh_cont_table      0000000000000000     <absolute>
 0000:00000000       __arm64x_native_entrypoint 0000000000000000     <absolute>
 0000:00000000       __hybrid_code_map_count    0000000000000000     <absolute>
 0000:00000100       __guard_flags              0000000000000100     <absolute>
 0000:00000000       __ImageBase                0000000180000000     <linker-defined>
 0001:000000d0       __local_stdio_printf_options 00000001800010d0 f i ActionProcessor.obj
 0001:000000e0       sprintf_s                  00000001800010e0 f i ActionProcessor.obj
 0001:00000140       ??0exception@std@@QEAA@AEBV01@@Z 0000000180001140 f i ActionProcessor.obj
 0001:00000180       ?what@exception@std@@UEBAPEBDXZ 0000000180001180 f i ActionProcessor.obj
 0001:000001a0       ??_Elogic_error@std@@UEAAPEAXI@Z 00000001800011a0 f i libcpmt:xthrow.obj
 0001:000001a0       ??_Gruntime_error@std@@UEAAPEAXI@Z 00000001800011a0 f i ActionProcessor.obj
 0001:000001a0       ??_Ebad_exception@std@@UEAAPEAXI@Z 00000001800011a0 f i libvcruntime:frame.obj
 0001:000001a0       ??_Eout_of_range@std@@UEAAPEAXI@Z 00000001800011a0 f i libcpmt:xthrow.obj
 0001:000001a0       ??_Gbad_array_new_length@std@@UEAAPEAXI@Z 00000001800011a0 f i ActionProcessor.obj
 0001:000001a0       ??_Eexception@std@@UEAAPEAXI@Z 00000001800011a0 f i * CIL library *:* CIL module *
 0001:000001a0       ??_Gexception@std@@UEAAPEAXI@Z 00000001800011a0 f i ActionProcessor.obj
 0001:000001a0       ??_Ebad_function_call@std@@UEAAPEAXI@Z 00000001800011a0 f i libcpmt:xthrow.obj
 0001:000001a0       ??_Elength_error@std@@UEAAPEAXI@Z 00000001800011a0 f i libcpmt:xthrow.obj
 0001:000001a0       ??_Ebad_array_new_length@std@@UEAAPEAXI@Z 00000001800011a0 f i * CIL library *:* CIL module *
 0001:000001a0       ??_Gbad_exception@std@@UEAAPEAXI@Z 00000001800011a0 f i libvcruntime:frame.obj
 0001:000001a0       ??_Gbad_alloc@std@@UEAAPEAXI@Z 00000001800011a0 f i ActionProcessor.obj
 0001:000001a0       ??_Ebad_alloc@std@@UEAAPEAXI@Z 00000001800011a0 f i * CIL library *:* CIL module *
 0001:000001a0       ??_Glogic_error@std@@UEAAPEAXI@Z 00000001800011a0 f i libcpmt:xthrow.obj
 0001:000001a0       ??_Eruntime_error@std@@UEAAPEAXI@Z 00000001800011a0 f i * CIL library *:* CIL module *
 0001:000001a0       ??_Ebad_cast@std@@UEAAPEAXI@Z 00000001800011a0 f i * CIL library *:* CIL module *
 0001:000001a0       ??_Gout_of_range@std@@UEAAPEAXI@Z 00000001800011a0 f i libcpmt:xthrow.obj
 0001:000001a0       ??_Glength_error@std@@UEAAPEAXI@Z 00000001800011a0 f i libcpmt:xthrow.obj
 0001:000001a0       ??_Gbad_cast@std@@UEAAPEAXI@Z 00000001800011a0 f i ActionProcessor.obj
 0001:000001a0       ??_Gbad_function_call@std@@UEAAPEAXI@Z 00000001800011a0 f i libcpmt:xthrow.obj
 0001:000001f0       ??1failure@ios_base@std@@UEAA@XZ 00000001800011f0 f i ActionProcessor.obj
 0001:000001f0       ??1bad_cast@std@@UEAA@XZ   00000001800011f0 f i ActionProcessor.obj
 0001:000001f0       ??1length_error@std@@UEAA@XZ 00000001800011f0 f i libcpmt:xthrow.obj
 0001:000001f0       ??1bad_alloc@std@@UEAA@XZ  00000001800011f0 f i ActionProcessor.obj
 0001:000001f0       ??1bad_function_call@std@@UEAA@XZ 00000001800011f0 f i libcpmt:xthrow.obj
 0001:000001f0       ??1system_error@std@@UEAA@XZ 00000001800011f0 f i ActionProcessor.obj
 0001:000001f0       ??1bad_exception@std@@UEAA@XZ 00000001800011f0 f i libvcruntime:frame.obj
 0001:000001f0       ??1out_of_range@std@@UEAA@XZ 00000001800011f0 f i libcpmt:xthrow.obj
 0001:000001f0       ??1runtime_error@std@@UEAA@XZ 00000001800011f0 f i ActionProcessor.obj
 0001:000001f0       ??1bad_array_new_length@std@@UEAA@XZ 00000001800011f0 f i ActionProcessor.obj
 0001:000001f0       ??1regex_error@std@@UEAA@XZ 00000001800011f0 f i libcpmt:xthrow.obj
 0001:00000210       ??0bad_array_new_length@std@@QEAA@XZ 0000000180001210 f i ActionProcessor.obj
 0001:00000240       ?_Throw_bad_array_new_length@std@@YAXXZ 0000000180001240 f i ActionProcessor.obj
 0001:00000240       ?__scrt_throw_std_bad_array_new_length@@YAXXZ 0000000180001240 f i LIBCMT:throw_bad_alloc.obj
 0001:00000260       ??0bad_array_new_length@std@@QEAA@AEBV01@@Z 0000000180001260 f i ActionProcessor.obj
 0001:000002a0       ??0bad_alloc@std@@QEAA@AEBV01@@Z 00000001800012a0 f i ActionProcessor.obj
 0001:000002e0       ?_Xlen_string@std@@YAXXZ   00000001800012e0 f i ActionProcessor.obj
 0001:00000300       ??0runtime_error@std@@QEAA@AEBV01@@Z 0000000180001300 f i ActionProcessor.obj
 0001:00000340       ?default_error_condition@error_category@std@@UEBA?AVerror_condition@2@H@Z 0000000180001340 f i ActionProcessor.obj
 0001:00000350       ?equivalent@error_category@std@@UEBA_NHAEBVerror_condition@2@@Z 0000000180001350 f i ActionProcessor.obj
 0001:00000390       ?equivalent@error_category@std@@UEBA_NAEBVerror_code@2@H@Z 0000000180001390 f i ActionProcessor.obj
 0001:000003b0       ?make_error_code@std@@YA?AVerror_code@1@W4io_errc@1@@Z 00000001800013b0 f i ActionProcessor.obj
 0001:000003d0       ??0_System_error@std@@IEAA@Verror_code@1@AEBV?$basic_string@DU?$char_traits@D@std@@V?$allocator@D@2@@1@@Z 00000001800013d0 f i ActionProcessor.obj
 0001:00000570       ??_Esystem_error@std@@UEAAPEAXI@Z 0000000180001570 f i * CIL library *:* CIL module *
 0001:00000570       ??_Gsystem_error@std@@UEAAPEAXI@Z 0000000180001570 f i ActionProcessor.obj
 0001:00000570       ??_Efailure@ios_base@std@@UEAAPEAXI@Z 0000000180001570 f i * CIL library *:* CIL module *
 0001:00000570       ??_G_System_error@std@@UEAAPEAXI@Z 0000000180001570 f i ActionProcessor.obj
 0001:00000570       ??_Gfailure@ios_base@std@@UEAAPEAXI@Z 0000000180001570 f i ActionProcessor.obj
 0001:00000570       ??_E_System_error@std@@UEAAPEAXI@Z 0000000180001570 f i * CIL library *:* CIL module *
 0001:000005c0       ??0system_error@std@@QEAA@AEBV01@@Z 00000001800015c0 f i ActionProcessor.obj
 0001:00000620       ??0_System_error@std@@QEAA@AEBV01@@Z 0000000180001620 f i ActionProcessor.obj
 0001:00000670       ?name@_Iostream_error_category2@std@@UEBAPEBDXZ 0000000180001670 f i ActionProcessor.obj
 0001:00000680       ?message@_Iostream_error_category2@std@@UEBA?AV?$basic_string@DU?$char_traits@D@std@@V?$allocator@D@2@@2@H@Z 0000000180001680 f i ActionProcessor.obj
 0001:00000700       ??_E_Generic_error_category@std@@UEAAPEAXI@Z 0000000180001700 f i libcpmt:thread0.obj
 0001:00000700       ??_E_Iostream_error_category2@std@@UEAAPEAXI@Z 0000000180001700 f i * CIL library *:* CIL module *
 0001:00000700       ??_G_Generic_error_category@std@@UEAAPEAXI@Z 0000000180001700 f i libcpmt:thread0.obj
 0001:00000700       ??_G_Iostream_error_category2@std@@UEAAPEAXI@Z 0000000180001700 f i ActionProcessor.obj
 0001:00000730       ??0bad_cast@std@@QEAA@XZ   0000000180001730 f i ActionProcessor.obj
 0001:00000760       ?_Throw_bad_cast@std@@YAXXZ 0000000180001760 f i ActionProcessor.obj
 0001:00000780       ??0bad_cast@std@@QEAA@AEBV01@@Z 0000000180001780 f i ActionProcessor.obj
 0001:000007c0       ??_E_Facet_base@std@@UEAAPEAXI@Z 00000001800017c0 f i * CIL library *:* CIL module *
 0001:000007c0       ??_G_Facet_base@std@@UEAAPEAXI@Z 00000001800017c0 f i ActionProcessor.obj
 0001:000007f0       ??1_Locinfo@std@@QEAA@XZ   00000001800017f0 f i ActionProcessor.obj
 0001:00000890       ?_Incref@facet@locale@std@@UEAAXXZ 0000000180001890 f i ActionProcessor.obj
 0001:000008a0       ?_Decref@facet@locale@std@@UEAAPEAV_Facet_base@3@XZ 00000001800018a0 f i ActionProcessor.obj
 0001:000008b0       ??1facet@locale@std@@MEAA@XZ 00000001800018b0 f i ActionProcessor.obj
 0001:000008c0       ??1locale@std@@QEAA@XZ     00000001800018c0 f i ActionProcessor.obj
 0001:000008f0       ?_Getcat@?$ctype@D@std@@SA_KPEAPEBVfacet@locale@2@PEBV42@@Z 00000001800018f0 f i ActionProcessor.obj
 0001:00000a80       ?do_tolower@?$ctype@D@std@@MEBADD@Z 0000000180001a80 f i ActionProcessor.obj
 0001:00000a90       ?do_tolower@?$ctype@D@std@@MEBAPEBDPEADPEBD@Z 0000000180001a90 f i ActionProcessor.obj
 0001:00000ae0       ?do_toupper@?$ctype@D@std@@MEBADD@Z 0000000180001ae0 f i ActionProcessor.obj
 0001:00000af0       ?do_toupper@?$ctype@D@std@@MEBAPEBDPEADPEBD@Z 0000000180001af0 f i ActionProcessor.obj
 0001:00000b40       ?do_narrow@?$ctype@D@std@@MEBADDD@Z 0000000180001b40 f i ActionProcessor.obj
 0001:00000b40       ?do_widen@?$ctype@D@std@@MEBADD@Z 0000000180001b40 f i ActionProcessor.obj
 0001:00000b50       ?do_widen@?$ctype@D@std@@MEBAPEBDPEBD0PEAD@Z 0000000180001b50 f i ActionProcessor.obj
 0001:00000b70       ?do_narrow@?$ctype@D@std@@MEBAPEBDPEBD0DPEAD@Z 0000000180001b70 f i ActionProcessor.obj
 0001:00000b90       ??_G?$ctype@D@std@@MEAAPEAXI@Z 0000000180001b90 f i ActionProcessor.obj
 0001:00000b90       ??_E?$ctype@D@std@@MEAAPEAXI@Z 0000000180001b90 f i * CIL library *:* CIL module *
 0001:00000c00       ??0failure@ios_base@std@@QEAA@PEBDAEBVerror_code@2@@Z 0000000180001c00 f i ActionProcessor.obj
 0001:00000ce0       ?clear@ios_base@std@@QEAAXH_N@Z 0000000180001ce0 f i ActionProcessor.obj
 0001:00000d60       ??0failure@ios_base@std@@QEAA@AEBV012@@Z 0000000180001d60 f i ActionProcessor.obj
 0001:00000dc0       ??_E_Node_endif@std@@UEAAPEAXI@Z 0000000180001dc0 f i * CIL library *:* CIL module *
 0001:00000dc0       ??_G_Node_endif@std@@UEAAPEAXI@Z 0000000180001dc0 f i ActionProcessor.obj
 0001:00000dc0       ??_E_Node_base@std@@UEAAPEAXI@Z 0000000180001dc0 f i * CIL library *:* CIL module *
 0001:00000dc0       ??_G_Node_base@std@@UEAAPEAXI@Z 0000000180001dc0 f i ActionProcessor.obj
 0001:00000df0       ??_E_Root_node@std@@UEAAPEAXI@Z 0000000180001df0 f i * CIL library *:* CIL module *
 0001:00000df0       ??_G_Root_node@std@@UEAAPEAXI@Z 0000000180001df0 f i ActionProcessor.obj
 0001:00000e20       ??_G_Node_capture@std@@UEAAPEAXI@Z 0000000180001e20 f i ActionProcessor.obj
 0001:00000e20       ??_E_Node_end_group@std@@UEAAPEAXI@Z 0000000180001e20 f i * CIL library *:* CIL module *
 0001:00000e20       ??_G_Node_back@std@@UEAAPEAXI@Z 0000000180001e20 f i ActionProcessor.obj
 0001:00000e20       ??_E_Node_end_rep@std@@UEAAPEAXI@Z 0000000180001e20 f i * CIL library *:* CIL module *
 0001:00000e20       ??_G_Node_end_group@std@@UEAAPEAXI@Z 0000000180001e20 f i ActionProcessor.obj
 0001:00000e20       ??_G_Node_end_rep@std@@UEAAPEAXI@Z 0000000180001e20 f i ActionProcessor.obj
 0001:00000e20       ??_E_Node_capture@std@@UEAAPEAXI@Z 0000000180001e20 f i * CIL library *:* CIL module *
 0001:00000e20       ??_E_Node_back@std@@UEAAPEAXI@Z 0000000180001e20 f i * CIL library *:* CIL module *
 0001:00000e50       ??_G_Node_assert@std@@UEAAPEAXI@Z 0000000180001e50 f i ActionProcessor.obj
 0001:00000e50       ??_E_Node_assert@std@@UEAAPEAXI@Z 0000000180001e50 f i * CIL library *:* CIL module *
 0001:00000ee0       ??_G_Node_if@std@@UEAAPEAXI@Z 0000000180001ee0 f i ActionProcessor.obj
 0001:00000ee0       ??_E_Node_if@std@@UEAAPEAXI@Z 0000000180001ee0 f i * CIL library *:* CIL module *
 0001:00000fa0       ??_E_Node_rep@std@@UEAAPEAXI@Z 0000000180001fa0 f i * CIL library *:* CIL module *
 0001:00000fa0       ??_G_Node_rep@std@@UEAAPEAXI@Z 0000000180001fa0 f i ActionProcessor.obj
 0001:00000fd0       ?_Calculate_loop_simplicity@std@@YAXPEAV_Node_base@1@0PEAV_Node_rep@1@@Z 0000000180001fd0 f i ActionProcessor.obj
 0001:000010b0       ?OnTrackSelection@DrivenByMossSurface@@UEAAXPEAVMediaTrack@@@Z 00000001800020b0 f i DrivenByMossSurface.obj
 0001:000010b0       ?SetSurfaceSolo@DrivenByMossSurface@@UEAAXPEAVMediaTrack@@_N@Z 00000001800020b0 f i DrivenByMossSurface.obj
 0001:000010b0       ?SetSurfaceMute@IReaperControlSurface@@UEAAXPEAVMediaTrack@@_N@Z 00000001800020b0 f i DrivenByMossSurface.obj
 0001:000010b0       ?SetTrackTitle@IReaperControlSurface@@UEAAXPEAVMediaTrack@@PEBD@Z 00000001800020b0 f i DrivenByMossSurface.obj
 0001:000010b0       ?SetSurfaceSolo@IReaperControlSurface@@UEAAXPEAVMediaTrack@@_N@Z 00000001800020b0 f i DrivenByMossSurface.obj
 0001:000010b0       ?Process@OscProcessor@@UEAAXAEAV?$deque@V?$basic_string@DU?$char_traits@D@std@@V?$allocator@D@2@@std@@V?$allocator@V?$basic_string@DU?$char_traits@D@std@@V?$allocator@D@2@@std@@@2@@std@@N@Z 00000001800020b0 f i ActionProcessor.obj
 0001:000010b0       ?SetTrackListChange@DrivenByMossSurface@@UEAAXXZ 00000001800020b0 f i DrivenByMossSurface.obj
 0001:000010b0       ?CloseNoReset@IReaperControlSurface@@UEAAXXZ 00000001800020b0 f i DrivenByMossSurface.obj
 0001:000010b0       ?SetRepeatState@IReaperControlSurface@@UEAAX_N@Z 00000001800020b0 f i DrivenByMossSurface.obj
 0001:000010b0       ?Process@OscProcessor@@UEAAXAEAV?$deque@V?$basic_string@DU?$char_traits@D@std@@V?$allocator@D@2@@std@@V?$allocator@V?$basic_string@DU?$char_traits@D@std@@V?$allocator@D@2@@std@@@2@@std@@AEBV?$vector@V?$basic_string@DU?$char_traits@D@std@@V?$allocator@D@2@@std@@V?$allocator@V?$basic_string@DU?$char_traits@D@std@@V?$allocator@D@2@@std@@@2@@3@@Z 00000001800020b0 f i ActionProcessor.obj
 0001:000010b0       ?_Lock@?$basic_streambuf@DU?$char_traits@D@std@@@std@@UEAAXXZ 00000001800020b0 f i DataCollector.obj
 0001:000010b0       ?Process@OscProcessor@@UEAAXAEAV?$deque@V?$basic_string@DU?$char_traits@D@std@@V?$allocator@D@2@@std@@V?$allocator@V?$basic_string@DU?$char_traits@D@std@@V?$allocator@D@2@@std@@@2@@std@@AEBV?$basic_string@DU?$char_traits@D@std@@V?$allocator@D@2@@3@@Z 00000001800020b0 f i ActionProcessor.obj
 0001:000010b0       ?SetSurfacePan@IReaperControlSurface@@UEAAXPEAVMediaTrack@@N@Z 00000001800020b0 f i DrivenByMossSurface.obj
 0001:000010b0       ?SetRepeatState@DrivenByMossSurface@@UEAAX_N@Z 00000001800020b0 f i DrivenByMossSurface.obj
 0001:000010b0       ?SetSurfaceVolume@DrivenByMossSurface@@UEAAXPEAVMediaTrack@@N@Z 00000001800020b0 f i DrivenByMossSurface.obj
 0001:000010b0       _guard_check_icall_nop     00000001800020b0 f i LIBCMT:guard_support.obj
 0001:000010b0       ?destroy@stl_critical_section_win7@details@Concurrency@@UEAAXXZ 00000001800020b0 f i libcpmt:mutex.obj
 0001:000010b0       ?SetSurfaceRecArm@DrivenByMossSurface@@UEAAXPEAVMediaTrack@@_N@Z 00000001800020b0 f i DrivenByMossSurface.obj
 0001:000010b0       ?_Unlock@?$basic_streambuf@DU?$char_traits@D@std@@@std@@UEAAXXZ 00000001800020b0 f i DataCollector.obj
 0001:000010b0       ?SetPlayState@DrivenByMossSurface@@UEAAX_N00@Z 00000001800020b0 f i DrivenByMossSurface.obj
 0001:000010b0       ?ResetCachedVolPanStates@DrivenByMossSurface@@UEAAXXZ 00000001800020b0 f i DrivenByMossSurface.obj
 0001:000010b0       ?SetAutoMode@DrivenByMossSurface@@UEAAXH@Z 00000001800020b0 f i DrivenByMossSurface.obj
 0001:000010b0       ?Run@IReaperControlSurface@@UEAAXXZ 00000001800020b0 f i DrivenByMossSurface.obj
 0001:000010b0       ?Process@OscProcessor@@UEAAXAEAV?$deque@V?$basic_string@DU?$char_traits@D@std@@V?$allocator@D@2@@std@@V?$allocator@V?$basic_string@DU?$char_traits@D@std@@V?$allocator@D@2@@std@@@2@@std@@@Z 00000001800020b0 f i ActionProcessor.obj
 0001:000010b0       ?ResetCachedVolPanStates@IReaperControlSurface@@UEAAXXZ 00000001800020b0 f i DrivenByMossSurface.obj
 0001:000010b0       ?SetAutoMode@IReaperControlSurface@@UEAAXH@Z 00000001800020b0 f i DrivenByMossSurface.obj
 0001:000010b0       ?SetTrackTitle@DrivenByMossSurface@@UEAAXPEAVMediaTrack@@PEBD@Z 00000001800020b0 f i DrivenByMossSurface.obj
 0001:000010b0       ?SetSurfacePan@DrivenByMossSurface@@UEAAXPEAVMediaTrack@@N@Z 00000001800020b0 f i DrivenByMossSurface.obj
 0001:000010b0       ?imbue@?$basic_streambuf@DU?$char_traits@D@std@@@std@@MEAAXAEBVlocale@2@@Z 00000001800020b0 f i DataCollector.obj
 0001:000010b0       ?SetPlayState@IReaperControlSurface@@UEAAX_N00@Z 00000001800020b0 f i DrivenByMossSurface.obj
 0001:000010b0       ?SetSurfaceRecArm@IReaperControlSurface@@UEAAXPEAVMediaTrack@@_N@Z 00000001800020b0 f i DrivenByMossSurface.obj
 0001:000010b0       ?OnTrackSelection@IReaperControlSurface@@UEAAXPEAVMediaTrack@@@Z 00000001800020b0 f i DrivenByMossSurface.obj
 0001:000010b0       ?SetTrackListChange@IReaperControlSurface@@UEAAXXZ 00000001800020b0 f i DrivenByMossSurface.obj
 0001:000010b0       ?SetSurfaceSelected@DrivenByMossSurface@@UEAAXPEAVMediaTrack@@_N@Z 00000001800020b0 f i DrivenByMossSurface.obj
 0001:000010b0       ?SetSurfaceMute@DrivenByMossSurface@@UEAAXPEAVMediaTrack@@_N@Z 00000001800020b0 f i DrivenByMossSurface.obj
 0001:000010b0       ?SetSurfaceVolume@IReaperControlSurface@@UEAAXPEAVMediaTrack@@N@Z 00000001800020b0 f i DrivenByMossSurface.obj
 0001:000010b0       ?SetSurfaceSelected@IReaperControlSurface@@UEAAXPEAVMediaTrack@@_N@Z 00000001800020b0 f i DrivenByMossSurface.obj
 0001:000010c0       ?Process@OscProcessor@@UEAAXAEAV?$deque@V?$basic_string@DU?$char_traits@D@std@@V?$allocator@D@2@@std@@V?$allocator@V?$basic_string@DU?$char_traits@D@std@@V?$allocator@D@2@@std@@@2@@std@@H@Z 00000001800020c0 f i ActionProcessor.obj
 0001:000010d0       ?Process@OscProcessor@@UEAAXAEAV?$deque@V?$basic_string@DU?$char_traits@D@std@@V?$allocator@D@2@@std@@V?$allocator@V?$basic_string@DU?$char_traits@D@std@@V?$allocator@D@2@@std@@@2@@std@@M@Z 00000001800020d0 f i ActionProcessor.obj
 0001:000010e0       ?SafeGet@OscProcessor@@IEAAPEBDAEAV?$deque@V?$basic_string@DU?$char_traits@D@std@@V?$allocator@D@2@@std@@V?$allocator@V?$basic_string@DU?$char_traits@D@std@@V?$allocator@D@2@@std@@@2@@std@@H@Z 00000001800020e0 f i ActionProcessor.obj
 0001:00001160       ??_EDeviceProcessor@@UEAAPEAXI@Z 0000000180002160 f i * CIL library *:* CIL module *
 0001:00001160       ??_GCursorProcessor@@UEAAPEAXI@Z 0000000180002160 f i OscParser.obj
 0001:00001160       ??_GRepeatProcessor@@UEAAPEAXI@Z 0000000180002160 f i OscParser.obj
 0001:00001160       ??_ETimeProcessor@@UEAAPEAXI@Z 0000000180002160 f i * CIL library *:* CIL module *
 0001:00001160       ??_EMastertrackProcessor@@UEAAPEAXI@Z 0000000180002160 f i * CIL library *:* CIL module *
 0001:00001160       ??_GProjectProcessor@@UEAAPEAXI@Z 0000000180002160 f i ProjectProcessor.obj
 0001:00001160       ??_GIniFileProcessor@@UEAAPEAXI@Z 0000000180002160 f i IniFileProcessor.obj
 0001:00001160       ??_GGrooveProcessor@@UEAAPEAXI@Z 0000000180002160 f i GrooveProcessor.obj
 0001:00001160       ??_ENoteRepeatProcessor@@UEAAPEAXI@Z 0000000180002160 f i * CIL library *:* CIL module *
 0001:00001160       ??_GMastertrackProcessor@@UEAAPEAXI@Z 0000000180002160 f i MastertrackProcessor.obj
 0001:00001160       ??_ECursorProcessor@@UEAAPEAXI@Z 0000000180002160 f i * CIL library *:* CIL module *
 0001:00001160       ??_GClipProcessor@@UEAAPEAXI@Z 0000000180002160 f i ClipProcessor.obj
 0001:00001160       ??_GDeviceProcessor@@UEAAPEAXI@Z 0000000180002160 f i DeviceProcessor.obj
 0001:00001160       ??_ETempoProcessor@@UEAAPEAXI@Z 0000000180002160 f i * CIL library *:* CIL module *
 0001:00001160       ??_ERecordProcessor@@UEAAPEAXI@Z 0000000180002160 f i * CIL library *:* CIL module *
 0001:00001160       ??_EUndoProcessor@@UEAAPEAXI@Z 0000000180002160 f i * CIL library *:* CIL module *
 0001:00001160       ??_ERedoProcessor@@UEAAPEAXI@Z 0000000180002160 f i * CIL library *:* CIL module *
 0001:00001160       ??_GPlayProcessor@@UEAAPEAXI@Z 0000000180002160 f i DrivenByMossSurface.obj
 0001:00001160       ??_EOscProcessor@@UEAAPEAXI@Z 0000000180002160 f i * CIL library *:* CIL module *
 0001:00001160       ??_EGrooveProcessor@@UEAAPEAXI@Z 0000000180002160 f i * CIL library *:* CIL module *
 0001:00001160       ??_GQuantizeProcessor@@UEAAPEAXI@Z 0000000180002160 f i OscParser.obj
 0001:00001160       ??_GSceneProcessor@@UEAAPEAXI@Z 0000000180002160 f i SceneProcessor.obj
 0001:00001160       ??_EMetronomeVolumeProcessor@@UEAAPEAXI@Z 0000000180002160 f i * CIL library *:* CIL module *
 0001:00001160       ??_GRefreshProcessor@@UEAAPEAXI@Z 0000000180002160 f i OscParser.obj
 0001:00001160       ??_EClipProcessor@@UEAAPEAXI@Z 0000000180002160 f i * CIL library *:* CIL module *
 0001:00001160       ??_EQuantizeProcessor@@UEAAPEAXI@Z 0000000180002160 f i * CIL library *:* CIL module *
 0001:00001160       ??_ESceneProcessor@@UEAAPEAXI@Z 0000000180002160 f i * CIL library *:* CIL module *
 0001:00001160       ??_ERepeatProcessor@@UEAAPEAXI@Z 0000000180002160 f i * CIL library *:* CIL module *
 0001:00001160       ??_GStopProcessor@@UEAAPEAXI@Z 0000000180002160 f i DrivenByMossSurface.obj
 0001:00001160       ??_GNoteRepeatProcessor@@UEAAPEAXI@Z 0000000180002160 f i NoteRepeatProcessor.obj
 0001:00001160       ??_GRedoProcessor@@UEAAPEAXI@Z 0000000180002160 f i OscParser.obj
 0001:00001160       ??_ETrackProcessor@@UEAAPEAXI@Z 0000000180002160 f i * CIL library *:* CIL module *
 0001:00001160       ??_GUndoProcessor@@UEAAPEAXI@Z 0000000180002160 f i OscParser.obj
 0001:00001160       ??_GTimeProcessor@@UEAAPEAXI@Z 0000000180002160 f i OscParser.obj
 0001:00001160       ??_EStopProcessor@@UEAAPEAXI@Z 0000000180002160 f i * CIL library *:* CIL module *
 0001:00001160       ??_ERefreshProcessor@@UEAAPEAXI@Z 0000000180002160 f i * CIL library *:* CIL module *
 0001:00001160       ??_GOscProcessor@@UEAAPEAXI@Z 0000000180002160 f i ActionProcessor.obj
 0001:00001160       ??_EPlayProcessor@@UEAAPEAXI@Z 0000000180002160 f i * CIL library *:* CIL module *
 0001:00001160       ??_EIniFileProcessor@@UEAAPEAXI@Z 0000000180002160 f i * CIL library *:* CIL module *
 0001:00001160       ??_GMetronomeVolumeProcessor@@UEAAPEAXI@Z 0000000180002160 f i OscParser.obj
 0001:00001160       ??_EProjectProcessor@@UEAAPEAXI@Z 0000000180002160 f i * CIL library *:* CIL module *
 0001:00001160       ??_GRecordProcessor@@UEAAPEAXI@Z 0000000180002160 f i OscParser.obj
 0001:00001160       ??_EMarkerProcessor@@UEAAPEAXI@Z 0000000180002160 f i * CIL library *:* CIL module *
 0001:00001160       ??_GMarkerProcessor@@UEAAPEAXI@Z 0000000180002160 f i MarkerProcessor.obj
 0001:00001160       ??_GTempoProcessor@@UEAAPEAXI@Z 0000000180002160 f i OscParser.obj
 0001:00001160       ??_GTrackProcessor@@UEAAPEAXI@Z 0000000180002160 f i TrackProcessor.obj
 0001:000011d0       ?CollectIntValue@Collectors@@SAHAEAV?$basic_ostringstream@DU?$char_traits@D@std@@V?$allocator@D@2@@std@@AEBV?$basic_string@DU?$char_traits@D@std@@V?$allocator@D@2@@3@AEBH2AEB_N@Z 00000001800021d0 f i ActionProcessor.obj
 0001:00001240       ??_GActionProcessor@@UEAAPEAXI@Z 0000000180002240 f i ActionProcessor.obj
 0001:00001240       ??_EActionProcessor@@UEAAPEAXI@Z 0000000180002240 f i * CIL library *:* CIL module *
 0001:000012b0       ??1MetronomeVolumeProcessor@@UEAA@XZ 00000001800022b0 f i DrivenByMossSurface.obj
 0001:000012b0       ??1UndoProcessor@@UEAA@XZ  00000001800022b0 f i DrivenByMossSurface.obj
 0001:000012b0       ??1SceneProcessor@@UEAA@XZ 00000001800022b0 f i DrivenByMossSurface.obj
 0001:000012b0       ??1StopProcessor@@UEAA@XZ  00000001800022b0 f i DrivenByMossSurface.obj
 0001:000012b0       ??1RedoProcessor@@UEAA@XZ  00000001800022b0 f i DrivenByMossSurface.obj
 0001:000012b0       ??1CursorProcessor@@UEAA@XZ 00000001800022b0 f i DrivenByMossSurface.obj
 0001:000012b0       ??1RepeatProcessor@@UEAA@XZ 00000001800022b0 f i DrivenByMossSurface.obj
 0001:000012b0       ??1TempoProcessor@@UEAA@XZ 00000001800022b0 f i DrivenByMossSurface.obj
 0001:000012b0       ??1GrooveProcessor@@UEAA@XZ 00000001800022b0 f i DrivenByMossSurface.obj
 0001:000012b0       ??1ActionProcessor@@UEAA@XZ 00000001800022b0 f i ActionProcessor.obj
 0001:000012b0       ??1IniFileProcessor@@UEAA@XZ 00000001800022b0 f i DrivenByMossSurface.obj
 0001:000012b0       ??1DeviceProcessor@@UEAA@XZ 00000001800022b0 f i DeviceProcessor.obj
 0001:000012b0       ??1MarkerProcessor@@UEAA@XZ 00000001800022b0 f i DrivenByMossSurface.obj
 0001:000012b0       ??1MastertrackProcessor@@UEAA@XZ 00000001800022b0 f i DrivenByMossSurface.obj
 0001:000012b0       ??1RecordProcessor@@UEAA@XZ 00000001800022b0 f i DrivenByMossSurface.obj
 0001:000012b0       ??1NoteRepeatProcessor@@UEAA@XZ 00000001800022b0 f i DrivenByMossSurface.obj
 0001:000012b0       ??1TrackProcessor@@UEAA@XZ 00000001800022b0 f i DrivenByMossSurface.obj
 0001:000012b0       ??1RefreshProcessor@@UEAA@XZ 00000001800022b0 f i DrivenByMossSurface.obj
 0001:000012b0       ??1ClipProcessor@@UEAA@XZ  00000001800022b0 f i ClipProcessor.obj
 0001:000012b0       ??1ProjectProcessor@@UEAA@XZ 00000001800022b0 f i DrivenByMossSurface.obj
 0001:000012b0       ??1TimeProcessor@@UEAA@XZ  00000001800022b0 f i DrivenByMossSurface.obj
 0001:000012b0       ??1QuantizeProcessor@@UEAA@XZ 00000001800022b0 f i DrivenByMossSurface.obj
 0001:000012b0       ??1PlayProcessor@@UEAA@XZ  00000001800022b0 f i DrivenByMossSurface.obj
 0001:00001300       ?Process@ActionProcessor@@UEAAXAEAV?$deque@V?$basic_string@DU?$char_traits@D@std@@V?$allocator@D@2@@std@@V?$allocator@V?$basic_string@DU?$char_traits@D@std@@V?$allocator@D@2@@std@@@2@@std@@@Z 0000000180002300 f   ActionProcessor.obj
 0001:00001370       ?Process@ActionProcessor@@UEAAXAEAV?$deque@V?$basic_string@DU?$char_traits@D@std@@V?$allocator@D@2@@std@@V?$allocator@V?$basic_string@DU?$char_traits@D@std@@V?$allocator@D@2@@std@@@2@@std@@H@Z 0000000180002370 f   ActionProcessor.obj
 0001:000013a0       ?Process@ActionProcessor@@UEAAXAEAV?$deque@V?$basic_string@DU?$char_traits@D@std@@V?$allocator@D@2@@std@@V?$allocator@V?$basic_string@DU?$char_traits@D@std@@V?$allocator@D@2@@std@@@2@@std@@AEBV?$basic_string@DU?$char_traits@D@std@@V?$allocator@D@2@@3@@Z 00000001800023a0 f   ActionProcessor.obj
 0001:00001410       ?CollectData@ActionProcessor@@QEAAXAEAV?$basic_ostringstream@DU?$char_traits@D@std@@V?$allocator@D@2@@std@@@Z 0000000180002410 f   ActionProcessor.obj
 0001:00001880       ??6?$basic_ostream@DU?$char_traits@D@std@@@std@@QEAAAEAV01@H@Z 0000000180002880 f i ActionProcessor.obj
 0001:00001a30       ??0?$basic_regex@DV?$regex_traits@D@std@@@std@@QEAA@PEBDW4syntax_option_type@regex_constants@1@@Z 0000000180002a30 f i ActionProcessor.obj
 0001:00001bb0       ??1?$_Yarn@D@std@@QEAA@XZ  0000000180002bb0 f i ActionProcessor.obj
 0001:00001bb0       ??1?$_Yarn@_W@std@@QEAA@XZ 0000000180002bb0 f i ActionProcessor.obj
 0001:00001be0       ?c_str@?$basic_string@DU?$char_traits@D@std@@V?$allocator@D@2@@std@@QEBAPEBDXZ 0000000180002be0 f i ActionProcessor.obj
 0001:00001bf0       ??A?$basic_string@DU?$char_traits@D@std@@V?$allocator@D@2@@std@@QEAAAEAD_K@Z 0000000180002bf0 f i ActionProcessor.obj
 0001:00001c10       ?assign@?$basic_string@DU?$char_traits@D@std@@V?$allocator@D@2@@std@@QEAAAEAV12@QEBD@Z 0000000180002c10 f i ActionProcessor.obj
 0001:00001c30       ??1?$basic_string@DU?$char_traits@D@std@@V?$allocator@D@2@@std@@QEAA@XZ 0000000180002c30 f i ActionProcessor.obj
 0001:00001c90       ??4?$basic_string@DU?$char_traits@D@std@@V?$allocator@D@2@@std@@QEAAAEAV01@$$QEAV01@@Z 0000000180002c90 f i ActionProcessor.obj
 0001:00001d20       ??0?$basic_string@DU?$char_traits@D@std@@V?$allocator@D@2@@std@@QEAA@QEBD@Z 0000000180002d20 f i ActionProcessor.obj
 0001:00001d60       ??0?$basic_string@DU?$char_traits@D@std@@V?$allocator@D@2@@std@@QEAA@AEBV01@@Z 0000000180002d60 f i ActionProcessor.obj
 0001:00001e40       ??1?$regex_traits@D@std@@QEAA@XZ 0000000180002e40 f i ActionProcessor.obj
 0001:00001e70       ?do_put@?$num_put@DV?$ostreambuf_iterator@DU?$char_traits@D@std@@@std@@@std@@MEBA?AV?$ostreambuf_iterator@DU?$char_traits@D@std@@@2@V32@AEAVios_base@2@DPEBX@Z 0000000180002e70 f i ActionProcessor.obj
 0001:00001f10       ?do_put@?$num_put@DV?$ostreambuf_iterator@DU?$char_traits@D@std@@@std@@@std@@MEBA?AV?$ostreambuf_iterator@DU?$char_traits@D@std@@@2@V32@AEAVios_base@2@DO@Z 0000000180002f10 f i ActionProcessor.obj
 0001:000021f0       ?do_put@?$num_put@DV?$ostreambuf_iterator@DU?$char_traits@D@std@@@std@@@std@@MEBA?AV?$ostreambuf_iterator@DU?$char_traits@D@std@@@2@V32@AEAVios_base@2@DN@Z 00000001800031f0 f i ActionProcessor.obj
 0001:000024c0       ?do_put@?$num_put@DV?$ostreambuf_iterator@DU?$char_traits@D@std@@@std@@@std@@MEBA?AV?$ostreambuf_iterator@DU?$char_traits@D@std@@@2@V32@AEAVios_base@2@D_K@Z 00000001800034c0 f i ActionProcessor.obj
 0001:000025e0       ?do_put@?$num_put@DV?$ostreambuf_iterator@DU?$char_traits@D@std@@@std@@@std@@MEBA?AV?$ostreambuf_iterator@DU?$char_traits@D@std@@@2@V32@AEAVios_base@2@D_J@Z 00000001800035e0 f i ActionProcessor.obj
 0001:00002700       ?do_put@?$num_put@DV?$ostreambuf_iterator@DU?$char_traits@D@std@@@std@@@std@@MEBA?AV?$ostreambuf_iterator@DU?$char_traits@D@std@@@2@V32@AEAVios_base@2@DK@Z 0000000180003700 f i ActionProcessor.obj
 0001:00002820       ?do_put@?$num_put@DV?$ostreambuf_iterator@DU?$char_traits@D@std@@@std@@@std@@MEBA?AV?$ostreambuf_iterator@DU?$char_traits@D@std@@@2@V32@AEAVios_base@2@DJ@Z 0000000180003820 f i ActionProcessor.obj
 0001:00002940       ?do_put@?$num_put@DV?$ostreambuf_iterator@DU?$char_traits@D@std@@@std@@@std@@MEBA?AV?$ostreambuf_iterator@DU?$char_traits@D@std@@@2@V32@AEAVios_base@2@D_N@Z 0000000180003940 f i ActionProcessor.obj
 0001:00002ca0       ??1sentry@?$basic_ostream@DU?$char_traits@D@std@@@std@@QEAA@XZ 0000000180003ca0 f i ActionProcessor.obj
 0001:00002ce0       ??0sentry@?$basic_ostream@DU?$char_traits@D@std@@@std@@QEAA@AEAV12@@Z 0000000180003ce0 f i ActionProcessor.obj
 0001:00002d60       ?_Pnavail@?$basic_streambuf@DU?$char_traits@D@std@@@std@@IEBA_JXZ 0000000180003d60 f i ActionProcessor.obj
 0001:00002d80       ?_Xran@?$deque@V?$basic_string@DU?$char_traits@D@std@@V?$allocator@D@2@@std@@V?$allocator@V?$basic_string@DU?$char_traits@D@std@@V?$allocator@D@2@@std@@@2@@std@@AEBAXXZ 0000000180003d80 f i ActionProcessor.obj
 0001:00002da0       ?_Tidy@?$basic_regex@DV?$regex_traits@D@std@@@std@@AEAAXXZ 0000000180003da0 f i ActionProcessor.obj
 0001:00002e20       ?assign@?$basic_string@DU?$char_traits@D@std@@V?$allocator@D@2@@std@@QEAAAEAV12@_KD@Z 0000000180003e20 f i ActionProcessor.obj
 0001:00002f90       ?assign@?$basic_string@DU?$char_traits@D@std@@V?$allocator@D@2@@std@@QEAAAEAV12@QEBD_K@Z 0000000180003f90 f i ActionProcessor.obj
 0001:000030f0       ?append@?$basic_string@DU?$char_traits@D@std@@V?$allocator@D@2@@std@@QEAAAEAV12@QEBD_K@Z 00000001800040f0 f i ActionProcessor.obj
 0001:00003170       ??_G?$num_put@DV?$ostreambuf_iterator@DU?$char_traits@D@std@@@std@@@std@@MEAAPEAXI@Z 0000000180004170 f i ActionProcessor.obj
 0001:00003170       ??_G?$codecvt@DDU_Mbstatet@@@std@@MEAAPEAXI@Z 0000000180004170 f i DataCollector.obj
 0001:00003170       ??_E?$codecvt@DDU_Mbstatet@@@std@@MEAAPEAXI@Z 0000000180004170 f i * CIL library *:* CIL module *
 0001:00003170       ??_E?$num_put@DV?$ostreambuf_iterator@DU?$char_traits@D@std@@@std@@@std@@MEAAPEAXI@Z 0000000180004170 f i * CIL library *:* CIL module *
 0001:000031a0       ?do_truename@?$numpunct@D@std@@MEBA?AV?$basic_string@DU?$char_traits@D@std@@V?$allocator@D@2@@2@XZ 00000001800041a0 f i ActionProcessor.obj
 0001:000031f0       ?do_falsename@?$numpunct@D@std@@MEBA?AV?$basic_string@DU?$char_traits@D@std@@V?$allocator@D@2@@2@XZ 00000001800041f0 f i ActionProcessor.obj
 0001:00003240       ?do_grouping@?$numpunct@D@std@@MEBA?AV?$basic_string@DU?$char_traits@D@std@@V?$allocator@D@2@@2@XZ 0000000180004240 f i ActionProcessor.obj
 0001:00003290       ?do_thousands_sep@?$numpunct@D@std@@MEBADXZ 0000000180004290 f i ActionProcessor.obj
 0001:000032a0       ?do_decimal_point@?$numpunct@D@std@@MEBADXZ 00000001800042a0 f i ActionProcessor.obj
 0001:000032b0       ?_Iput@?$num_put@DV?$ostreambuf_iterator@DU?$char_traits@D@std@@@std@@@std@@AEBA?AV?$ostreambuf_iterator@DU?$char_traits@D@std@@@2@V32@AEAVios_base@2@DPEAD_K@Z 00000001800042b0 f i ActionProcessor.obj
 0001:00003930       ?_Fput@?$num_put@DV?$ostreambuf_iterator@DU?$char_traits@D@std@@@std@@@std@@AEBA?AV?$ostreambuf_iterator@DU?$char_traits@D@std@@@2@V32@AEAVios_base@2@DPEBD_K@Z 0000000180004930 f i ActionProcessor.obj
 0001:00004030       ??1_Sentry_base@?$basic_istream@DU?$char_traits@D@std@@@std@@QEAA@XZ 0000000180005030 f i DataCollector.obj
 0001:00004030       ??1_Sentry_base@?$basic_ostream@DU?$char_traits@D@std@@@std@@QEAA@XZ 0000000180005030 f i ActionProcessor.obj
 0001:00004060       ?flush@?$basic_ostream@DU?$char_traits@D@std@@@std@@QEAAAEAV12@XZ 0000000180005060 f i ActionProcessor.obj
 0001:00004100       ?_Osfx@?$basic_ostream@DU?$char_traits@D@std@@@std@@QEAAXXZ 0000000180005100 f i ActionProcessor.obj
 0001:00004150       ??_E?$numpunct@D@std@@MEAAPEAXI@Z 0000000180005150 f i * CIL library *:* CIL module *
 0001:00004150       ??_G?$numpunct@D@std@@MEAAPEAXI@Z 0000000180005150 f i ActionProcessor.obj
 0001:000041b0       ?_Xran@?$_String_val@U?$_Simple_types@D@std@@@std@@SAXXZ 00000001800051b0 f i ActionProcessor.obj
 0001:000041d0       ??$use_facet@V?$ctype@D@std@@@std@@YAAEBV?$ctype@D@0@AEBVlocale@0@@Z 00000001800051d0 f i ActionProcessor.obj
 0001:000042e0       ??$?6U?$char_traits@D@std@@@std@@YAAEAV?$basic_ostream@DU?$char_traits@D@std@@@0@AEAV10@PEBD@Z 00000001800052e0 f i ActionProcessor.obj
 0001:00004550       ??$use_facet@V?$num_put@DV?$ostreambuf_iterator@DU?$char_traits@D@std@@@std@@@std@@@std@@YAAEBV?$num_put@DV?$ostreambuf_iterator@DU?$char_traits@D@std@@@std@@@0@AEBVlocale@0@@Z 0000000180005550 f i ActionProcessor.obj
 0001:00004660       ??$_Reset@PEBD@?$basic_regex@DV?$regex_traits@D@std@@@std@@AEAAXPEBD0W4syntax_option_type@regex_constants@1@Uforward_iterator_tag@1@@Z 0000000180005660 f i ActionProcessor.obj
 0001:00004840       ??$use_facet@V?$numpunct@D@std@@@std@@YAAEBV?$numpunct@D@0@AEBVlocale@0@@Z 0000000180005840 f i ActionProcessor.obj
 0001:00004950       ??$_Reallocate_grow_by@V<lambda_65e615be2a453ca0576c979606f46740>@@PEBD_K@?$basic_string@DU?$char_traits@D@std@@V?$allocator@D@2@@std@@AEAAAEAV01@_KV<lambda_65e615be2a453ca0576c979606f46740>@@PEBD_K@Z 0000000180005950 f i ActionProcessor.obj
 0001:00004ae0       ??$_Reallocate_grow_by@V<lambda_b986da8d428e4af07c64af60eec09b61>@@_K_KD@?$basic_string@DU?$char_traits@D@std@@V?$allocator@D@2@@std@@AEAAAEAV01@_KV<lambda_b986da8d428e4af07c64af60eec09b61>@@_K2D@Z 0000000180005ae0 f i ActionProcessor.obj
 0001:00004c90       ??$_Reallocate_grow_by@V<lambda_e1befb086ad3257e3f042a63030725f7>@@_KD@?$basic_string@DU?$char_traits@D@std@@V?$allocator@D@2@@std@@AEAAAEAV01@_KV<lambda_e1befb086ad3257e3f042a63030725f7>@@_KD@Z 0000000180005c90 f i ActionProcessor.obj
 0001:00004e20       ??1?$_Parser@PEBDDV?$regex_traits@D@std@@@std@@QEAA@XZ 0000000180005e20 f i ActionProcessor.obj
 0001:00004e80       ?do_hash@?$collate@D@std@@MEBAJPEBD0@Z 0000000180005e80 f i ActionProcessor.obj
 0001:00004ec0       ?do_transform@?$collate@D@std@@MEBA?AV?$basic_string@DU?$char_traits@D@std@@V?$allocator@D@2@@2@PEBD0@Z 0000000180005ec0 f i ActionProcessor.obj
 0001:00005060       ?do_compare@?$collate@D@std@@MEBAHPEBD000@Z 0000000180006060 f i ActionProcessor.obj
 0001:000050b0       ?_Getcat@?$collate@D@std@@SA_KPEAPEBVfacet@locale@2@PEBV42@@Z 00000001800060b0 f i ActionProcessor.obj
 0001:000053d0       ??1?$unique_ptr@V_Node_assert@std@@U?$default_delete@V_Node_assert@std@@@2@@std@@QEAA@XZ 00000001800063d0 f i ActionProcessor.obj
 0001:000053d0       ??1?$unique_ptr@V_Facet_base@std@@U?$default_delete@V_Facet_base@std@@@2@@std@@QEAA@XZ 00000001800063d0 f i ActionProcessor.obj
 0001:000053f0       ?_Getcat@?$numpunct@D@std@@SA_KPEAPEBVfacet@locale@2@PEBV42@@Z 00000001800063f0 f i ActionProcessor.obj
 0001:00005630       ?_Getcat@?$num_put@DV?$ostreambuf_iterator@DU?$char_traits@D@std@@@std@@@std@@SA_KPEAPEBVfacet@locale@2@PEBV42@@Z 0000000180006630 f i ActionProcessor.obj
 0001:000057b0       ??1?$_Vb_val@V?$allocator@_N@std@@@std@@QEAA@XZ 00000001800067b0 f i ActionProcessor.obj
 0001:000057b0       ??1?$vector@_NV?$allocator@_N@std@@@std@@QEAA@XZ 00000001800067b0 f i ActionProcessor.obj
 0001:000057b0       ??1?$vector@HV?$allocator@H@std@@@std@@QEAA@XZ 00000001800067b0 f i DataCollector.obj
 0001:00005810       ??_G?$collate@D@std@@MEAAPEAXI@Z 0000000180006810 f i ActionProcessor.obj
 0001:00005810       ??_E?$collate@D@std@@MEAAPEAXI@Z 0000000180006810 f i * CIL library *:* CIL module *
 0001:00005860       ??1?$_Tidy_guard@V?$numpunct@D@std@@@std@@QEAA@XZ 0000000180006860 f i ActionProcessor.obj
 0001:000058a0       ??$_Insert_string@DU?$char_traits@D@std@@_K@std@@YAAEAV?$basic_ostream@DU?$char_traits@D@std@@@0@AEAV10@QEBD_K@Z 00000001800068a0 f i ActionProcessor.obj
 0001:00005b10       ??$_Reallocate_grow_by@V<lambda_f3a66ab6a0570788f31503db83886f49>@@_KPEBD_K@?$basic_string@DU?$char_traits@D@std@@V?$allocator@D@2@@std@@AEAAAEAV01@_KV<lambda_f3a66ab6a0570788f31503db83886f49>@@_KPEBD2@Z 0000000180006b10 f i ActionProcessor.obj
 0001:00005c80       ??1?$_Tidy_guard@V?$_Builder@PEBDDV?$regex_traits@D@std@@@std@@@std@@QEAA@XZ 0000000180006c80 f i ActionProcessor.obj
 0001:00005ce0       ?_Trim@?$vector@_NV?$allocator@_N@std@@@std@@QEAAX_K@Z 0000000180006ce0 f i ActionProcessor.obj
 0001:00005d90       ?_Xlen@?$vector@_NV?$allocator@_N@std@@@std@@QEBAXXZ 0000000180006d90 f i ActionProcessor.obj
 0001:00005db0       ?_Error@?$_Parser@PEBDDV?$regex_traits@D@std@@@std@@AEAAXW4error_type@regex_constants@2@@Z 0000000180006db0 f i ActionProcessor.obj
 0001:00005dc0       ?_Trans@?$_Parser@PEBDDV?$regex_traits@D@std@@@std@@AEAAXXZ 0000000180006dc0 f i ActionProcessor.obj
 0001:00006070       ?_Disjunction@?$_Parser@PEBDDV?$regex_traits@D@std@@@std@@AEAAXXZ 0000000180007070 f i ActionProcessor.obj
 0001:00006320       ?_End_group@?$_Builder@PEBDDV?$regex_traits@D@std@@@std@@QEAAXPEAV_Node_base@2@@Z 0000000180007320 f i ActionProcessor.obj
 0001:000063d0       ?_Begin_capture_group@?$_Builder@PEBDDV?$regex_traits@D@std@@@std@@QEAAPEAV_Node_base@2@I@Z 00000001800073d0 f i ActionProcessor.obj
 0001:00006460       ?_Xlength@?$vector@V?$sub_match@PEBD@std@@V?$allocator@V?$sub_match@PEBD@std@@@2@@std@@CAXXZ 0000000180007460 f i ClipProcessor.obj
 0001:00006460       ?_Xlength@?$vector@V?$function@$$A6AXXZ@std@@V?$allocator@V?$function@$$A6AXXZ@std@@@2@@std@@CAXXZ 0000000180007460 f i FunctionExecutor.obj
 0001:00006460       ?_Xlength@?$vector@U_Grp_t@?$_Tgt_state_t@PEBD@std@@V?$allocator@U_Grp_t@?$_Tgt_state_t@PEBD@std@@@3@@std@@CAXXZ 0000000180007460 f i ClipProcessor.obj
 0001:00006460       ?_Xlength@?$vector@V?$shared_ptr@VParameter@@@std@@V?$allocator@V?$shared_ptr@VParameter@@@std@@@2@@std@@CAXXZ 0000000180007460 f i Model.obj
 0001:00006460       ?_Xlength@?$vector@V?$shared_ptr@VMarker@@@std@@V?$allocator@V?$shared_ptr@VMarker@@@std@@@2@@std@@CAXXZ 0000000180007460 f i Model.obj
 0001:00006460       ?_Xlength@?$vector@U_Loop_vals_t@std@@V?$allocator@U_Loop_vals_t@std@@@2@@std@@CAXXZ 0000000180007460 f i ClipProcessor.obj
 0001:00006460       ?_Xlength@?$vector@V?$shared_ptr@VTrack@@@std@@V?$allocator@V?$shared_ptr@VTrack@@@std@@@2@@std@@CAXXZ 0000000180007460 f i Model.obj
 0001:00006460       ?_Xlength@?$vector@PEAV_jstring@@V?$allocator@PEAV_jstring@@@std@@@std@@CAXXZ 0000000180007460 f i dllmain.obj
 0001:00006460       ?_Xlength@?$vector@IV?$allocator@I@std@@@std@@CAXXZ 0000000180007460 f i ActionProcessor.obj
 0001:00006460       ?_Xlength@?$vector@DV?$allocator@D@std@@@std@@CAXXZ 0000000180007460 f i ActionProcessor.obj
 0001:00006460       ?_Xlength@?$vector@PEAVSend@@V?$allocator@PEAVSend@@@std@@@std@@CAXXZ 0000000180007460 f i Track.obj
 0001:00006460       ?_Xlength@?$vector@V?$basic_string@DU?$char_traits@D@std@@V?$allocator@D@2@@std@@V?$allocator@V?$basic_string@DU?$char_traits@D@std@@V?$allocator@D@2@@std@@@2@@std@@CAXXZ 0000000180007460 f i ClipProcessor.obj
 0001:00006460       ?_Xlength@?$vector@HV?$allocator@H@std@@@std@@CAXXZ 0000000180007460 f i Marker.obj
 0001:00006480       ?allocate@?$allocator@I@std@@QEAAPEAI_K@Z 0000000180007480 f i ActionProcessor.obj
 0001:000064f0       ?_Alternative@?$_Parser@PEBDDV?$regex_traits@D@std@@@std@@AEAA_NXZ 00000001800074f0 f i ActionProcessor.obj
 0001:00006990       ?_CharacterClass@?$_Parser@PEBDDV?$regex_traits@D@std@@@std@@AEAAXXZ 0000000180007990 f i ActionProcessor.obj
 0001:00006af0       ?_AtomEscape@?$_Parser@PEBDDV?$regex_traits@D@std@@@std@@AEAAXXZ 0000000180007af0 f i ActionProcessor.obj
 0001:00006c70       ?_Wrapped_disjunction@?$_Parser@PEBDDV?$regex_traits@D@std@@@std@@AEAA_NXZ 0000000180007c70 f i ActionProcessor.obj
 0001:00006e40       ?_Quantifier@?$_Parser@PEBDDV?$regex_traits@D@std@@@std@@AEAAXXZ 0000000180007e40 f i ActionProcessor.obj
 0001:000070a0       ?_Add_char@?$_Builder@PEBDDV?$regex_traits@D@std@@@std@@QEAAXD@Z 00000001800080a0 f i ActionProcessor.obj
 0001:000071b0       ?translate@?$_Regex_traits@D@std@@QEBADD@Z 00000001800081b0 f i ActionProcessor.obj
 0001:00007260       ?_DecimalDigits@?$_Parser@PEBDDV?$regex_traits@D@std@@@std@@AEAA_NXZ 0000000180008260 f i ActionProcessor.obj
 0001:00007310       ?_CharacterClassEscape@?$_Parser@PEBDDV?$regex_traits@D@std@@@std@@AEAA_N_N@Z 0000000180008310 f i ActionProcessor.obj
 0001:00007410       ?_ClassRanges@?$_Parser@PEBDDV?$regex_traits@D@std@@@std@@AEAAXXZ 0000000180008410 f i ActionProcessor.obj
 0001:00007690       ?_CharacterEscape@?$_Parser@PEBDDV?$regex_traits@D@std@@@std@@AEAA_NXZ 0000000180008690 f i ActionProcessor.obj
 0001:00007ba0       ?_Do_noncapture_group@?$_Parser@PEBDDV?$regex_traits@D@std@@@std@@AEAAXXZ 0000000180008ba0 f i ActionProcessor.obj
 0001:00007c40       ?_Do_assert_group@?$_Parser@PEBDDV?$regex_traits@D@std@@@std@@AEAAX_N@Z 0000000180008c40 f i ActionProcessor.obj
 0001:00007d30       ?_Add_class@?$_Builder@PEBDDV?$regex_traits@D@std@@@std@@QEAAXXZ 0000000180008d30 f i ActionProcessor.obj
 0001:00007dc0       ?_Add_rep@?$_Builder@PEBDDV?$regex_traits@D@std@@@std@@QEAAXHH_N@Z 0000000180008dc0 f i ActionProcessor.obj
 0001:000080a0       ?resize@?$vector@_NV?$allocator@_N@std@@@std@@QEAAX_K_N@Z 00000001800090a0 f i ActionProcessor.obj
 0001:000081f0       ??_G?$_Node_class@DV?$regex_traits@D@std@@@std@@UEAAPEAXI@Z 00000001800091f0 f i ActionProcessor.obj
 0001:000081f0       ??_E?$_Node_class@DV?$regex_traits@D@std@@@std@@UEAAPEAXI@Z 00000001800091f0 f i * CIL library *:* CIL module *
 0001:00008300       ??_E?$_Node_str@D@std@@UEAAPEAXI@Z 0000000180009300 f i * CIL library *:* CIL module *
 0001:00008300       ??_G?$_Node_str@D@std@@UEAAPEAXI@Z 0000000180009300 f i ActionProcessor.obj
 0001:00008350       ?_Insert_n@?$vector@_NV?$allocator@_N@std@@@std@@QEAA?AV?$_Vb_iterator@U?$_Wrap_alloc@V?$allocator@I@std@@@std@@@2@V?$_Vb_const_iterator@U?$_Wrap_alloc@V?$allocator@I@std@@@std@@@2@_KAEB_N@Z 0000000180009350 f i ActionProcessor.obj
 0001:00008510       ?erase@?$vector@_NV?$allocator@_N@std@@@std@@QEAA?AV?$_Vb_iterator@U?$_Wrap_alloc@V?$allocator@I@std@@@std@@@2@V?$_Vb_const_iterator@U?$_Wrap_alloc@V?$allocator@I@std@@@std@@@2@0@Z 0000000180009510 f i ActionProcessor.obj
 0001:00008750       ?_Insert_x@?$vector@_NV?$allocator@_N@std@@@std@@QEAA_KV?$_Vb_const_iterator@U?$_Wrap_alloc@V?$allocator@I@std@@@std@@@2@_K@Z 0000000180009750 f i ActionProcessor.obj
 0001:00008980       ?_HexDigits@?$_Parser@PEBDDV?$regex_traits@D@std@@@std@@AEAAXH@Z 0000000180009980 f i ActionProcessor.obj
 0001:00008a60       ?_ClassAtom@?$_Parser@PEBDDV?$regex_traits@D@std@@@std@@AEAA?AW4_Prs_ret@2@XZ 0000000180009a60 f i ActionProcessor.obj
 0001:00008de0       ?_Add_range@?$_Builder@PEBDDV?$regex_traits@D@std@@@std@@QEAAXDD@Z 0000000180009de0 f i ActionProcessor.obj
 0001:00008f70       ?_Add_named_class@?$_Builder@PEBDDV?$regex_traits@D@std@@@std@@QEAAXF_N@Z 0000000180009f70 f i ActionProcessor.obj
 0001:00009050       ?_Add_char_to_array@?$_Builder@PEBDDV?$regex_traits@D@std@@@std@@AEAAXD@Z 000000018000a050 f i ActionProcessor.obj
 0001:000090f0       ??$lookup_classname@PEBD@?$_Regex_traits@D@std@@QEBAFPEBD0_N@Z 000000018000a0f0 f i ActionProcessor.obj
 0001:00009240       ?_Do_ex_class@?$_Parser@PEBDDV?$regex_traits@D@std@@@std@@AEAAXW4_Meta_type@2@@Z 000000018000a240 f i ActionProcessor.obj
 0001:00009480       ??$_Resize_reallocate@I@?$vector@IV?$allocator@I@std@@@std@@AEAAX_KAEBI@Z 000000018000a480 f i ActionProcessor.obj
 0001:000095b0       ?_Add_equiv@?$_Builder@PEBDDV?$regex_traits@D@std@@@std@@QEAAXPEBD0_J@Z 000000018000a5b0 f i ActionProcessor.obj
 0001:00009740       ?_Char_to_elts@?$_Builder@PEBDDV?$regex_traits@D@std@@@std@@AEAAXPEBD0_JPEAPEAU?$_Sequence@D@2@@Z 000000018000a740 f i ActionProcessor.obj
 0001:00009820       ??$transform_primary@PEBD@?$_Regex_traits@D@std@@QEBA?AV?$basic_string@DU?$char_traits@D@std@@V?$allocator@D@2@@1@PEBD0@Z 000000018000a820 f i ActionProcessor.obj
 0001:00009820       ??$transform_primary@PEAD@?$_Regex_traits@D@std@@QEBA?AV?$basic_string@DU?$char_traits@D@std@@V?$allocator@D@2@@1@PEAD0@Z 000000018000a820 f i ActionProcessor.obj
 0001:00009a10       ??1?$vector@DV?$allocator@D@std@@@std@@QEAA@XZ 000000018000aa10 f i ActionProcessor.obj
 0001:00009a70       ?SafeGet@OscProcessor@@IEAAPEBDAEAV?$vector@V?$basic_string@DU?$char_traits@D@std@@V?$allocator@D@2@@std@@V?$allocator@V?$basic_string@DU?$char_traits@D@std@@V?$allocator@D@2@@std@@@2@@std@@H@Z 000000018000aa70 f i ClipProcessor.obj
 0001:00009ac0       ?SplitString@OscProcessor@@IEBA?AV?$vector@V?$basic_string@DU?$char_traits@D@std@@V?$allocator@D@2@@std@@V?$allocator@V?$basic_string@DU?$char_traits@D@std@@V?$allocator@D@2@@std@@@2@@std@@AEBV?$basic_string@DU?$char_traits@D@std@@V?$allocator@D@2@@3@D@Z 000000018000aac0 f i ClipProcessor.obj
 0001:00009da0       ?Process@ClipProcessor@@UEAAXAEAV?$deque@V?$basic_string@DU?$char_traits@D@std@@V?$allocator@D@2@@std@@V?$allocator@V?$basic_string@DU?$char_traits@D@std@@V?$allocator@D@2@@std@@@2@@std@@H@Z 000000018000ada0 f i ClipProcessor.obj
 0001:00009da0       ?Process@TimeProcessor@@UEAAXAEAV?$deque@V?$basic_string@DU?$char_traits@D@std@@V?$allocator@D@2@@std@@V?$allocator@V?$basic_string@DU?$char_traits@D@std@@V?$allocator@D@2@@std@@@2@@std@@H@Z 000000018000ada0 f i OscParser.obj
 0001:00009db0       ?Process@ClipProcessor@@UEAAXAEAV?$deque@V?$basic_string@DU?$char_traits@D@std@@V?$allocator@D@2@@std@@V?$allocator@V?$basic_string@DU?$char_traits@D@std@@V?$allocator@D@2@@std@@@2@@std@@@Z 000000018000adb0 f   ClipProcessor.obj
 0001:00009fb0       ?Process@ClipProcessor@@UEAAXAEAV?$deque@V?$basic_string@DU?$char_traits@D@std@@V?$allocator@D@2@@std@@V?$allocator@V?$basic_string@DU?$char_traits@D@std@@V?$allocator@D@2@@std@@@2@@std@@N@Z 000000018000afb0 f   ClipProcessor.obj
 0001:0000a420       ?Process@ClipProcessor@@UEAAXAEAV?$deque@V?$basic_string@DU?$char_traits@D@std@@V?$allocator@D@2@@std@@V?$allocator@V?$basic_string@DU?$char_traits@D@std@@V?$allocator@D@2@@std@@@2@@std@@AEBV?$basic_string@DU?$char_traits@D@std@@V?$allocator@D@2@@3@@Z 000000018000b420 f   ClipProcessor.obj
 0001:0000a820       ?SetColorOfClip@ClipProcessor@@AEAAXPEAVReaProject@@PEAVMediaItem@@AEBV?$basic_string@DU?$char_traits@D@std@@V?$allocator@D@2@@std@@@Z 000000018000b820 f   ClipProcessor.obj
 0001:0000ad40       ??1?$match_results@PEBDV?$allocator@V?$sub_match@PEBD@std@@@std@@@std@@QEAA@XZ 000000018000bd40 f i ClipProcessor.obj
 0001:0000adc0       ?ClearNotes@ClipProcessor@@AEAAXPEAVReaProject@@PEAVMediaItem@@HH@Z 000000018000bdc0 f   ClipProcessor.obj
 0001:0000af20       ?ClearNote@ClipProcessor@@AEAA_NPEAVReaProject@@PEAVMediaItem@@HHN@Z 000000018000bf20 f   ClipProcessor.obj
 0001:0000afe0       ?GetNoteIndex@ClipProcessor@@AEAAHPEAVMediaItem_Take@@HHN@Z 000000018000bfe0 f   ClipProcessor.obj
 0001:0000b110       ??1?$vector@V?$basic_string@DU?$char_traits@D@std@@V?$allocator@D@2@@std@@V?$allocator@V?$basic_string@DU?$char_traits@D@std@@V?$allocator@D@2@@std@@@2@@std@@QEAA@XZ 000000018000c110 f i ClipProcessor.obj
 0001:0000b120       ?_Xrange@?$vector@V?$shared_ptr@VParameter@@@std@@V?$allocator@V?$shared_ptr@VParameter@@@std@@@2@@std@@CAXXZ 000000018000c120 f i Model.obj
 0001:0000b120       ?_Xrange@?$vector@V?$basic_string@DU?$char_traits@D@std@@V?$allocator@D@2@@std@@V?$allocator@V?$basic_string@DU?$char_traits@D@std@@V?$allocator@D@2@@std@@@2@@std@@CAXXZ 000000018000c120 f i ClipProcessor.obj
 0001:0000b120       ?_Xrange@?$vector@V?$shared_ptr@VTrack@@@std@@V?$allocator@V?$shared_ptr@VTrack@@@std@@@2@@std@@CAXXZ 000000018000c120 f i Model.obj
 0001:0000b120       ?_Xrange@?$vector@HV?$allocator@H@std@@@std@@CAXXZ 000000018000c120 f i DataCollector.obj
 0001:0000b120       ?_Xrange@?$vector@PEAVSend@@V?$allocator@PEAVSend@@@std@@@std@@CAXXZ 000000018000c120 f i Track.obj
 0001:0000b120       ?_Xrange@?$vector@V?$shared_ptr@VMarker@@@std@@V?$allocator@V?$shared_ptr@VMarker@@@std@@@2@@std@@CAXXZ 000000018000c120 f i Model.obj
 0001:0000b140       ?_Tidy@?$vector@V?$basic_string@DU?$char_traits@D@std@@V?$allocator@D@2@@std@@V?$allocator@V?$basic_string@DU?$char_traits@D@std@@V?$allocator@D@2@@std@@@2@@std@@AEAAXXZ 000000018000c140 f i ClipProcessor.obj
 0001:0000b1b0       ?_Destroy@?$vector@V?$basic_string@DU?$char_traits@D@std@@V?$allocator@D@2@@std@@V?$allocator@V?$basic_string@DU?$char_traits@D@std@@V?$allocator@D@2@@std@@@2@@std@@AEAAXPEAV?$basic_string@DU?$char_traits@D@std@@V?$allocator@D@2@@2@0@Z 000000018000c1b0 f i ClipProcessor.obj
 0001:0000b1c0       ?deallocate@?$allocator@V?$basic_string@DU?$char_traits@D@std@@V?$allocator@D@2@@std@@@std@@QEAAXQEAV?$basic_string@DU?$char_traits@D@std@@V?$allocator@D@2@@2@_K@Z 000000018000c1c0 f i ClipProcessor.obj
 0001:0000b210       ??$_Emplace_reallocate@AEBV?$basic_string@DU?$char_traits@D@std@@V?$allocator@D@2@@std@@@?$vector@V?$basic_string@DU?$char_traits@D@std@@V?$allocator@D@2@@std@@V?$allocator@V?$basic_string@DU?$char_traits@D@std@@V?$allocator@D@2@@std@@@2@@std@@QEAAPEAV?$basic_string@DU?$char_traits@D@std@@V?$allocator@D@2@@1@QEAV21@AEBV21@@Z 000000018000c210 f i ClipProcessor.obj
 0001:0000b4d0       ??$_Destroy_range@V?$allocator@V?$basic_string@DU?$char_traits@D@std@@V?$allocator@D@2@@std@@@std@@@std@@YAXPEAV?$basic_string@DU?$char_traits@D@std@@V?$allocator@D@2@@0@QEAV10@AEAV?$allocator@V?$basic_string@DU?$char_traits@D@std@@V?$allocator@D@2@@std@@@0@@Z 000000018000c4d0 f i ClipProcessor.obj
 0001:0000b560       ??$_Regex_search2@PEBDV?$allocator@V?$sub_match@PEBD@std@@@std@@DV?$regex_traits@D@2@PEBD@std@@YA_NPEBD0PEAV?$match_results@PEBDV?$allocator@V?$sub_match@PEBD@std@@@std@@@0@AEBV?$basic_regex@DV?$regex_traits@D@std@@@0@W4match_flag_type@regex_constants@0@0@Z 000000018000c560 f i ClipProcessor.obj
 0001:0000b760       ??1?$_Matcher@PEBDDV?$regex_traits@D@std@@PEBD@std@@QEAA@XZ 000000018000c760 f i ClipProcessor.obj
 0001:0000b7e0       ??1?$_Tgt_state_t@PEBD@std@@QEAA@XZ 000000018000c7e0 f i ClipProcessor.obj
 0001:0000b890       ??1?$_Bt_state_t@PEBD@std@@QEAA@XZ 000000018000c890 f i ClipProcessor.obj
 0001:0000b8f0       ??1?$_Uninitialized_backout_al@V?$allocator@V?$basic_string@DU?$char_traits@D@std@@V?$allocator@D@2@@std@@@std@@@std@@QEAA@XZ 000000018000c8f0 f i ClipProcessor.obj
 0001:0000b900       ??1?$vector@U_Loop_vals_t@std@@V?$allocator@U_Loop_vals_t@std@@@2@@std@@QEAA@XZ 000000018000c900 f i ClipProcessor.obj
 0001:0000b960       ?_Skip@?$_Matcher@PEBDDV?$regex_traits@D@std@@PEBD@std@@QEAAPEBDPEBD0PEAV_Node_base@2@@Z 000000018000c960 f i ClipProcessor.obj
 0001:0000bc50       ??$_Match@V?$allocator@V?$sub_match@PEBD@std@@@std@@@?$_Matcher@PEBDDV?$regex_traits@D@std@@PEBD@std@@QEAA_NPEAV?$match_results@PEBDV?$allocator@V?$sub_match@PEBD@std@@@std@@@1@_N@Z 000000018000cc50 f i ClipProcessor.obj
 0001:0000be90       ?_Resize@?$match_results@PEBDV?$allocator@V?$sub_match@PEBD@std@@@std@@@std@@QEAAXI@Z 000000018000ce90 f i ClipProcessor.obj
 0001:0000bf60       ?_Match_pat@?$_Matcher@PEBDDV?$regex_traits@D@std@@PEBD@std@@AEAA_NPEAV_Node_base@2@@Z 000000018000cf60 f i ClipProcessor.obj
 0001:0000c4b0       ??$_Compare@PEBDPEBDV?$regex_traits@D@std@@@std@@YAPEBDPEBD000AEBV?$regex_traits@D@0@W4syntax_option_type@regex_constants@0@@Z 000000018000d4b0 f i ClipProcessor.obj
 0001:0000c5e0       ??$_Resize_reallocate@U_Value_init_tag@std@@@?$vector@U_Loop_vals_t@std@@V?$allocator@U_Loop_vals_t@std@@@2@@std@@AEAAX_KAEBU_Value_init_tag@1@@Z 000000018000d5e0 f i ClipProcessor.obj
 0001:0000c5e0       ??$_Resize_reallocate@U_Value_init_tag@std@@@?$vector@U_Grp_t@?$_Tgt_state_t@PEBD@std@@V?$allocator@U_Grp_t@?$_Tgt_state_t@PEBD@std@@@3@@std@@AEAAX_KAEBU_Value_init_tag@1@@Z 000000018000d5e0 f i ClipProcessor.obj
 0001:0000c750       ??0?$_Bt_state_t@PEBD@std@@QEAA@AEBV01@@Z 000000018000d750 f i ClipProcessor.obj
 0001:0000c800       ??4?$_Tgt_state_t@PEBD@std@@QEAAAEAV01@AEBV01@@Z 000000018000d800 f i ClipProcessor.obj
 0001:0000c8a0       ??4?$_Bt_state_t@PEBD@std@@QEAAAEAV01@AEBV01@@Z 000000018000d8a0 f i ClipProcessor.obj
 0001:0000c940       ?_Do_if@?$_Matcher@PEBDDV?$regex_traits@D@std@@PEBD@std@@AEAA_NPEAV_Node_if@2@@Z 000000018000d940 f i ClipProcessor.obj
 0001:0000cd50       ?_Do_rep@?$_Matcher@PEBDDV?$regex_traits@D@std@@PEBD@std@@AEAA_NPEAV_Node_rep@2@_NH@Z 000000018000dd50 f i ClipProcessor.obj
 0001:0000d050       ?_Do_class@?$_Matcher@PEBDDV?$regex_traits@D@std@@PEBD@std@@AEAA_NPEAV_Node_base@2@@Z 000000018000e050 f i ClipProcessor.obj
 0001:0000d210       ?_Better_match@?$_Matcher@PEBDDV?$regex_traits@D@std@@PEBD@std@@AEAA_NXZ 000000018000e210 f i ClipProcessor.obj
 0001:0000d2e0       ?_Is_wbound@?$_Matcher@PEBDDV?$regex_traits@D@std@@PEBD@std@@AEBA_NXZ 000000018000e2e0 f i ClipProcessor.obj
 0001:0000d360       ??$_Resize_reallocate@U_Value_init_tag@std@@@?$vector@V?$sub_match@PEBD@std@@V?$allocator@V?$sub_match@PEBD@std@@@2@@std@@AEAAX_KAEBU_Value_init_tag@1@@Z 000000018000e360 f i ClipProcessor.obj
 0001:0000d560       ??$_Reallocate_grow_by@V<lambda_319d5e083f45f90dcdce5dce53cbb275>@@D@?$basic_string@DU?$char_traits@D@std@@V?$allocator@D@2@@std@@AEAAAEAV01@_KV<lambda_319d5e083f45f90dcdce5dce53cbb275>@@D@Z 000000018000e560 f i ClipProcessor.obj
 0001:0000d6d0       ?_Buy_raw@?$vector@U_Grp_t@?$_Tgt_state_t@PEBD@std@@V?$allocator@U_Grp_t@?$_Tgt_state_t@PEBD@std@@@3@@std@@AEAAX_K@Z 000000018000e6d0 f i ClipProcessor.obj
 0001:0000d760       ?_Do_rep0@?$_Matcher@PEBDDV?$regex_traits@D@std@@PEBD@std@@AEAA_NPEAV_Node_rep@2@_N@Z 000000018000e760 f i ClipProcessor.obj
 0001:0000dc20       ?_Clear_and_reserve_geometric@?$vector@U_Grp_t@?$_Tgt_state_t@PEBD@std@@V?$allocator@U_Grp_t@?$_Tgt_state_t@PEBD@std@@@3@@std@@AEAAX_K@Z 000000018000ec20 f i ClipProcessor.obj
 0001:0000dcd0       ?_Clear_and_reserve_geometric@?$vector@IV?$allocator@I@std@@@std@@AEAAX_K@Z 000000018000ecd0 f i ClipProcessor.obj
 0001:0000dd90       _get_startup_argv_mode     000000018000ed90 f i LIBCMT:argv_mode.obj
 0001:0000dd90       ?do_encoding@codecvt_base@std@@MEBAHXZ 000000018000ed90 f i DataCollector.obj
 0001:0000dd90       ?do_max_length@codecvt_base@std@@MEBAHXZ 000000018000ed90 f i DataCollector.obj
 0001:0000dd90       DllMain                    000000018000ed90 f i LIBCMT:dll_dllmain_stub.obj
 0001:0000dda0       ??_Eios_base@std@@UEAAPEAXI@Z 000000018000eda0 f i * CIL library *:* CIL module *
 0001:0000dda0       ??_Gios_base@std@@UEAAPEAXI@Z 000000018000eda0 f i DataCollector.obj
 0001:0000dde0       ?_Throw_tree_length_error@std@@YAXXZ 000000018000ede0 f i DataCollector.obj
 0001:0000de00       ?ValueToVURange@ReaperUtils@@SANN@Z 000000018000ee00 f i DataCollector.obj
 0001:0000de70       ?CollectDoubleValue@Collectors@@SANAEAV?$basic_ostringstream@DU?$char_traits@D@std@@V?$allocator@D@2@@std@@AEBV?$basic_string@DU?$char_traits@D@std@@V?$allocator@D@2@@3@AEBN2AEB_N@Z 000000018000ee70 f i DataCollector.obj
 0001:0000def0       ?CollectStringArrayValue@Collectors@@SAXAEAV?$basic_ostringstream@DU?$char_traits@D@std@@V?$allocator@D@2@@std@@AEBV?$basic_string@DU?$char_traits@D@std@@V?$allocator@D@2@@3@HAEAV?$vector@V?$basic_string@DU?$char_traits@D@std@@V?$allocator@D@2@@std@@V?$allocator@V?$basic_string@DU?$char_traits@D@std@@V?$allocator@D@2@@std@@@2@@3@PEBDAEB_N@Z 000000018000eef0 f i DataCollector.obj
 0001:0000e0a0       ?FormatColor@Collectors@@SA?AV?$basic_string@DU?$char_traits@D@std@@V?$allocator@D@2@@std@@HHH@Z 000000018000f0a0 f i DataCollector.obj
 0001:0000e230       ?FormatDB@Collectors@@SA?AV?$basic_string@DU?$char_traits@D@std@@V?$allocator@D@2@@std@@N@Z 000000018000f230 f i DataCollector.obj
 0001:0000e430       ?FormatPan@Collectors@@SA?AV?$basic_string@DU?$char_traits@D@std@@V?$allocator@D@2@@std@@N@Z 000000018000f430 f i DataCollector.obj
 0001:0000e610       ??_D?$basic_ostringstream@DU?$char_traits@D@std@@V?$allocator@D@2@@std@@QEAAXXZ 000000018000f610 f i DataCollector.obj
 0001:0000e6b0       ??0DataCollector@@QEAA@AEAVModel@@@Z 000000018000f6b0 f   DataCollector.obj
 0001:0000ecd0       ??_EDataCollector@@UEAAPEAXI@Z 000000018000fcd0 f i * CIL library *:* CIL module *
 0001:0000ecd0       ??_GDataCollector@@UEAAPEAXI@Z 000000018000fcd0 f i DataCollector.obj
 0001:0000ed10       ??1Parameter@@QEAA@XZ      000000018000fd10 f i DataCollector.obj
 0001:0000eec0       ??1DataCollector@@UEAA@XZ  000000018000fec0 f   DataCollector.obj
 0001:0000f570       ?CollectData@DataCollector@@QEAA?AV?$basic_string@DU?$char_traits@D@std@@V?$allocator@D@2@@std@@AEB_NAEAVActionProcessor@@@Z 0000000180010570 f   DataCollector.obj
 0001:0000fa90       ?CollectTransportData@DataCollector@@AEAAXAEAV?$basic_ostringstream@DU?$char_traits@D@std@@V?$allocator@D@2@@std@@PEAVReaProject@@AEB_N@Z 0000000180010a90 f   DataCollector.obj
 0001:00010c60       ?CollectProjectData@DataCollector@@AEAAXAEAV?$basic_ostringstream@DU?$char_traits@D@std@@V?$allocator@D@2@@std@@PEAVReaProject@@AEB_N@Z 0000000180011c60 f   DataCollector.obj
 0001:00010fa0       ?CollectDeviceData@DataCollector@@AEAAXAEAV?$basic_ostringstream@DU?$char_traits@D@std@@V?$allocator@D@2@@std@@PEAVReaProject@@PEAVMediaTrack@@AEB_N@Z 0000000180011fa0 f   DataCollector.obj
 0001:000132a0       ?CollectTrackData@DataCollector@@AEAAXAEAV?$basic_ostringstream@DU?$char_traits@D@std@@V?$allocator@D@2@@std@@PEAVReaProject@@AEB_N@Z 00000001800142a0 f   DataCollector.obj
 0001:00013b00       ?CollectPlayingNotes@DataCollector@@AEAA?AV?$basic_string@DU?$char_traits@D@std@@V?$allocator@D@2@@std@@PEAVReaProject@@PEAVMediaTrack@@@Z 0000000180014b00 f   DataCollector.obj
 0001:00014000       ?CollectMasterTrackData@DataCollector@@AEAAXAEAV?$basic_ostringstream@DU?$char_traits@D@std@@V?$allocator@D@2@@std@@PEAVReaProject@@AEB_N@Z 0000000180015000 f   DataCollector.obj
 0001:00015300       ?CollectClipData@DataCollector@@AEAAXAEAV?$basic_ostringstream@DU?$char_traits@D@std@@V?$allocator@D@2@@std@@PEAVReaProject@@AEB_N@Z 0000000180016300 f   DataCollector.obj
 0001:00015e60       ?CollectClipNotes@DataCollector@@AEAA?AV?$basic_string@DU?$char_traits@D@std@@V?$allocator@D@2@@std@@PEAVReaProject@@PEAVMediaItem@@@Z 0000000180016e60 f   DataCollector.obj
 0001:00016470       ?CollectBrowserData@DataCollector@@AEAAXAEAV?$basic_ostringstream@DU?$char_traits@D@std@@V?$allocator@D@2@@std@@PEAVMediaTrack@@AEB_N@Z 0000000180017470 f   DataCollector.obj
 0001:000167e0       ?CollectMarkerData@DataCollector@@AEAAXAEAV?$basic_ostringstream@DU?$char_traits@D@std@@V?$allocator@D@2@@std@@PEAVReaProject@@AEB_N@Z 00000001800177e0 f   DataCollector.obj
 0001:00016a50       ?CollectSessionData@DataCollector@@AEAAXAEAV?$basic_ostringstream@DU?$char_traits@D@std@@V?$allocator@D@2@@std@@PEAVReaProject@@AEB_N@Z 0000000180017a50 f   DataCollector.obj
 0001:00017700       ?CollectNoteRepeatData@DataCollector@@AEAAXAEAV?$basic_ostringstream@DU?$char_traits@D@std@@V?$allocator@D@2@@std@@PEAVReaProject@@AEB_N@Z 0000000180018700 f   DataCollector.obj
 0001:00017cc0       ?CollectGrooveData@DataCollector@@AEAAXAEAV?$basic_ostringstream@DU?$char_traits@D@std@@V?$allocator@D@2@@std@@PEAVReaProject@@AEB_N@Z 0000000180018cc0 f   DataCollector.obj
 0001:00017ed0       ?DelayUpdate@DataCollector@@QEAAXV?$basic_string@DU?$char_traits@D@std@@V?$allocator@D@2@@std@@@Z 0000000180018ed0 f   DataCollector.obj
 0001:000180c0       ?IsActive@DataCollector@@AEAA_NV?$basic_string@DU?$char_traits@D@std@@V?$allocator@D@2@@std@@@Z 00000001800190c0 f   DataCollector.obj
 0001:000181d0       ?CheckDelay@DataCollector@@AEAA_NV?$basic_string@DU?$char_traits@D@std@@V?$allocator@D@2@@std@@@Z 00000001800191d0 f   DataCollector.obj
 0001:00018380       ?LoadDevicePresetFile@DataCollector@@AEAAXAEAV?$basic_ostringstream@DU?$char_traits@D@std@@V?$allocator@D@2@@std@@PEAVMediaTrack@@HAEB_N@Z 0000000180019380 f   DataCollector.obj
 0001:00019330       ??_D?$basic_ifstream@DU?$char_traits@D@std@@@std@@QEAAXXZ 000000018001a330 f i DataCollector.obj
 0001:000193d0       ?imbue@?$basic_filebuf@DU?$char_traits@D@std@@@std@@MEAAXAEBVlocale@2@@Z 000000018001a3d0 f i DataCollector.obj
 0001:00019400       ?sync@?$basic_filebuf@DU?$char_traits@D@std@@@std@@MEAAHXZ 000000018001a400 f i DataCollector.obj
 0001:00019450       ?setbuf@?$basic_filebuf@DU?$char_traits@D@std@@@std@@MEAAPEAV?$basic_streambuf@DU?$char_traits@D@std@@@2@PEAD_J@Z 000000018001a450 f i DataCollector.obj
 0001:000194b0       ?seekpos@?$basic_filebuf@DU?$char_traits@D@std@@@std@@MEAA?AV?$fpos@U_Mbstatet@@@2@V32@H@Z 000000018001a4b0 f i DataCollector.obj
 0001:00019590       ?seekoff@?$basic_filebuf@DU?$char_traits@D@std@@@std@@MEAA?AV?$fpos@U_Mbstatet@@@2@_JHH@Z 000000018001a590 f i DataCollector.obj
 0001:00019680       ?xsputn@?$basic_filebuf@DU?$char_traits@D@std@@@std@@MEAA_JPEBD_J@Z 000000018001a680 f i DataCollector.obj
 0001:000197b0       ?xsgetn@?$basic_filebuf@DU?$char_traits@D@std@@@std@@MEAA_JPEAD_J@Z 000000018001a7b0 f i DataCollector.obj
 0001:00019970       ?uflow@?$basic_filebuf@DU?$char_traits@D@std@@@std@@MEAAHXZ 000000018001a970 f i DataCollector.obj
 0001:00019c10       ?underflow@?$basic_filebuf@DU?$char_traits@D@std@@@std@@MEAAHXZ 000000018001ac10 f i DataCollector.obj
 0001:00019c80       ?pbackfail@?$basic_filebuf@DU?$char_traits@D@std@@@std@@MEAAHH@Z 000000018001ac80 f i DataCollector.obj
 0001:00019d70       ?overflow@?$basic_filebuf@DU?$char_traits@D@std@@@std@@MEAAHH@Z 000000018001ad70 f i DataCollector.obj
 0001:00019f10       ?_Unlock@?$basic_filebuf@DU?$char_traits@D@std@@@std@@UEAAXXZ 000000018001af10 f i DataCollector.obj
 0001:00019f30       ?_Lock@?$basic_filebuf@DU?$char_traits@D@std@@@std@@UEAAXXZ 000000018001af30 f i DataCollector.obj
 0001:00019f50       ??1?$basic_filebuf@DU?$char_traits@D@std@@@std@@UEAA@XZ 000000018001af50 f i DataCollector.obj
 0001:0001a000       ??1?$basic_istream@DU?$char_traits@D@std@@@std@@UEAA@XZ 000000018001b000 f i DataCollector.obj
 0001:0001a030       ??1?$shared_ptr@VParameter@@@std@@QEAA@XZ 000000018001b030 f i DataCollector.obj
 0001:0001a030       ??1?$shared_ptr@VMarker@@@std@@QEAA@XZ 000000018001b030 f i DataCollector.obj
 0001:0001a030       ??1?$shared_ptr@VTrack@@@std@@QEAA@XZ 000000018001b030 f i DataCollector.obj
 0001:0001a080       ?seekpos@?$basic_stringbuf@DU?$char_traits@D@std@@V?$allocator@D@2@@std@@MEAA?AV?$fpos@U_Mbstatet@@@2@V32@H@Z 000000018001b080 f i DataCollector.obj
 0001:0001a170       ?seekoff@?$basic_stringbuf@DU?$char_traits@D@std@@V?$allocator@D@2@@std@@MEAA?AV?$fpos@U_Mbstatet@@@2@_JHH@Z 000000018001b170 f i DataCollector.obj
 0001:0001a2d0       ?underflow@?$basic_stringbuf@DU?$char_traits@D@std@@V?$allocator@D@2@@std@@MEAAHXZ 000000018001b2d0 f i DataCollector.obj
 0001:0001a340       ?pbackfail@?$basic_stringbuf@DU?$char_traits@D@std@@V?$allocator@D@2@@std@@MEAAHH@Z 000000018001b340 f i DataCollector.obj
 0001:0001a3a0       ?overflow@?$basic_stringbuf@DU?$char_traits@D@std@@V?$allocator@D@2@@std@@MEAAHH@Z 000000018001b3a0 f i DataCollector.obj
 0001:0001a5b0       ??1?$basic_stringbuf@DU?$char_traits@D@std@@V?$allocator@D@2@@std@@UEAA@XZ 000000018001b5b0 f i DataCollector.obj
 0001:0001a6b0       ?Extended@IReaperControlSurface@@UEAAHHPEAX00@Z 000000018001b6b0 f i DrivenByMossSurface.obj
 0001:0001a6b0       ?showmanyc@?$basic_streambuf@DU?$char_traits@D@std@@@std@@MEAA_JXZ 000000018001b6b0 f i DataCollector.obj
 0001:0001a6b0       ?_Get_deleter@_Ref_count_base@std@@UEBAPEAXAEBVtype_info@@@Z 000000018001b6b0 f i Model.obj
 0001:0001a6b0       ?sync@?$basic_streambuf@DU?$char_traits@D@std@@@std@@MEAAHXZ 000000018001b6b0 f i DataCollector.obj
 0001:0001a6c0       ?setbuf@?$basic_streambuf@DU?$char_traits@D@std@@@std@@MEAAPEAV12@PEAD_J@Z 000000018001b6c0 f i DataCollector.obj
 0001:0001a6d0       ?seekpos@?$basic_streambuf@DU?$char_traits@D@std@@@std@@MEAA?AV?$fpos@U_Mbstatet@@@2@V32@H@Z 000000018001b6d0 f i DataCollector.obj
 0001:0001a6d0       ?seekoff@?$basic_streambuf@DU?$char_traits@D@std@@@std@@MEAA?AV?$fpos@U_Mbstatet@@@2@_JHH@Z 000000018001b6d0 f i DataCollector.obj
 0001:0001a6f0       ?xsputn@?$basic_streambuf@DU?$char_traits@D@std@@@std@@MEAA_JPEBD_J@Z 000000018001b6f0 f i DataCollector.obj
 0001:0001a7b0       ?xsgetn@?$basic_streambuf@DU?$char_traits@D@std@@@std@@MEAA_JPEAD_J@Z 000000018001b7b0 f i DataCollector.obj
 0001:0001a860       ?uflow@?$basic_streambuf@DU?$char_traits@D@std@@@std@@MEAAHXZ 000000018001b860 f i DataCollector.obj
 0001:0001a8a0       ?overflow@?$basic_streambuf@DU?$char_traits@D@std@@@std@@MEAAHH@Z 000000018001b8a0 f i DataCollector.obj
 0001:0001a8a0       ?pbackfail@?$basic_streambuf@DU?$char_traits@D@std@@@std@@MEAAHH@Z 000000018001b8a0 f i DataCollector.obj
 0001:0001a8a0       ?underflow@?$basic_streambuf@DU?$char_traits@D@std@@@std@@MEAAHXZ 000000018001b8a0 f i DataCollector.obj
 0001:0001a8b0       ??1?$basic_streambuf@DU?$char_traits@D@std@@@std@@UEAA@XZ 000000018001b8b0 f i DataCollector.obj
 0001:0001a910       ?str@?$basic_ostringstream@DU?$char_traits@D@std@@V?$allocator@D@2@@std@@QEBA?AV?$basic_string@DU?$char_traits@D@std@@V?$allocator@D@2@@2@XZ 000000018001b910 f i DataCollector.obj
 0001:0001a9d0       ??0?$basic_ostringstream@DU?$char_traits@D@std@@V?$allocator@D@2@@std@@QEAA@XZ 000000018001b9d0 f i DataCollector.obj
 0001:0001aab0       ??6?$basic_ostream@DU?$char_traits@D@std@@@std@@QEAAAEAV01@N@Z 000000018001bab0 f i DataCollector.obj
 0001:0001ac70       ??6?$basic_ostream@DU?$char_traits@D@std@@@std@@QEAAAEAV01@_N@Z 000000018001bc70 f i DataCollector.obj
 0001:0001ae20       ??1?$basic_ostream@DU?$char_traits@D@std@@@std@@UEAA@XZ 000000018001be20 f i DataCollector.obj
 0001:0001ae50       ??1?$basic_ios@DU?$char_traits@D@std@@@std@@UEAA@XZ 000000018001be50 f i DataCollector.obj
 0001:0001ae70       ??1?$lock_guard@Vmutex@std@@@std@@QEAA@XZ 000000018001be70 f i DataCollector.obj
 0001:0001ae80       ??_E?$basic_filebuf@DU?$char_traits@D@std@@@std@@UEAAPEAXI@Z 000000018001be80 f i * CIL library *:* CIL module *
 0001:0001ae80       ??_G?$basic_filebuf@DU?$char_traits@D@std@@@std@@UEAAPEAXI@Z 000000018001be80 f i DataCollector.obj
 0001:0001aec0       ??_E?$basic_ifstream@DU?$char_traits@D@std@@@std@@UEAAPEAXI@Z 000000018001bec0 f i * CIL library *:* CIL module *
 0001:0001aec0       ??_G?$basic_ifstream@DU?$char_traits@D@std@@@std@@UEAAPEAXI@Z 000000018001bec0 f i DataCollector.obj
 0001:0001af00       ??_E?$basic_istream@DU?$char_traits@D@std@@@std@@UEAAPEAXI@Z 000000018001bf00 f i * CIL library *:* CIL module *
 0001:0001af00       ??_G?$basic_istream@DU?$char_traits@D@std@@@std@@UEAAPEAXI@Z 000000018001bf00 f i DataCollector.obj
 0001:0001af70       ??_G?$basic_stringbuf@DU?$char_traits@D@std@@V?$allocator@D@2@@std@@UEAAPEAXI@Z 000000018001bf70 f i DataCollector.obj
 0001:0001af70       ??_E?$basic_stringbuf@DU?$char_traits@D@std@@V?$allocator@D@2@@std@@UEAAPEAXI@Z 000000018001bf70 f i * CIL library *:* CIL module *
 0001:0001afb0       ??_G?$basic_streambuf@DU?$char_traits@D@std@@@std@@UEAAPEAXI@Z 000000018001bfb0 f i DataCollector.obj
 0001:0001afb0       ??_E?$basic_streambuf@DU?$char_traits@D@std@@@std@@UEAAPEAXI@Z 000000018001bfb0 f i * CIL library *:* CIL module *
 0001:0001b030       ??_E?$basic_ostringstream@DU?$char_traits@D@std@@V?$allocator@D@2@@std@@UEAAPEAXI@Z 000000018001c030 f i * CIL library *:* CIL module *
 0001:0001b030       ??_G?$basic_ostringstream@DU?$char_traits@D@std@@V?$allocator@D@2@@std@@UEAAPEAXI@Z 000000018001c030 f i DataCollector.obj
 0001:0001b070       ??_G?$basic_ostream@DU?$char_traits@D@std@@@std@@UEAAPEAXI@Z 000000018001c070 f i DataCollector.obj
 0001:0001b070       ??_E?$basic_ostream@DU?$char_traits@D@std@@@std@@UEAAPEAXI@Z 000000018001c070 f i * CIL library *:* CIL module *
 0001:0001b0e0       ??_G?$basic_ios@DU?$char_traits@D@std@@@std@@UEAAPEAXI@Z 000000018001c0e0 f i DataCollector.obj
 0001:0001b0e0       ??_E?$basic_ios@DU?$char_traits@D@std@@@std@@UEAAPEAXI@Z 000000018001c0e0 f i * CIL library *:* CIL module *
 0001:0001b120       ?do_length@?$codecvt@DDU_Mbstatet@@@std@@MEBAHAEAU_Mbstatet@@PEBD1_K@Z 000000018001c120 f i DataCollector.obj
 0001:0001b140       ?do_unshift@?$codecvt@DDU_Mbstatet@@@std@@MEBAHAEAU_Mbstatet@@PEAD1AEAPEAD@Z 000000018001c140 f i DataCollector.obj
 0001:0001b150       ?do_out@?$codecvt@DDU_Mbstatet@@@std@@MEBAHAEAU_Mbstatet@@PEBD1AEAPEBDPEAD3AEAPEAD@Z 000000018001c150 f i DataCollector.obj
 0001:0001b150       ?do_in@?$codecvt@DDU_Mbstatet@@@std@@MEBAHAEAU_Mbstatet@@PEBD1AEAPEBDPEAD3AEAPEAD@Z 000000018001c150 f i DataCollector.obj
 0001:0001b170       __acrt_uninitialize_command_line 000000018001c170 f i libucrt:argv_data.obj
 0001:0001b170       ?do_always_noconv@?$codecvt@DDU_Mbstatet@@@std@@MEBA_NXZ 000000018001c170 f i DataCollector.obj
 0001:0001b180       ?_Initcvt@?$basic_filebuf@DU?$char_traits@D@std@@@std@@IEAAXAEBV?$codecvt@DDU_Mbstatet@@@2@@Z 000000018001c180 f i DataCollector.obj
 0001:0001b200       ?_Endwrite@?$basic_filebuf@DU?$char_traits@D@std@@@std@@IEAA_NXZ 000000018001c200 f i DataCollector.obj
 0001:0001b2f0       ?_Init@?$basic_filebuf@DU?$char_traits@D@std@@@std@@IEAAXPEAU_iobuf@@W4_Initfl@12@@Z 000000018001c2f0 f i DataCollector.obj
 0001:0001b3c0       ?close@?$basic_filebuf@DU?$char_traits@D@std@@@std@@QEAAPEAV12@XZ 000000018001c3c0 f i DataCollector.obj
 0001:0001b480       ?open@?$basic_filebuf@DU?$char_traits@D@std@@@std@@QEAAPEAV12@PEBDHH@Z 000000018001c480 f i DataCollector.obj
 0001:0001b530       ??0?$basic_filebuf@DU?$char_traits@D@std@@@std@@QEAA@XZ 000000018001c530 f i DataCollector.obj
 0001:0001b5c0       ?_Gnavail@?$basic_streambuf@DU?$char_traits@D@std@@@std@@IEBA_JXZ 000000018001c5c0 f i DataCollector.obj
 0001:0001b5e0       ?_Erase_unchecked@?$_Tree@V?$_Tmap_traits@V?$basic_string@DU?$char_traits@D@std@@V?$allocator@D@2@@std@@_JU?$less@V?$basic_string@DU?$char_traits@D@std@@V?$allocator@D@2@@std@@@2@V?$allocator@U?$pair@$$CBV?$basic_string@DU?$char_traits@D@std@@V?$allocator@D@2@@std@@_J@std@@@2@$0A@@std@@@std@@AEAAPEAU?$_Tree_node@U?$pair@$$CBV?$basic_string@DU?$char_traits@D@std@@V?$allocator@D@2@@std@@_J@std@@PEAX@2@V?$_Tree_unchecked_const_iterator@V?$_Tree_val@U?$_Tree_simple_types@U?$pair@$$CBV?$basic_string@DU?$char_traits@D@std@@V?$allocator@D@2@@std@@_J@std@@@std@@@std@@U_Iterator_base0@2@@2@0@Z 000000018001c5e0 f i DataCollector.obj
 0001:0001b770       ??0?$basic_streambuf@DU?$char_traits@D@std@@@std@@IEAA@XZ 000000018001c770 f i DataCollector.obj
 0001:0001b800       ?init@?$basic_ios@DU?$char_traits@D@std@@@std@@IEAAXPEAV?$basic_streambuf@DU?$char_traits@D@std@@@2@_N@Z 000000018001c800 f i DataCollector.obj
 0001:0001b8e0       ?_Extract@?$_Tree_val@U?$_Tree_simple_types@U?$pair@$$CBV?$basic_string@DU?$char_traits@D@std@@V?$allocator@D@2@@std@@_J@std@@@std@@@std@@QEAAPEAU?$_Tree_node@U?$pair@$$CBV?$basic_string@DU?$char_traits@D@std@@V?$allocator@D@2@@std@@_J@std@@PEAX@2@V?$_Tree_unchecked_const_iterator@V?$_Tree_val@U?$_Tree_simple_types@U?$pair@$$CBV?$basic_string@DU?$char_traits@D@std@@V?$allocator@D@2@@std@@_J@std@@@std@@@std@@U_Iterator_base0@2@@2@@Z 000000018001c8e0 f i DataCollector.obj
 0001:0001bd80       ??$_Eqrange@V?$basic_string@DU?$char_traits@D@std@@V?$allocator@D@2@@std@@@?$_Tree@V?$_Tmap_traits@V?$basic_string@DU?$char_traits@D@std@@V?$allocator@D@2@@std@@_JU?$less@V?$basic_string@DU?$char_traits@D@std@@V?$allocator@D@2@@std@@@2@V?$allocator@U?$pair@$$CBV?$basic_string@DU?$char_traits@D@std@@V?$allocator@D@2@@std@@_J@std@@@2@$0A@@std@@@std@@IEBA?AU?$pair@PEAU?$_Tree_node@U?$pair@$$CBV?$basic_string@DU?$char_traits@D@std@@V?$allocator@D@2@@std@@_J@std@@PEAX@std@@PEAU12@@1@AEBV?$basic_string@DU?$char_traits@D@std@@V?$allocator@D@2@@1@@Z 000000018001cd80 f i DataCollector.obj
 0001:0001bf00       ??$use_facet@V?$codecvt@DDU_Mbstatet@@@std@@@std@@YAAEBV?$codecvt@DDU_Mbstatet@@@0@AEBVlocale@0@@Z 000000018001cf00 f i DataCollector.obj
 0001:0001c010       ??$_Try_emplace@AEBV?$basic_string@DU?$char_traits@D@std@@V?$allocator@D@2@@std@@$$V@?$map@V?$basic_string@DU?$char_traits@D@std@@V?$allocator@D@2@@std@@_NU?$less@V?$basic_string@DU?$char_traits@D@std@@V?$allocator@D@2@@std@@@2@V?$allocator@U?$pair@$$CBV?$basic_string@DU?$char_traits@D@std@@V?$allocator@D@2@@std@@_N@std@@@2@@std@@AEAA?AU?$pair@PEAU?$_Tree_node@U?$pair@$$CBV?$basic_string@DU?$char_traits@D@std@@V?$allocator@D@2@@std@@_N@std@@PEAX@std@@_N@1@AEBV?$basic_string@DU?$char_traits@D@std@@V?$allocator@D@2@@1@@Z 000000018001d010 f i DataCollector.obj
 0001:0001c1f0       ??$_Emplace_reallocate@V?$basic_string@DU?$char_traits@D@std@@V?$allocator@D@2@@std@@@?$vector@V?$basic_string@DU?$char_traits@D@std@@V?$allocator@D@2@@std@@V?$allocator@V?$basic_string@DU?$char_traits@D@std@@V?$allocator@D@2@@std@@@2@@std@@QEAAPEAV?$basic_string@DU?$char_traits@D@std@@V?$allocator@D@2@@1@QEAV21@$$QEAV21@@Z 000000018001d1f0 f i DataCollector.obj
 0001:0001c480       ??$_Erase_tree@V?$allocator@U?$_Tree_node@U?$pair@$$CBV?$basic_string@DU?$char_traits@D@std@@V?$allocator@D@2@@std@@PEAVOscProcessor@@@std@@PEAX@std@@@std@@@?$_Tree_val@U?$_Tree_simple_types@U?$pair@$$CBV?$basic_string@DU?$char_traits@D@std@@V?$allocator@D@2@@std@@PEAVOscProcessor@@@std@@@std@@@std@@QEAAXAEAV?$allocator@U?$_Tree_node@U?$pair@$$CBV?$basic_string@DU?$char_traits@D@std@@V?$allocator@D@2@@std@@PEAVOscProcessor@@@std@@PEAX@std@@@1@PEAU?$_Tree_node@U?$pair@$$CBV?$basic_string@DU?$char_traits@D@std@@V?$allocator@D@2@@std@@PEAVOscProcessor@@@std@@PEAX@1@@Z 000000018001d480 f i DrivenByMossSurface.obj
 0001:0001c480       ??$_Erase_tree@V?$allocator@U?$_Tree_node@U?$pair@$$CBV?$basic_string@DU?$char_traits@D@std@@V?$allocator@D@2@@std@@_J@std@@PEAX@std@@@std@@@?$_Tree_val@U?$_Tree_simple_types@U?$pair@$$CBV?$basic_string@DU?$char_traits@D@std@@V?$allocator@D@2@@std@@_J@std@@@std@@@std@@QEAAXAEAV?$allocator@U?$_Tree_node@U?$pair@$$CBV?$basic_string@DU?$char_traits@D@std@@V?$allocator@D@2@@std@@_J@std@@PEAX@std@@@1@PEAU?$_Tree_node@U?$pair@$$CBV?$basic_string@DU?$char_traits@D@std@@V?$allocator@D@2@@std@@_J@std@@PEAX@1@@Z 000000018001d480 f i DataCollector.obj
 0001:0001c480       ??$_Erase_tree@V?$allocator@U?$_Tree_node@U?$pair@$$CBV?$basic_string@DU?$char_traits@D@std@@V?$allocator@D@2@@std@@_N@std@@PEAX@std@@@std@@@?$_Tree_val@U?$_Tree_simple_types@U?$pair@$$CBV?$basic_string@DU?$char_traits@D@std@@V?$allocator@D@2@@std@@_N@std@@@std@@@std@@QEAAXAEAV?$allocator@U?$_Tree_node@U?$pair@$$CBV?$basic_string@DU?$char_traits@D@std@@V?$allocator@D@2@@std@@_N@std@@PEAX@std@@@1@PEAU?$_Tree_node@U?$pair@$$CBV?$basic_string@DU?$char_traits@D@std@@V?$allocator@D@2@@std@@_N@std@@PEAX@1@@Z 000000018001d480 f i DataCollector.obj
 0001:0001c540       ??1?$_Tidy_guard@V?$vector@V?$basic_string@DU?$char_traits@D@std@@V?$allocator@D@2@@std@@V?$allocator@V?$basic_string@DU?$char_traits@D@std@@V?$allocator@D@2@@std@@@2@@std@@@std@@QEAA@XZ 000000018001d540 f i DataCollector.obj
 0001:0001c550       ?_Getcat@?$codecvt@DDU_Mbstatet@@@std@@SA_KPEAPEBVfacet@locale@2@PEBV42@@Z 000000018001d550 f i DataCollector.obj
 0001:0001c6d0       ?_Insert_node@?$_Tree_val@U?$_Tree_simple_types@U?$pair@$$CBV?$basic_string@DU?$char_traits@D@std@@V?$allocator@D@2@@std@@_J@std@@@std@@@std@@QEAAPEAU?$_Tree_node@U?$pair@$$CBV?$basic_string@DU?$char_traits@D@std@@V?$allocator@D@2@@std@@_J@std@@PEAX@2@U?$_Tree_id@PEAU?$_Tree_node@U?$pair@$$CBV?$basic_string@DU?$char_traits@D@std@@V?$allocator@D@2@@std@@_J@std@@PEAX@std@@@2@QEAU32@@Z 000000018001d6d0 f i DataCollector.obj
 0001:0001c6d0       ?_Insert_node@?$_Tree_val@U?$_Tree_simple_types@U?$pair@$$CBV?$basic_string@DU?$char_traits@D@std@@V?$allocator@D@2@@std@@PEAVOscProcessor@@@std@@@std@@@std@@QEAAPEAU?$_Tree_node@U?$pair@$$CBV?$basic_string@DU?$char_traits@D@std@@V?$allocator@D@2@@std@@PEAVOscProcessor@@@std@@PEAX@2@U?$_Tree_id@PEAU?$_Tree_node@U?$pair@$$CBV?$basic_string@DU?$char_traits@D@std@@V?$allocator@D@2@@std@@PEAVOscProcessor@@@std@@PEAX@std@@@2@QEAU32@@Z 000000018001d6d0 f i OscParser.obj
 0001:0001c6d0       ?_Insert_node@?$_Tree_val@U?$_Tree_simple_types@U?$pair@$$CBV?$basic_string@DU?$char_traits@D@std@@V?$allocator@D@2@@std@@_N@std@@@std@@@std@@QEAAPEAU?$_Tree_node@U?$pair@$$CBV?$basic_string@DU?$char_traits@D@std@@V?$allocator@D@2@@std@@_N@std@@PEAX@2@U?$_Tree_id@PEAU?$_Tree_node@U?$pair@$$CBV?$basic_string@DU?$char_traits@D@std@@V?$allocator@D@2@@std@@_N@std@@PEAX@std@@@2@QEAU32@@Z 000000018001d6d0 f i DataCollector.obj
 0001:0001c950       ??1?$_Tree_temp_node_alloc@V?$allocator@U?$_Tree_node@U?$pair@$$CBV?$basic_string@DU?$char_traits@D@std@@V?$allocator@D@2@@std@@_N@std@@PEAX@std@@@std@@@std@@QEAA@XZ 000000018001d950 f i DataCollector.obj
 0001:0001c950       ??1?$_Alloc_construct_ptr@V?$allocator@U?$_Tree_node@U?$pair@$$CBV?$basic_string@DU?$char_traits@D@std@@V?$allocator@D@2@@std@@PEAVOscProcessor@@@std@@PEAX@std@@@std@@@std@@QEAA@XZ 000000018001d950 f i OscParser.obj
 0001:0001c950       ??1?$_Tree_temp_node_alloc@V?$allocator@U?$_Tree_node@U?$pair@$$CBV?$basic_string@DU?$char_traits@D@std@@V?$allocator@D@2@@std@@_J@std@@PEAX@std@@@std@@@std@@QEAA@XZ 000000018001d950 f i DataCollector.obj
 0001:0001c950       ??1?$_Alloc_construct_ptr@V?$allocator@U?$_Tree_node@U?$pair@$$CBV?$basic_string@DU?$char_traits@D@std@@V?$allocator@D@2@@std@@_N@std@@PEAX@std@@@std@@@std@@QEAA@XZ 000000018001d950 f i DataCollector.obj
 0001:0001c950       ??1?$_Alloc_construct_ptr@V?$allocator@U?$_Tree_node@U?$pair@$$CBV?$basic_string@DU?$char_traits@D@std@@V?$allocator@D@2@@std@@_J@std@@PEAX@std@@@std@@@std@@QEAA@XZ 000000018001d950 f i DataCollector.obj
 0001:0001c970       ?_Buy_raw@?$vector@V?$basic_string@DU?$char_traits@D@std@@V?$allocator@D@2@@std@@V?$allocator@V?$basic_string@DU?$char_traits@D@std@@V?$allocator@D@2@@std@@@2@@std@@AEAAX_K@Z 000000018001d970 f i DataCollector.obj
 0001:0001ca00       ??$getline@DU?$char_traits@D@std@@V?$allocator@D@2@@std@@YAAEAV?$basic_istream@DU?$char_traits@D@std@@@0@$$QEAV10@AEAV?$basic_string@DU?$char_traits@D@std@@V?$allocator@D@2@@0@D@Z 000000018001da00 f i DataCollector.obj
 0001:0001cc80       ??$_Find_lower_bound@V?$basic_string@DU?$char_traits@D@std@@V?$allocator@D@2@@std@@@?$_Tree@V?$_Tmap_traits@V?$basic_string@DU?$char_traits@D@std@@V?$allocator@D@2@@std@@_JU?$less@V?$basic_string@DU?$char_traits@D@std@@V?$allocator@D@2@@std@@@2@V?$allocator@U?$pair@$$CBV?$basic_string@DU?$char_traits@D@std@@V?$allocator@D@2@@std@@_J@std@@@2@$0A@@std@@@std@@IEBA?AU?$_Tree_find_result@PEAU?$_Tree_node@U?$pair@$$CBV?$basic_string@DU?$char_traits@D@std@@V?$allocator@D@2@@std@@_J@std@@PEAX@std@@@1@AEBV?$basic_string@DU?$char_traits@D@std@@V?$allocator@D@2@@1@@Z 000000018001dc80 f i DataCollector.obj
 0001:0001cc80       ??$_Find_lower_bound@V?$basic_string@DU?$char_traits@D@std@@V?$allocator@D@2@@std@@@?$_Tree@V?$_Tmap_traits@V?$basic_string@DU?$char_traits@D@std@@V?$allocator@D@2@@std@@PEAVOscProcessor@@U?$less@V?$basic_string@DU?$char_traits@D@std@@V?$allocator@D@2@@std@@@2@V?$allocator@U?$pair@$$CBV?$basic_string@DU?$char_traits@D@std@@V?$allocator@D@2@@std@@PEAVOscProcessor@@@std@@@2@$0A@@std@@@std@@IEBA?AU?$_Tree_find_result@PEAU?$_Tree_node@U?$pair@$$CBV?$basic_string@DU?$char_traits@D@std@@V?$allocator@D@2@@std@@PEAVOscProcessor@@@std@@PEAX@std@@@1@AEBV?$basic_string@DU?$char_traits@D@std@@V?$allocator@D@2@@1@@Z 000000018001dc80 f i OscParser.obj
 0001:0001cd40       ??1sentry@?$basic_istream@DU?$char_traits@D@std@@@std@@QEAA@XZ 000000018001dd40 f i DataCollector.obj
 0001:0001cd70       ?_Ipfx@?$basic_istream@DU?$char_traits@D@std@@@std@@QEAA_N_N@Z 000000018001dd70 f i DataCollector.obj
 0001:0001cdd4       ??_E?$basic_ostream@DU?$char_traits@D@std@@@std@@$4PPPPPPPM@A@EAAPEAXI@Z 000000018001ddd4 f i DataCollector.obj
 0001:0001cde0       ??_E?$basic_ifstream@DU?$char_traits@D@std@@@std@@$4PPPPPPPM@A@EAAPEAXI@Z 000000018001dde0 f i DataCollector.obj
 0001:0001cdec       ??_E?$basic_istream@DU?$char_traits@D@std@@@std@@$4PPPPPPPM@A@EAAPEAXI@Z 000000018001ddec f i DataCollector.obj
 0001:0001cdf8       ??_E?$basic_ostringstream@DU?$char_traits@D@std@@V?$allocator@D@2@@std@@$4PPPPPPPM@A@EAAPEAXI@Z 000000018001ddf8 f i DataCollector.obj
 0001:0001ce10       ?Process@DeviceProcessor@@UEAAXAEAV?$deque@V?$basic_string@DU?$char_traits@D@std@@V?$allocator@D@2@@std@@V?$allocator@V?$basic_string@DU?$char_traits@D@std@@V?$allocator@D@2@@std@@@2@@std@@@Z 000000018001de10 f   DeviceProcessor.obj
 0001:0001d090       ?Process@DeviceProcessor@@UEAAXAEAV?$deque@V?$basic_string@DU?$char_traits@D@std@@V?$allocator@D@2@@std@@V?$allocator@V?$basic_string@DU?$char_traits@D@std@@V?$allocator@D@2@@std@@@2@@std@@H@Z 000000018001e090 f   DeviceProcessor.obj
 0001:0001d310       ?Process@DeviceProcessor@@UEAAXAEAV?$deque@V?$basic_string@DU?$char_traits@D@std@@V?$allocator@D@2@@std@@V?$allocator@V?$basic_string@DU?$char_traits@D@std@@V?$allocator@D@2@@std@@@2@@std@@N@Z 000000018001e310 f   DeviceProcessor.obj
 0001:0001d440       ?Process@DeviceProcessor@@UEAAXAEAV?$deque@V?$basic_string@DU?$char_traits@D@std@@V?$allocator@D@2@@std@@V?$allocator@V?$basic_string@DU?$char_traits@D@std@@V?$allocator@D@2@@std@@@2@@std@@AEBV?$basic_string@DU?$char_traits@D@std@@V?$allocator@D@2@@3@@Z 000000018001e440 f   DeviceProcessor.obj
 0001:0001d750       ??1MakeString@@QEAA@XZ     000000018001e750 f i DeviceProcessor.obj
 0001:0001d760       ?Resize@WDL_HeapBuf@@QEAAPEAXH_N@Z 000000018001e760 f i dllmain.obj
 0001:0001d890       ?parseDestroyBuffer@LineParserInt@@QEAAHPEAD_N11@Z 000000018001e890 f i dllmain.obj
 0001:0001daa0       ?processNoArgCPP@@YAXPEAUJNIEnv_@@PEAV_jobject@@PEAV_jstring@@2@Z 000000018001eaa0 f   dllmain.obj
 0001:0001de40       ?processStringArgCPP@@YAXPEAUJNIEnv_@@PEAV_jobject@@PEAV_jstring@@22@Z 000000018001ee40 f   dllmain.obj
 0001:0001e370       ?processStringArgsCPP@@YAXPEAUJNIEnv_@@PEAV_jobject@@PEAV_jstring@@2PEAV_jobjectArray@@@Z 000000018001f370 f   dllmain.obj
 0001:0001e900       ?processIntArgCPP@@YAXPEAUJNIEnv_@@PEAV_jobject@@PEAV_jstring@@2J@Z 000000018001f900 f   dllmain.obj
 0001:0001eca0       ?processDoubleArgCPP@@YAXPEAUJNIEnv_@@PEAV_jobject@@PEAV_jstring@@2N@Z 000000018001fca0 f   dllmain.obj
 0001:0001f040       ?enableUpdatesCPP@@YAXPEAUJNIEnv_@@PEAV_jobject@@PEAV_jstring@@E@Z 0000000180020040 f   dllmain.obj
 0001:0001f2a0       ?delayUpdatesCPP@@YAXPEAUJNIEnv_@@PEAV_jobject@@PEAV_jstring@@@Z 00000001800202a0 f   dllmain.obj
 0001:0001f490       ?processMidiArgCPP@@YAXPEBUJNIEnv_@@PEAV_jobject@@JJJ@Z 0000000180020490 f   dllmain.obj
 0001:0001f4d0       ?hookCommandProc@@YA_NHH@Z 00000001800204d0 f   dllmain.obj
 0001:0001f970       ?createFunc@@YAPEAVIReaperControlSurface@@PEBD0PEAH@Z 0000000180020970 f   dllmain.obj
 0001:0001fc40       ?ProcessExtensionLine@@YA_NPEBDPEAVProjectStateContext@@_NPEAUproject_config_extension_t@@@Z 0000000180020c40 f   dllmain.obj
 0001:0001ffd0       ??1LineParser@@QEAA@XZ     0000000180020fd0 f i dllmain.obj
 0001:00020000       ?SaveExtensionConfig@@YAXPEAVProjectStateContext@@_NPEAUproject_config_extension_t@@@Z 0000000180021000 f   dllmain.obj
 0001:00020220       ?BeginLoadProjectState@@YAX_NPEAUproject_config_extension_t@@@Z 0000000180021220 f   dllmain.obj
 0001:000202b0       ReaperPluginEntry          00000001800212b0 f   dllmain.obj
 0001:000205d0       ??1?$vector@PEAV_jstring@@V?$allocator@PEAV_jstring@@@std@@@std@@QEAA@XZ 00000001800215d0 f i dllmain.obj
 0001:00020630       ??1?$basic_string@_WU?$char_traits@_W@std@@V?$allocator@_W@2@@std@@QEAA@XZ 0000000180021630 f i dllmain.obj
 0001:000206a0       ??$_Emplace_reallocate@PEAVSend@@@?$vector@PEAVSend@@V?$allocator@PEAVSend@@@std@@@std@@QEAAPEAPEAVSend@@QEAPEAV2@$$QEAPEAV2@@Z 00000001800216a0 f i Track.obj
 0001:000206a0       ??$_Emplace_reallocate@AEBQEAV_jstring@@@?$vector@PEAV_jstring@@V?$allocator@PEAV_jstring@@@std@@@std@@QEAAPEAPEAV_jstring@@QEAPEAV2@AEBQEAV2@@Z 00000001800216a0 f i dllmain.obj
 0001:00020840       ?GetTouchState@IReaperControlSurface@@UEAA_NPEAVMediaTrack@@H@Z 0000000180021840 f i DrivenByMossSurface.obj
 0001:00020840       ?IsKeyDown@IReaperControlSurface@@UEAA_NH@Z 0000000180021840 f i DrivenByMossSurface.obj
 0001:00020850       ??_EIReaperControlSurface@@UEAAPEAXI@Z 0000000180021850 f i * CIL library *:* CIL module *
 0001:00020850       ??_GIReaperControlSurface@@UEAAPEAXI@Z 0000000180021850 f i DrivenByMossSurface.obj
 0001:00020880       ?Process@PlayProcessor@@UEAAXAEAV?$deque@V?$basic_string@DU?$char_traits@D@std@@V?$allocator@D@2@@std@@V?$allocator@V?$basic_string@DU?$char_traits@D@std@@V?$allocator@D@2@@std@@@2@@std@@@Z 0000000180021880 f i DrivenByMossSurface.obj
 0001:000208c0       ?Process@StopProcessor@@UEAAXAEAV?$deque@V?$basic_string@DU?$char_traits@D@std@@V?$allocator@D@2@@std@@V?$allocator@V?$basic_string@DU?$char_traits@D@std@@V?$allocator@D@2@@std@@@2@@std@@@Z 00000001800218c0 f i DrivenByMossSurface.obj
 0001:000208d0       ??1OscParser@@UEAA@XZ      00000001800218d0 f i DrivenByMossSurface.obj
 0001:00020e30       ??_GOscParser@@UEAAPEAXI@Z 0000000180021e30 f i DrivenByMossSurface.obj
 0001:00020e30       ??_EOscParser@@UEAAPEAXI@Z 0000000180021e30 f i * CIL library *:* CIL module *
 0001:00020e70       ??1?$map@V?$basic_string@DU?$char_traits@D@std@@V?$allocator@D@2@@std@@PEAVOscProcessor@@U?$less@V?$basic_string@DU?$char_traits@D@std@@V?$allocator@D@2@@std@@@2@V?$allocator@U?$pair@$$CBV?$basic_string@DU?$char_traits@D@std@@V?$allocator@D@2@@std@@PEAVOscProcessor@@@std@@@2@@std@@QEAA@XZ 0000000180021e70 f i DrivenByMossSurface.obj
 0001:00020ea0       ??_EDrivenByMossSurface@@UEAAPEAXI@Z 0000000180021ea0 f i * CIL library *:* CIL module *
 0001:00020ea0       ??_GDrivenByMossSurface@@UEAAPEAXI@Z 0000000180021ea0 f i DrivenByMossSurface.obj
 0001:00020f40       ??1Model@@QEAA@XZ          0000000180021f40 f i DrivenByMossSurface.obj
 0001:00020fd0       ?GetTypeString@DrivenByMossSurface@@UEAAPEBDXZ 0000000180021fd0 f   DrivenByMossSurface.obj
 0001:00020fe0       ?GetDescString@DrivenByMossSurface@@UEAAPEBDXZ 0000000180021fe0 f   DrivenByMossSurface.obj
 0001:00020ff0       ?GetConfigString@DrivenByMossSurface@@UEAAPEBDXZ 0000000180021ff0 f   DrivenByMossSurface.obj
 0001:00021000       ?Run@DrivenByMossSurface@@UEAAXXZ 0000000180022000 f   DrivenByMossSurface.obj
 0001:000212e0       ?GetTouchState@DrivenByMossSurface@@UEAA_NPEAVMediaTrack@@H@Z 00000001800222e0 f   DrivenByMossSurface.obj
 0001:000213a0       ??1?$vector@V?$shared_ptr@VTrack@@@std@@V?$allocator@V?$shared_ptr@VTrack@@@std@@@2@@std@@QEAA@XZ 00000001800223a0 f i DrivenByMossSurface.obj
 0001:000213a0       ??1?$vector@V?$shared_ptr@VMarker@@@std@@V?$allocator@V?$shared_ptr@VMarker@@@std@@@2@@std@@QEAA@XZ 00000001800223a0 f i DrivenByMossSurface.obj
 0001:000213a0       ??1?$vector@V?$shared_ptr@VParameter@@@std@@V?$allocator@V?$shared_ptr@VParameter@@@std@@@2@@std@@QEAA@XZ 00000001800223a0 f i DrivenByMossSurface.obj
 0001:00021410       ??1?$vector@V?$function@$$A6AXXZ@std@@V?$allocator@V?$function@$$A6AXXZ@std@@@2@@std@@QEAA@XZ 0000000180022410 f i DrivenByMossSurface.obj
 0001:000214c0       ?_Destroy@?$vector@V?$function@$$A6AXXZ@std@@V?$allocator@V?$function@$$A6AXXZ@std@@@2@@std@@AEAAXPEAV?$function@$$A6AXXZ@2@0@Z 00000001800224c0 f i DrivenByMossSurface.obj
 0001:00021520       ?deallocate@?$allocator@V?$function@$$A6AXXZ@std@@@std@@QEAAXQEAV?$function@$$A6AXXZ@2@_K@Z 0000000180022520 f i DrivenByMossSurface.obj
 0001:00021570       ??$_Destroy_range@V?$allocator@V?$shared_ptr@VParameter@@@std@@@std@@@std@@YAXPEAV?$shared_ptr@VParameter@@@0@QEAV10@AEAV?$allocator@V?$shared_ptr@VParameter@@@std@@@0@@Z 0000000180022570 f i DrivenByMossSurface.obj
 0001:00021570       ??$_Destroy_range@V?$allocator@V?$shared_ptr@VTrack@@@std@@@std@@@std@@YAXPEAV?$shared_ptr@VTrack@@@0@QEAV10@AEAV?$allocator@V?$shared_ptr@VTrack@@@std@@@0@@Z 0000000180022570 f i DrivenByMossSurface.obj
 0001:00021570       ??$_Destroy_range@V?$allocator@V?$shared_ptr@VMarker@@@std@@@std@@@std@@YAXPEAV?$shared_ptr@VMarker@@@0@QEAV10@AEAV?$allocator@V?$shared_ptr@VMarker@@@std@@@0@@Z 0000000180022570 f i DrivenByMossSurface.obj
 0001:000215f0       ??1?$function@$$A6AXXZ@std@@QEAA@XZ 00000001800225f0 f i DrivenByMossSurface.obj
 0001:000215f0       ??1?$_Func_class@X$$V@std@@QEAA@XZ 00000001800225f0 f i DrivenByMossSurface.obj
 0001:00021620       ??$_Emplace_reallocate@AEBV?$function@$$A6AXXZ@std@@@?$vector@V?$function@$$A6AXXZ@std@@V?$allocator@V?$function@$$A6AXXZ@std@@@2@@std@@QEAAPEAV?$function@$$A6AXXZ@1@QEAV21@AEBV21@@Z 0000000180022620 f i FunctionExecutor.obj
 0001:00021850       ??$_Uninitialized_move@PEAV?$function@$$A6AXXZ@std@@V?$allocator@V?$function@$$A6AXXZ@std@@@2@@std@@YAPEAV?$function@$$A6AXXZ@0@QEAV10@0PEAV10@AEAV?$allocator@V?$function@$$A6AXXZ@std@@@0@@Z 0000000180022850 f i FunctionExecutor.obj
 0001:00021900       ?Process@GrooveProcessor@@UEAAXAEAV?$deque@V?$basic_string@DU?$char_traits@D@std@@V?$allocator@D@2@@std@@V?$allocator@V?$basic_string@DU?$char_traits@D@std@@V?$allocator@D@2@@std@@@2@@std@@N@Z 0000000180022900 f   GrooveProcessor.obj
 0001:000219e0       ?to_string@std@@YA?AV?$basic_string@DU?$char_traits@D@std@@V?$allocator@D@2@@1@H@Z 00000001800229e0 f i IniFileProcessor.obj
 0001:00021ac0       ?Process@IniFileProcessor@@UEAAXAEAV?$deque@V?$basic_string@DU?$char_traits@D@std@@V?$allocator@D@2@@std@@V?$allocator@V?$basic_string@DU?$char_traits@D@std@@V?$allocator@D@2@@std@@@2@@std@@H@Z 0000000180022ac0 f   IniFileProcessor.obj
 0001:00022490       ?CallObjectMethod@JNIEnv_@@QEAAPEAV_jobject@@PEAV2@PEAU_jmethodID@@ZZ 0000000180023490 f i JvmManager.obj
 0001:000224c0       ?CallStaticObjectMethod@JNIEnv_@@QEAAPEAV_jobject@@PEAV_jclass@@PEAU_jmethodID@@ZZ 00000001800234c0 f i JvmManager.obj
 0001:000224f0       ?CallStaticVoidMethod@JNIEnv_@@QEAAXPEAV_jclass@@PEAU_jmethodID@@ZZ 00000001800234f0 f i JvmManager.obj
 0001:00022520       ??1JvmManager@@QEAA@XZ     0000000180023520 f   JvmManager.obj
 0001:000226d0       ?init@JvmManager@@QEAAXPEAX0000000@Z 00000001800236d0 f   JvmManager.obj
 0001:00022990       ?Create@JvmManager@@AEAAXXZ 0000000180023990 f   JvmManager.obj
 0001:00022cc0       ?LoadJvmLibrary@JvmManager@@AEAA_NXZ 0000000180023cc0 f   JvmManager.obj
 0001:000231e0       ?LookupJvmLibrary@JvmManager@@AEBA?AV?$basic_string@DU?$char_traits@D@std@@V?$allocator@D@2@@std@@AEBV23@@Z 00000001800241e0 f   JvmManager.obj
 0001:000235c0       ?DisplayWindow@JvmManager@@QEAAXXZ 00000001800245c0 f   JvmManager.obj
 0001:00023630       ?getDylibPath@@YA?AV?$basic_string@DU?$char_traits@D@std@@V?$allocator@D@2@@std@@XZ 0000000180024630 f   JvmManager.obj
 0001:00023800       ?CreateClasspath@JvmManager@@AEBA?AV?$basic_string@DU?$char_traits@D@std@@V?$allocator@D@2@@std@@AEBV23@@Z 0000000180024800 f   JvmManager.obj
 0001:00023f90       ?GetLibraryPath@JvmManager@@AEBA?AV?$basic_string@DU?$char_traits@D@std@@V?$allocator@D@2@@std@@XZ 0000000180024f90 f   JvmManager.obj
 0001:000241e0       ?GetDirectoryFiles@JvmManager@@AEBA?AV?$vector@V?$basic_string@DU?$char_traits@D@std@@V?$allocator@D@2@@std@@V?$allocator@V?$basic_string@DU?$char_traits@D@std@@V?$allocator@D@2@@std@@@2@@std@@AEBV?$basic_string@DU?$char_traits@D@std@@V?$allocator@D@2@@3@@Z 00000001800251e0 f   JvmManager.obj
 0001:000246f0       ?HandleException@JvmManager@@AEBAXPEBD@Z 00000001800256f0 f   JvmManager.obj
 0001:00024820       ?GetControllerClass@JvmManager@@AEAAPEAV_jclass@@XZ 0000000180025820 f   JvmManager.obj
 0001:000248d0       ??6?$basic_ostream@DU?$char_traits@D@std@@@std@@QEAAAEAV01@K@Z 00000001800258d0 f i JvmManager.obj
 0001:00024a80       ??1?$unique_ptr@$$BY0A@UJavaVMOption@@U?$default_delete@$$BY0A@UJavaVMOption@@@std@@@std@@QEAA@XZ 0000000180025a80 f i JvmManager.obj
 0001:00024a90       ?assign@?$basic_string@_WU?$char_traits@_W@std@@V?$allocator@_W@2@@std@@QEAAAEAV12@QEB_W_K@Z 0000000180025a90 f i JvmManager.obj
 0001:00024c30       ??$?HDU?$char_traits@D@std@@V?$allocator@D@1@@std@@YA?AV?$basic_string@DU?$char_traits@D@std@@V?$allocator@D@2@@0@AEBV10@QEBD@Z 0000000180025c30 f i JvmManager.obj
 0001:00024ca0       ??0?$basic_string@DU?$char_traits@D@std@@V?$allocator@D@2@@std@@QEAA@U_String_constructor_concat_tag@1@AEBV01@QEBD_K23@Z 0000000180025ca0 f i JvmManager.obj
 0001:00024dc0       ??_EMarker@@UEAAPEAXI@Z    0000000180025dc0 f i * CIL library *:* CIL module *
 0001:00024dc0       ??_GMarker@@UEAAPEAXI@Z    0000000180025dc0 f i Marker.obj
 0001:00024ea0       ?CollectData@Marker@@QEAAXAEAV?$basic_ostringstream@DU?$char_traits@D@std@@V?$allocator@D@2@@std@@PEAVReaProject@@PEBDHHAEB_N@Z 0000000180025ea0 f   Marker.obj
 0001:00025a90       ?GetMarkers@Marker@@SA?AV?$vector@HV?$allocator@H@std@@@std@@PEAVReaProject@@@Z 0000000180026a90 f   Marker.obj
 0001:00025b90       ?GetRegions@Marker@@SA?AV?$vector@HV?$allocator@H@std@@@std@@PEAVReaProject@@@Z 0000000180026b90 f   Marker.obj
 0001:00025c90       ??$_Emplace_reallocate@AEBH@?$vector@HV?$allocator@H@std@@@std@@QEAAPEAHQEAHAEBH@Z 0000000180026c90 f i Marker.obj
 0001:00025e30       ?Process@MarkerProcessor@@UEAAXAEAV?$deque@V?$basic_string@DU?$char_traits@D@std@@V?$allocator@D@2@@std@@V?$allocator@V?$basic_string@DU?$char_traits@D@std@@V?$allocator@D@2@@std@@@2@@std@@@Z 0000000180026e30 f   MarkerProcessor.obj
 0001:000262d0       ?Process@MastertrackProcessor@@UEAAXAEAV?$deque@V?$basic_string@DU?$char_traits@D@std@@V?$allocator@D@2@@std@@V?$allocator@V?$basic_string@DU?$char_traits@D@std@@V?$allocator@D@2@@std@@@2@@std@@H@Z 00000001800272d0 f   MastertrackProcessor.obj
 0001:000264d0       ?Process@MastertrackProcessor@@UEAAXAEAV?$deque@V?$basic_string@DU?$char_traits@D@std@@V?$allocator@D@2@@std@@V?$allocator@V?$basic_string@DU?$char_traits@D@std@@V?$allocator@D@2@@std@@@2@@std@@N@Z 00000001800274d0 f   MastertrackProcessor.obj
 0001:00026700       ?Process@MastertrackProcessor@@UEAAXAEAV?$deque@V?$basic_string@DU?$char_traits@D@std@@V?$allocator@D@2@@std@@V?$allocator@V?$basic_string@DU?$char_traits@D@std@@V?$allocator@D@2@@std@@@2@@std@@AEBV?$basic_string@DU?$char_traits@D@std@@V?$allocator@D@2@@3@@Z 0000000180027700 f   MastertrackProcessor.obj
 0001:00026790       ?SetColorOfTrack@MastertrackProcessor@@AEAAXPEAVReaProject@@PEAVMediaTrack@@AEBV?$basic_string@DU?$char_traits@D@std@@V?$allocator@D@2@@std@@@Z 0000000180027790 f   MastertrackProcessor.obj
 0001:00026c60       ?AddFunction@Model@@QEAAXV?$function@$$A6AXXZ@std@@@Z 0000000180027c60 f   Model.obj
 0001:00026db0       ?GetTrack@Model@@QEAA?AV?$shared_ptr@VTrack@@@std@@H@Z 0000000180027db0 f   Model.obj
 0001:00027040       ?GetMarker@Model@@QEAA?AV?$shared_ptr@VMarker@@@std@@H@Z 0000000180028040 f   Model.obj
 0001:00027200       ?GetRegion@Model@@QEAA?AV?$shared_ptr@VMarker@@@std@@H@Z 0000000180028200 f   Model.obj
 0001:000273d0       ?GetParameter@Model@@QEAA?AV?$shared_ptr@VParameter@@@std@@H@Z 00000001800283d0 f   Model.obj
 0001:00027570       ?GetEqParameter@Model@@QEAA?AV?$shared_ptr@VParameter@@@std@@H@Z 0000000180028570 f   Model.obj
 0001:00027710       ?GetUserParameter@Model@@QEAA?AV?$shared_ptr@VParameter@@@std@@H@Z 0000000180028710 f   Model.obj
 0001:000278b0       ??$_Emplace_reallocate@V?$shared_ptr@VParameter@@@std@@@?$vector@V?$shared_ptr@VParameter@@@std@@V?$allocator@V?$shared_ptr@VParameter@@@std@@@2@@std@@QEAAPEAV?$shared_ptr@VParameter@@@1@QEAV21@$$QEAV21@@Z 00000001800288b0 f i Model.obj
 0001:000278b0       ??$_Emplace_reallocate@V?$shared_ptr@VTrack@@@std@@@?$vector@V?$shared_ptr@VTrack@@@std@@V?$allocator@V?$shared_ptr@VTrack@@@std@@@2@@std@@QEAAPEAV?$shared_ptr@VTrack@@@1@QEAV21@$$QEAV21@@Z 00000001800288b0 f i Model.obj
 0001:000278b0       ??$_Emplace_reallocate@V?$shared_ptr@VMarker@@@std@@@?$vector@V?$shared_ptr@VMarker@@@std@@V?$allocator@V?$shared_ptr@VMarker@@@std@@@2@@std@@QEAAPEAV?$shared_ptr@VMarker@@@1@QEAV21@$$QEAV21@@Z 00000001800288b0 f i Model.obj
 0001:00027b00       ?_Delete_this@?$_Ref_count_obj2@VMarker@@@std@@EEAAXXZ 0000000180028b00 f i Model.obj
 0001:00027b00       ?_Delete_this@?$_Ref_count_obj2@VTrack@@@std@@EEAAXXZ 0000000180028b00 f i Model.obj
 0001:00027b00       ?_Delete_this@?$_Ref_count_obj2@VParameter@@@std@@EEAAXXZ 0000000180028b00 f i Model.obj
 0001:00027b20       ?_Destroy@?$_Ref_count_obj2@VParameter@@@std@@EEAAXXZ 0000000180028b20 f i Model.obj
 0001:00027b30       ?_Destroy@?$_Ref_count_obj2@VMarker@@@std@@EEAAXXZ 0000000180028b30 f i Model.obj
 0001:00027b40       ?_Destroy@?$_Ref_count_obj2@VTrack@@@std@@EEAAXXZ 0000000180028b40 f i Model.obj
 0001:00027b50       ??_E?$_Ref_count_obj2@VParameter@@@std@@UEAAPEAXI@Z 0000000180028b50 f i * CIL library *:* CIL module *
 0001:00027b50       ??_G?$_Ref_count_obj2@VParameter@@@std@@UEAAPEAXI@Z 0000000180028b50 f i Model.obj
 0001:00027b80       ??_G?$_Ref_count_obj2@VMarker@@@std@@UEAAPEAXI@Z 0000000180028b80 f i Model.obj
 0001:00027b80       ??_E?$_Ref_count_obj2@VMarker@@@std@@UEAAPEAXI@Z 0000000180028b80 f i * CIL library *:* CIL module *
 0001:00027bb0       ??_G?$_Ref_count_obj2@VTrack@@@std@@UEAAPEAXI@Z 0000000180028bb0 f i Model.obj
 0001:00027bb0       ??_E?$_Ref_count_obj2@VTrack@@@std@@UEAAPEAXI@Z 0000000180028bb0 f i * CIL library *:* CIL module *
 0001:00027be0       ??1Track@@QEAA@XZ          0000000180028be0 f i Model.obj
 0001:00027e10       ?Process@NoteRepeatProcessor@@UEAAXAEAV?$deque@V?$basic_string@DU?$char_traits@D@std@@V?$allocator@D@2@@std@@V?$allocator@V?$basic_string@DU?$char_traits@D@std@@V?$allocator@D@2@@std@@@2@@std@@H@Z 0000000180028e10 f   NoteRepeatProcessor.obj
 0001:00027f20       ?Process@NoteRepeatProcessor@@UEAAXAEAV?$deque@V?$basic_string@DU?$char_traits@D@std@@V?$allocator@D@2@@std@@V?$allocator@V?$basic_string@DU?$char_traits@D@std@@V?$allocator@D@2@@std@@@2@@std@@N@Z 0000000180028f20 f   NoteRepeatProcessor.obj
 0001:00028060       ?SetParameter@NoteRepeatProcessor@@AEBAXPEAVReaProject@@PEAVMediaTrack@@HN@Z 0000000180029060 f   NoteRepeatProcessor.obj
 0001:00028120       ?Process@RecordProcessor@@UEAAXAEAV?$deque@V?$basic_string@DU?$char_traits@D@std@@V?$allocator@D@2@@std@@V?$allocator@V?$basic_string@DU?$char_traits@D@std@@V?$allocator@D@2@@std@@@2@@std@@@Z 0000000180029120 f i OscParser.obj
 0001:00028130       ?Process@RepeatProcessor@@UEAAXAEAV?$deque@V?$basic_string@DU?$char_traits@D@std@@V?$allocator@D@2@@std@@V?$allocator@V?$basic_string@DU?$char_traits@D@std@@V?$allocator@D@2@@std@@@2@@std@@@Z 0000000180029130 f i OscParser.obj
 0001:00028160       ?Process@TimeProcessor@@UEAAXAEAV?$deque@V?$basic_string@DU?$char_traits@D@std@@V?$allocator@D@2@@std@@V?$allocator@V?$basic_string@DU?$char_traits@D@std@@V?$allocator@D@2@@std@@@2@@std@@N@Z 0000000180029160 f i OscParser.obj
 0001:000281b0       ?Process@TempoProcessor@@UEAAXAEAV?$deque@V?$basic_string@DU?$char_traits@D@std@@V?$allocator@D@2@@std@@V?$allocator@V?$basic_string@DU?$char_traits@D@std@@V?$allocator@D@2@@std@@@2@@std@@@Z 00000001800291b0 f i OscParser.obj
 0001:00028250       ?Process@TempoProcessor@@UEAAXAEAV?$deque@V?$basic_string@DU?$char_traits@D@std@@V?$allocator@D@2@@std@@V?$allocator@V?$basic_string@DU?$char_traits@D@std@@V?$allocator@D@2@@std@@@2@@std@@H@Z 0000000180029250 f i OscParser.obj
 0001:00028270       ?Process@TempoProcessor@@UEAAXAEAV?$deque@V?$basic_string@DU?$char_traits@D@std@@V?$allocator@D@2@@std@@V?$allocator@V?$basic_string@DU?$char_traits@D@std@@V?$allocator@D@2@@std@@@2@@std@@N@Z 0000000180029270 f i OscParser.obj
 0001:00028290       ?Process@QuantizeProcessor@@UEAAXAEAV?$deque@V?$basic_string@DU?$char_traits@D@std@@V?$allocator@D@2@@std@@V?$allocator@V?$basic_string@DU?$char_traits@D@std@@V?$allocator@D@2@@std@@@2@@std@@N@Z 0000000180029290 f i OscParser.obj
 0001:00028300       ?Process@MetronomeVolumeProcessor@@UEAAXAEAV?$deque@V?$basic_string@DU?$char_traits@D@std@@V?$allocator@D@2@@std@@V?$allocator@V?$basic_string@DU?$char_traits@D@std@@V?$allocator@D@2@@std@@@2@@std@@@Z 0000000180029300 f i OscParser.obj
 0001:00028380       ?Process@MetronomeVolumeProcessor@@UEAAXAEAV?$deque@V?$basic_string@DU?$char_traits@D@std@@V?$allocator@D@2@@std@@V?$allocator@V?$basic_string@DU?$char_traits@D@std@@V?$allocator@D@2@@std@@@2@@std@@H@Z 0000000180029380 f i OscParser.obj
 0001:000283c0       ?Process@UndoProcessor@@UEAAXAEAV?$deque@V?$basic_string@DU?$char_traits@D@std@@V?$allocator@D@2@@std@@V?$allocator@V?$basic_string@DU?$char_traits@D@std@@V?$allocator@D@2@@std@@@2@@std@@@Z 00000001800293c0 f i OscParser.obj
 0001:000283f0       ?Process@RedoProcessor@@UEAAXAEAV?$deque@V?$basic_string@DU?$char_traits@D@std@@V?$allocator@D@2@@std@@V?$allocator@V?$basic_string@DU?$char_traits@D@std@@V?$allocator@D@2@@std@@@2@@std@@@Z 00000001800293f0 f i OscParser.obj
 0001:00028420       ?Process@CursorProcessor@@UEAAXAEAV?$deque@V?$basic_string@DU?$char_traits@D@std@@V?$allocator@D@2@@std@@V?$allocator@V?$basic_string@DU?$char_traits@D@std@@V?$allocator@D@2@@std@@@2@@std@@H@Z 0000000180029420 f i OscParser.obj
 0001:00028440       ?Process@RefreshProcessor@@UEAAXAEAV?$deque@V?$basic_string@DU?$char_traits@D@std@@V?$allocator@D@2@@std@@V?$allocator@V?$basic_string@DU?$char_traits@D@std@@V?$allocator@D@2@@std@@@2@@std@@@Z 0000000180029440 f i OscParser.obj
 0001:00028490       ??0OscParser@@QEAA@AEAVModel@@@Z 0000000180029490 f   OscParser.obj
 0001:00029630       ?Process@OscParser@@UEBAXV?$basic_string@DU?$char_traits@D@std@@V?$allocator@D@2@@std@@0@Z 000000018002a630 f   OscParser.obj
 0001:000298f0       ?Process@OscParser@@UEBAXV?$basic_string@DU?$char_traits@D@std@@V?$allocator@D@2@@std@@00@Z 000000018002a8f0 f   OscParser.obj
 0001:00029c70       ?Process@OscParser@@UEBAXV?$basic_string@DU?$char_traits@D@std@@V?$allocator@D@2@@std@@0AEAV?$vector@V?$basic_string@DU?$char_traits@D@std@@V?$allocator@D@2@@std@@V?$allocator@V?$basic_string@DU?$char_traits@D@std@@V?$allocator@D@2@@std@@@2@@3@@Z 000000018002ac70 f   OscParser.obj
 0001:00029f60       ?Process@OscParser@@UEBAXV?$basic_string@DU?$char_traits@D@std@@V?$allocator@D@2@@std@@0H@Z 000000018002af60 f   OscParser.obj
 0001:0002a190       ?Process@OscParser@@UEBAXV?$basic_string@DU?$char_traits@D@std@@V?$allocator@D@2@@std@@0N@Z 000000018002b190 f   OscParser.obj
 0001:0002a3d0       ?LogError@OscParser@@AEBAXV?$basic_string@DU?$char_traits@D@std@@V?$allocator@D@2@@std@@AEBVout_of_range@3@@Z 000000018002b3d0 f   OscParser.obj
 0001:0002a4f0       ?Split@OscParser@@AEBA?AV?$deque@V?$basic_string@DU?$char_traits@D@std@@V?$allocator@D@2@@std@@V?$allocator@V?$basic_string@DU?$char_traits@D@std@@V?$allocator@D@2@@std@@@2@@std@@AEBV?$basic_string@DU?$char_traits@D@std@@V?$allocator@D@2@@3@@Z 000000018002b4f0 f   OscParser.obj
 0001:0002a710       ??_D?$basic_istringstream@DU?$char_traits@D@std@@V?$allocator@D@2@@std@@QEAAXXZ 000000018002b710 f i OscParser.obj
 0001:0002a7b0       ??0?$basic_istringstream@DU?$char_traits@D@std@@V?$allocator@D@2@@std@@QEAA@AEBV?$basic_string@DU?$char_traits@D@std@@V?$allocator@D@2@@1@H@Z 000000018002b7b0 f i OscParser.obj
 0001:0002a940       ?at@?$map@V?$basic_string@DU?$char_traits@D@std@@V?$allocator@D@2@@std@@PEAVOscProcessor@@U?$less@V?$basic_string@DU?$char_traits@D@std@@V?$allocator@D@2@@std@@@2@V?$allocator@U?$pair@$$CBV?$basic_string@DU?$char_traits@D@std@@V?$allocator@D@2@@std@@PEAVOscProcessor@@@std@@@2@@std@@QEBAAEBQEAVOscProcessor@@AEBV?$basic_string@DU?$char_traits@D@std@@V?$allocator@D@2@@2@@Z 000000018002b940 f i OscParser.obj
 0001:0002a9d0       ??A?$map@V?$basic_string@DU?$char_traits@D@std@@V?$allocator@D@2@@std@@PEAVOscProcessor@@U?$less@V?$basic_string@DU?$char_traits@D@std@@V?$allocator@D@2@@std@@@2@V?$allocator@U?$pair@$$CBV?$basic_string@DU?$char_traits@D@std@@V?$allocator@D@2@@std@@PEAVOscProcessor@@@std@@@2@@std@@QEAAAEAPEAVOscProcessor@@$$QEAV?$basic_string@DU?$char_traits@D@std@@V?$allocator@D@2@@1@@Z 000000018002b9d0 f i OscParser.obj
 0001:0002ab10       ??1?$deque@V?$basic_string@DU?$char_traits@D@std@@V?$allocator@D@2@@std@@V?$allocator@V?$basic_string@DU?$char_traits@D@std@@V?$allocator@D@2@@std@@@2@@std@@QEAA@XZ 000000018002bb10 f i OscParser.obj
 0001:0002ac50       ??0?$vector@V?$basic_string@DU?$char_traits@D@std@@V?$allocator@D@2@@std@@V?$allocator@V?$basic_string@DU?$char_traits@D@std@@V?$allocator@D@2@@std@@@2@@std@@QEAA@AEBV01@@Z 000000018002bc50 f i OscParser.obj
 0001:0002ad00       ??_G?$basic_istringstream@DU?$char_traits@D@std@@V?$allocator@D@2@@std@@UEAAPEAXI@Z 000000018002bd00 f i OscParser.obj
 0001:0002ad00       ??_E?$basic_istringstream@DU?$char_traits@D@std@@V?$allocator@D@2@@std@@UEAAPEAXI@Z 000000018002bd00 f i * CIL library *:* CIL module *
 0001:0002ad40       ?_Growmap@?$deque@V?$basic_string@DU?$char_traits@D@std@@V?$allocator@D@2@@std@@V?$allocator@V?$basic_string@DU?$char_traits@D@std@@V?$allocator@D@2@@std@@@2@@std@@AEAAX_K@Z 000000018002bd40 f i OscParser.obj
 0001:0002af20       ?_Xlen@?$deque@V?$basic_string@DU?$char_traits@D@std@@V?$allocator@D@2@@std@@V?$allocator@V?$basic_string@DU?$char_traits@D@std@@V?$allocator@D@2@@std@@@2@@std@@AEBAXXZ 000000018002bf20 f i OscParser.obj
 0001:0002b3d4       ??_E?$basic_istringstream@DU?$char_traits@D@std@@V?$allocator@D@2@@std@@$4PPPPPPPM@A@EAAPEAXI@Z 000000018002c3d4 f i OscParser.obj
 0001:0002b3e0       ??0Parameter@@QEAA@PEBDH@Z 000000018002c3e0 f   Parameter.obj
 0001:0002b8a0       ?CollectData@Parameter@@QEAAXAEAV?$basic_ostringstream@DU?$char_traits@D@std@@V?$allocator@D@2@@std@@PEAVMediaTrack@@AEBH2AEB_N@Z 000000018002c8a0 f   Parameter.obj
 0001:0002bd00       ?ClearData@Parameter@@QEAAXAEAV?$basic_ostringstream@DU?$char_traits@D@std@@V?$allocator@D@2@@std@@AEB_N@Z 000000018002cd00 f   Parameter.obj
 0001:0002c090       ?Process@ProjectProcessor@@UEAAXAEAV?$deque@V?$basic_string@DU?$char_traits@D@std@@V?$allocator@D@2@@std@@V?$allocator@V?$basic_string@DU?$char_traits@D@std@@V?$allocator@D@2@@std@@@2@@std@@@Z 000000018002d090 f   ProjectProcessor.obj
 0001:0002c100       ?Process@ProjectProcessor@@UEAAXAEAV?$deque@V?$basic_string@DU?$char_traits@D@std@@V?$allocator@D@2@@std@@V?$allocator@V?$basic_string@DU?$char_traits@D@std@@V?$allocator@D@2@@std@@@2@@std@@H@Z 000000018002d100 f   ProjectProcessor.obj
 0001:0002c2e0       ??1ReaDebug@@QEAA@XZ       000000018002d2e0 f   ReaDebug.obj
 0001:0002c880       ??6ReaDebug@@QEAAAEAV0@PEBD@Z 000000018002d880 f   ReaDebug.obj
 0001:0002c8b0       ?Log@ReaDebug@@SAXAEBV?$basic_string@DU?$char_traits@D@std@@V?$allocator@D@2@@std@@@Z 000000018002d8b0 f   ReaDebug.obj
 0001:0002c9e0       ?Log@ReaDebug@@SAXPEBD@Z   000000018002d9e0 f   ReaDebug.obj
 0001:0002ccb0       ?Process@SceneProcessor@@UEAAXAEAV?$deque@V?$basic_string@DU?$char_traits@D@std@@V?$allocator@D@2@@std@@V?$allocator@V?$basic_string@DU?$char_traits@D@std@@V?$allocator@D@2@@std@@@2@@std@@@Z 000000018002dcb0 f   SceneProcessor.obj
 0001:0002cfb0       ?DuplicateScene@SceneProcessor@@SAXPEAVReaProject@@H@Z 000000018002dfb0 f   SceneProcessor.obj
 0001:0002d430       ?GetEnvelopeValueAtPosition@ReaperUtils@@SANPEAVTrackEnvelope@@N@Z 000000018002e430 f i Send.obj
 0001:0002d510       ??_GSend@@UEAAPEAXI@Z      000000018002e510 f i Send.obj
 0001:0002d510       ??_ESend@@UEAAPEAXI@Z      000000018002e510 f i * CIL library *:* CIL module *
 0001:0002d5f0       ?CollectData@Send@@QEAAXAEAV?$basic_ostringstream@DU?$char_traits@D@std@@V?$allocator@D@2@@std@@PEAVReaProject@@PEAVMediaTrack@@HAEBV?$basic_string@DU?$char_traits@D@std@@V?$allocator@D@2@@3@AEB_N@Z 000000018002e5f0 f   Send.obj
 0001:0002e180       ?assign@?$basic_string@_WU?$char_traits@_W@std@@V?$allocator@_W@2@@std@@QEAAAEAV12@_K_W@Z 000000018002f180 f i StringUtils.obj
 0001:0002e320       ?CollectData@Track@@QEAAXAEAV?$basic_ostringstream@DU?$char_traits@D@std@@V?$allocator@D@2@@std@@PEAVReaProject@@PEAVMediaTrack@@HAEB_N3@Z 000000018002f320 f   Track.obj
 0001:00031500       ?GetSend@Track@@QEAAPEAVSend@@H@Z 0000000180032500 f   Track.obj
 0001:00031610       ?GetTrackLockState@Track@@AEBAHPEAD@Z 0000000180032610 f   Track.obj
 0001:00031820       ?ParseInputQuantize@Track@@AEAAXAEAV?$basic_ostringstream@DU?$char_traits@D@std@@V?$allocator@D@2@@std@@AEAV?$basic_string@DU?$char_traits@D@std@@V?$allocator@D@2@@3@AEB_NPEAD@Z 0000000180032820 f   Track.obj
 0001:00031ec0       ?Process@TrackProcessor@@UEAAXAEAV?$deque@V?$basic_string@DU?$char_traits@D@std@@V?$allocator@D@2@@std@@V?$allocator@V?$basic_string@DU?$char_traits@D@std@@V?$allocator@D@2@@std@@@2@@std@@@Z 0000000180032ec0 f   TrackProcessor.obj
 0001:000323c0       ?Process@TrackProcessor@@UEAAXAEAV?$deque@V?$basic_string@DU?$char_traits@D@std@@V?$allocator@D@2@@std@@V?$allocator@V?$basic_string@DU?$char_traits@D@std@@V?$allocator@D@2@@std@@@2@@std@@H@Z 00000001800333c0 f   TrackProcessor.obj
 0001:000328f0       ?Process@TrackProcessor@@UEAAXAEAV?$deque@V?$basic_string@DU?$char_traits@D@std@@V?$allocator@D@2@@std@@V?$allocator@V?$basic_string@DU?$char_traits@D@std@@V?$allocator@D@2@@std@@@2@@std@@N@Z 00000001800338f0 f   TrackProcessor.obj
 0001:00032e30       ?Process@TrackProcessor@@UEAAXAEAV?$deque@V?$basic_string@DU?$char_traits@D@std@@V?$allocator@D@2@@std@@V?$allocator@V?$basic_string@DU?$char_traits@D@std@@V?$allocator@D@2@@std@@@2@@std@@AEBV?$basic_string@DU?$char_traits@D@std@@V?$allocator@D@2@@3@@Z 0000000180033e30 f   TrackProcessor.obj
 0001:00032fd0       ?Process@TrackProcessor@@UEAAXAEAV?$deque@V?$basic_string@DU?$char_traits@D@std@@V?$allocator@D@2@@std@@V?$allocator@V?$basic_string@DU?$char_traits@D@std@@V?$allocator@D@2@@std@@@2@@std@@AEBV?$vector@V?$basic_string@DU?$char_traits@D@std@@V?$allocator@D@2@@std@@V?$allocator@V?$basic_string@DU?$char_traits@D@std@@V?$allocator@D@2@@std@@@2@@3@@Z 0000000180033fd0 f   TrackProcessor.obj
 0001:00033990       ?SetColorOfTrack@TrackProcessor@@AEAAXPEAVReaProject@@PEAVMediaTrack@@AEBV?$basic_string@DU?$char_traits@D@std@@V?$allocator@D@2@@std@@@Z 0000000180034990 f   TrackProcessor.obj
 0001:00033e30       ?GetTrackIndex@TrackProcessor@@AEBAHPEAVReaProject@@H@Z 0000000180034e30 f   TrackProcessor.obj
 0001:00033ec0       _Strxfrm                   0000000180034ec0 f   libcpmt:xstrxfrm.obj
 0001:00033fc0       ??0_Init_locks@std@@QEAA@XZ 0000000180034fc0 f   libcpmt:xlock.obj
 0001:00034004       ??0_Lockit@std@@QEAA@H@Z   0000000180035004 f   libcpmt:xlock.obj
 0001:00034040       ??1_Init_locks@std@@QEAA@XZ 0000000180035040 f   libcpmt:xlock.obj
 0001:0003407c       ??1_Lockit@std@@QEAA@XZ    000000018003507c f   libcpmt:xlock.obj
 0001:000340b0       ??0bad_alloc@std@@QEAA@XZ  00000001800350b0 f i libcpmt:xthrow.obj
 0001:000340d0       ??0bad_function_call@std@@QEAA@AEBV01@@Z 00000001800350d0 f i libcpmt:xthrow.obj
 0001:0003410c       ??0bad_function_call@std@@QEAA@XZ 000000018003510c f i libcpmt:xthrow.obj
 0001:00034124       ??0length_error@std@@QEAA@AEBV01@@Z 0000000180035124 f i libcpmt:xthrow.obj
 0001:00034160       ??0length_error@std@@QEAA@PEBD@Z 0000000180035160 f i libcpmt:xthrow.obj
 0001:000341a8       ??0logic_error@std@@QEAA@AEBV01@@Z 00000001800351a8 f i libcpmt:xthrow.obj
 0001:000341e4       ??0out_of_range@std@@QEAA@AEBV01@@Z 00000001800351e4 f i libcpmt:xthrow.obj
 0001:00034220       ??0out_of_range@std@@QEAA@PEBD@Z 0000000180035220 f i libcpmt:xthrow.obj
 0001:00034268       ??0regex_error@std@@QEAA@AEBV01@@Z 0000000180035268 f i libcpmt:xthrow.obj
 0001:000342b4       ??0regex_error@std@@QEAA@W4error_type@regex_constants@1@@Z 00000001800352b4 f i libcpmt:xthrow.obj
 0001:00034318       ??0runtime_error@std@@QEAA@PEBD@Z 0000000180035318 f i libcpmt:xthrow.obj
 0001:00034360       ??_Eregex_error@std@@UEAAPEAXI@Z 0000000180035360 f i libcpmt:xthrow.obj
 0001:00034360       ??_Gregex_error@std@@UEAAPEAXI@Z 0000000180035360 f i libcpmt:xthrow.obj
 0001:000343a4       ?_Stringify@regex_error@std@@CAPEBDW4error_type@regex_constants@2@@Z 00000001800353a4 f i libcpmt:xthrow.obj
 0001:00034470       ?__scrt_throw_std_bad_alloc@@YAXXZ 0000000180035470 f   LIBCMT:throw_bad_alloc.obj
 0001:00034470       ?_Xbad_alloc@std@@YAXXZ    0000000180035470 f   libcpmt:xthrow.obj
 0001:00034490       ?_Xbad_function_call@std@@YAXXZ 0000000180035490 f   libcpmt:xthrow.obj
 0001:000344b0       ?_Xlength_error@std@@YAXPEBD@Z 00000001800354b0 f   libcpmt:xthrow.obj
 0001:000344d4       ?_Xout_of_range@std@@YAXPEBD@Z 00000001800354d4 f   libcpmt:xthrow.obj
 0001:000344f8       ?_Xregex_error@std@@YAXW4error_type@regex_constants@1@@Z 00000001800354f8 f   libcpmt:xthrow.obj
 0001:0003451c       ?_Xruntime_error@std@@YAXPEBD@Z 000000018003551c f   libcpmt:xthrow.obj
 0001:00034540       ?what@bad_function_call@std@@UEBAPEBDXZ 0000000180035540 f i libcpmt:xthrow.obj
 0001:00034548       ??0_Locimp@locale@std@@AEAA@_N@Z 0000000180035548 f i libcpmt:locale0.obj
 0001:000345d0       ??4?$_Yarn@D@std@@QEAAAEAV01@PEBD@Z 00000001800355d0 f i libcpmt:locale0.obj
 0001:00034648       ??_E_Locimp@locale@std@@MEAAPEAXI@Z 0000000180035648 f i libcpmt:locale0.obj
 0001:00034648       ??_G_Locimp@locale@std@@MEAAPEAXI@Z 0000000180035648 f i libcpmt:locale0.obj
 0001:000346a4       ?_Facet_Register@std@@YAXPEAV_Facet_base@1@@Z 00000001800356a4 f   libcpmt:locale0.obj
 0001:000346dc       ?_Getgloballocale@locale@std@@CAPEAV_Locimp@12@XZ 00000001800356dc f   libcpmt:locale0.obj
 0001:000346e4       ?_Init@locale@std@@CAPEAV_Locimp@12@_N@Z 00000001800356e4 f   libcpmt:locale0.obj
 0001:000347dc       ?_Locimp_dtor@_Locimp@locale@std@@CAXPEAV123@@Z 00000001800357dc f   libcpmt:locale0.obj
 0001:00034858       ?_Locinfo_ctor@_Locinfo@std@@SAXPEAV12@PEBD@Z 0000000180035858 f   libcpmt:locale0.obj
 0001:000348c4       ?_Locinfo_dtor@_Locinfo@std@@SAXPEAV12@@Z 00000001800358c4 f   libcpmt:locale0.obj
 0001:000348e0       ?_New_Locimp@_Locimp@locale@std@@CAPEAV123@_N@Z 00000001800358e0 f   libcpmt:locale0.obj
 0001:00034910       ?_Setgloballocale@locale@std@@CAXPEAX@Z 0000000180035910 f   libcpmt:locale0.obj
 0001:00034944       _Deletegloballocale        0000000180035944 f   libcpmt:locale0.obj
 0001:000349b4       ?uncaught_exception@std@@YA_NXZ 00000001800359b4 f   libcpmt:uncaught_exception.obj
 0001:000349bc       ?_Syserror_map@std@@YAPEBDH@Z 00000001800359bc f   libcpmt:syserror.obj
 0001:000349e4       _Getctype                  00000001800359e4 f   libcpmt:_tolower.obj
 0001:00034aa4       _Tolower                   0000000180035aa4 f   libcpmt:_tolower.obj
 0001:00034bd4       _Getcoll                   0000000180035bd4 f   libcpmt:xstrcoll.obj
 0001:00034c08       _Strcoll                   0000000180035c08 f   libcpmt:xstrcoll.obj
 0001:00034cd8       _Getcvt                    0000000180035cd8 f   libcpmt:xwctomb.obj
 0001:00034d70       _Toupper                   0000000180035d70 f   libcpmt:_toupper.obj
 0001:00034eb0       ?_Ios_base_dtor@ios_base@std@@CAXPEAV12@@Z 0000000180035eb0 f   libcpmt:ios.obj
 0001:00034f28       ?_Tidy@ios_base@std@@AEAAXXZ 0000000180035f28 f i libcpmt:ios.obj
 0001:00034fa8       ??0system_error@std@@QEAA@HAEBVerror_category@1@PEBD@Z 0000000180035fa8 f i libcpmt:thread0.obj
 0001:0003508c       ?_Throw_C_error@std@@YAXH@Z 000000018003608c f   libcpmt:thread0.obj
 0001:000350c8       ?_Throw_Cpp_error@std@@YAXH@Z 00000001800360c8 f   libcpmt:thread0.obj
 0001:00035110       ?generic_category@std@@YAAEBVerror_category@1@XZ 0000000180036110 f i libcpmt:thread0.obj
 0001:00035118       ?message@_Generic_error_category@std@@UEBA?AV?$basic_string@DU?$char_traits@D@std@@V?$allocator@D@2@@2@H@Z 0000000180036118 f i libcpmt:thread0.obj
 0001:00035150       ?name@_Generic_error_category@std@@UEBAPEBDXZ 0000000180036150 f i libcpmt:thread0.obj
 0001:00035158       ??$_Xfiopen@D@std@@YAPEAU_iobuf@@PEBDHH@Z 0000000180036158 f i libcpmt:fiopen.obj
 0001:00035268       ?_Fiopen@std@@YAPEAU_iobuf@@PEBDHH@Z 0000000180036268 f   libcpmt:fiopen.obj
 0001:00035270       ?setprecision@std@@YA?AU?$_Smanip@_J@1@_J@Z 0000000180036270 f   libcpmt:iomanip.obj
 0001:0003528c       ?create_stl_critical_section@details@Concurrency@@YAXPEAVstl_critical_section_interface@12@@Z 000000018003628c f i libcpmt:mutex.obj
 0001:000352f0       ?destroy@stl_critical_section_vista@details@Concurrency@@UEAAXXZ 00000001800362f0 f i libcpmt:mutex.obj
 0001:000352fc       ?lock@stl_critical_section_vista@details@Concurrency@@UEAAXXZ 00000001800362fc f i libcpmt:mutex.obj
 0001:00035308       ?lock@stl_critical_section_win7@details@Concurrency@@UEAAXXZ 0000000180036308 f i libcpmt:mutex.obj
 0001:00035480       ?try_lock_for@stl_critical_section_vista@details@Concurrency@@UEAA_NI@Z 0000000180036480 f i libcpmt:mutex.obj
 0001:00035480       ?try_lock@stl_critical_section_vista@details@Concurrency@@UEAA_NXZ 0000000180036480 f i libcpmt:mutex.obj
 0001:00035498       ?try_lock_for@stl_critical_section_win7@details@Concurrency@@UEAA_NI@Z 0000000180036498 f i libcpmt:mutex.obj
 0001:00035498       ?try_lock@stl_critical_section_win7@details@Concurrency@@UEAA_NXZ 0000000180036498 f i libcpmt:mutex.obj
 0001:000354b0       ?unlock@stl_critical_section_vista@details@Concurrency@@UEAAXXZ 00000001800364b0 f i libcpmt:mutex.obj
 0001:000354bc       ?unlock@stl_critical_section_win7@details@Concurrency@@UEAAXXZ 00000001800364bc f i libcpmt:mutex.obj
 0001:000354c8       _Mtx_destroy_in_situ       00000001800364c8 f   libcpmt:mutex.obj
 0001:000354dc       _Mtx_init_in_situ          00000001800364dc f   libcpmt:mutex.obj
 0001:0003550c       _Mtx_lock                  000000018003650c f   libcpmt:mutex.obj
 0001:00035514       _Mtx_unlock                0000000180036514 f   libcpmt:mutex.obj
 0001:0003553c       _Query_perf_counter        000000018003653c f   libcpmt:xtime.obj
 0001:00035558       _Query_perf_frequency      0000000180036558 f   libcpmt:xtime.obj
 0001:00035584       _Xtime_diff_to_millis2     0000000180036584 f   libcpmt:xtime.obj
 0001:00035658       _Xtime_get_ticks           0000000180036658 f   libcpmt:xtime.obj
 0001:00035688       xtime_get                  0000000180036688 f   libcpmt:xtime.obj
 0001:000356e0       __crtLCMapStringA          00000001800366e0 f   libcpmt:StlLCMapStringA.obj
 0001:000359e0       _Mtxdst                    00000001800369e0 f   libcpmt:xmtx.obj
 0001:000359e8       _Mtxinit                   00000001800369e8 f   libcpmt:xmtx.obj
 0001:000359f8       _Mtxlock                   00000001800369f8 f   libcpmt:xmtx.obj
 0001:00035a00       _Mtxunlock                 0000000180036a00 f   libcpmt:xmtx.obj
 0001:00035a08       ?_Atexit@@YAXP6AXXZ@Z      0000000180036a08 f   libcpmt:iosptrs.obj
 0001:00035a44       __crtCompareStringA        0000000180036a44 f   libcpmt:StlCompareStringA.obj
 0001:00036170       __crtGetSystemTimePreciseAsFileTime 0000000180037170 f   libcpmt:winapisupp.obj
 0001:0003618c       __crtTryAcquireSRWLockExclusive 000000018003718c f   libcpmt:winapisupp.obj
 0001:000361b0       __security_check_cookie    00000001800371b0 f   LIBCMT:amdsecgs.obj
 0001:000361d0       ??_V@YAXPEAX@Z             00000001800371d0 f   LIBCMT:delete_array.obj
 0001:000361d0       ??3@YAXPEAX_K@Z            00000001800371d0 f   LIBCMT:delete_scalar_size.obj
 0001:000361d8       ??2@YAPEAX_K@Z             00000001800371d8 f   LIBCMT:new_scalar.obj
 0001:00036214       ??_Etype_info@@UEAAPEAXI@Z 0000000180037214 f i LIBCMT:std_type_info_static.obj
 0001:00036214       ??_Gtype_info@@UEAAPEAXI@Z 0000000180037214 f i LIBCMT:std_type_info_static.obj
 0001:00036240       ??_U@YAPEAX_K@Z            0000000180037240 f   LIBCMT:new_array.obj
 0001:00036248       __scrt_acquire_startup_lock 0000000180037248 f   LIBCMT:utility.obj
 0001:00036284       __scrt_dllmain_after_initialize_c 0000000180037284 f   LIBCMT:utility.obj
 0001:000362b8       __scrt_dllmain_before_initialize_c 00000001800372b8 f   LIBCMT:utility.obj
 0001:000362d0       __scrt_dllmain_crt_thread_attach 00000001800372d0 f   LIBCMT:utility.obj
 0001:000362f8       __scrt_dllmain_crt_thread_detach 00000001800372f8 f   LIBCMT:utility.obj
 0001:00036310       __scrt_dllmain_exception_filter 0000000180037310 f   LIBCMT:utility.obj
 0001:00036370       __scrt_dllmain_uninitialize_c 0000000180037370 f   LIBCMT:utility.obj
 0001:000363a0       __scrt_dllmain_uninitialize_critical 00000001800373a0 f   LIBCMT:utility.obj
 0001:000363b4       __scrt_initialize_crt      00000001800373b4 f   LIBCMT:utility.obj
 0001:00036400       __scrt_initialize_onexit_tables 0000000180037400 f   LIBCMT:utility.obj
 0001:0003648c       __scrt_is_nonwritable_in_current_image 000000018003748c f   LIBCMT:utility.obj
 0001:00036524       __scrt_release_startup_lock 0000000180037524 f   LIBCMT:utility.obj
 0001:00036548       __scrt_uninitialize_crt    0000000180037548 f   LIBCMT:utility.obj
 0001:00036574       _onexit                    0000000180037574 f   LIBCMT:utility.obj
 0001:000365b0       atexit                     00000001800375b0 f   LIBCMT:utility.obj
 0001:000368e8       _DllMainCRTStartup         00000001800378e8 f   LIBCMT:dll_dllmain.obj
 0001:00036928       __GSHandlerCheck           0000000180037928 f   LIBCMT:gshandler.obj
 0001:00036948       __GSHandlerCheckCommon     0000000180037948 f   LIBCMT:gshandler.obj
 0001:000369a4       __GSHandlerCheck_EH4       00000001800379a4 f   LIBCMT:gshandlereh4.obj
 0001:00036a40       _alloca_probe              0000000180037a40 f   LIBCMT:chkstk.obj
 0001:00036a40       __chkstk                   0000000180037a40 f   LIBCMT:chkstk.obj
 0001:00036a90       __raise_securityfailure    0000000180037a90 f   LIBCMT:gs_report.obj
 0001:00036ac4       __report_gsfailure         0000000180037ac4 f   LIBCMT:gs_report.obj
 0001:00036b98       __report_rangecheckfailure 0000000180037b98 f   LIBCMT:gs_report.obj
 0001:00036bac       __report_securityfailure   0000000180037bac f   LIBCMT:gs_report.obj
 0001:00036d2c       ??3@YAXPEAX@Z              0000000180037d2c f   LIBCMT:delete_scalar.obj
 0001:00036d34       __isa_available_init       0000000180037d34 f   LIBCMT:cpu_disp.obj
 0001:00036ed8       __scrt_is_ucrt_dll_in_use  0000000180037ed8 f   LIBCMT:ucrt_detection.obj
 0001:00036ee4       __crt_debugger_hook        0000000180037ee4 f   LIBCMT:utility_desktop.obj
 0001:00036eec       __scrt_fastfail            0000000180037eec f   LIBCMT:utility_desktop.obj
 0001:00037038       __security_init_cookie     0000000180038038 f   LIBCMT:gs_support.obj
 0001:000370e4       ?__scrt_initialize_type_info@@YAXXZ 00000001800380e4 f   LIBCMT:tncleanup.obj
 0001:000370f4       ?__scrt_uninitialize_type_info@@YAXXZ 00000001800380f4 f   LIBCMT:tncleanup.obj
 0001:00037100       __local_stdio_scanf_options 0000000180038100 f i LIBCMT:default_local_stdio_options.obj
 0001:00037108       __scrt_initialize_default_local_stdio_options 0000000180038108 f   LIBCMT:default_local_stdio_options.obj
 0001:00037124       __scrt_get_dyn_tls_init_callback 0000000180038124 f   LIBCMT:dyn_tls_init.obj
 0001:0003712c       _RTC_Initialize            000000018003812c f   LIBCMT:initsect.obj
 0001:00037168       _RTC_Terminate             0000000180038168 f   LIBCMT:initsect.obj
 0001:000371b0       ??$_CallSETranslator@V__FrameHandler3@@@@YAHPEAUEHExceptionRecord@@PEA_KPEAU_CONTEXT@@PEAU_xDISPATCHER_CONTEXT@@PEBU_s_FuncInfo@@K1H@Z 00000001800381b0 f i libvcruntime:risctrnsctrl.obj
 0001:00037204       ??$_CallSETranslator@V__FrameHandler4@@@@YAHPEAUEHExceptionRecord@@PEA_KPEAU_CONTEXT@@PEAU_xDISPATCHER_CONTEXT@@PEAUFuncInfo4@FH4@@K1H@Z 0000000180038204 f i libvcruntime:risctrnsctrl.obj
 0001:00037258       ?CatchTryBlock@__FrameHandler3@@SAPEBU_s_TryBlockMapEntry@@PEBU_s_FuncInfo@@H@Z 0000000180038258 f   libvcruntime:risctrnsctrl.obj
 0001:000372ac       ?DecompFuncInfo@FH4@@YA_JPEAEAEAUFuncInfo4@1@_KH_N@Z 00000001800382ac f i libvcruntime:risctrnsctrl.obj
 0001:000373d0       ?ExecutionInCatch@__FrameHandler3@@SA_NPEAU_xDISPATCHER_CONTEXT@@PEBU_s_FuncInfo@@@Z 00000001800383d0 f   libvcruntime:risctrnsctrl.obj
 0001:000373fc       ?ExecutionInCatch@__FrameHandler4@@SA_NPEAU_xDISPATCHER_CONTEXT@@PEAUFuncInfo4@FH4@@@Z 00000001800383fc f   libvcruntime:risctrnsctrl.obj
 0001:00037404       ?FrameUnwindToEmptyState@__FrameHandler3@@SAXPEA_KPEAU_xDISPATCHER_CONTEXT@@PEBU_s_FuncInfo@@@Z 0000000180038404 f   libvcruntime:risctrnsctrl.obj
 0001:00037468       ?FrameUnwindToEmptyState@__FrameHandler4@@SAXPEA_KPEAU_xDISPATCHER_CONTEXT@@PEAUFuncInfo4@FH4@@@Z 0000000180038468 f   libvcruntime:risctrnsctrl.obj
 0001:0003749c       ?GetEstablisherFrame@__FrameHandler3@@SAPEA_KPEA_KPEAU_xDISPATCHER_CONTEXT@@PEBU_s_FuncInfo@@0@Z 000000018003849c f   libvcruntime:risctrnsctrl.obj
 0001:00037568       ?GetEstablisherFrame@__FrameHandler4@@SAPEA_KPEA_KPEAU_xDISPATCHER_CONTEXT@@PEAUFuncInfo4@FH4@@0@Z 0000000180038568 f   libvcruntime:risctrnsctrl.obj
 0001:0003758c       ?GetRangeOfTrysToCheck@__FrameHandler3@@SA?AU?$pair@Viterator@TryBlockMap@__FrameHandler3@@V123@@std@@AEAVTryBlockMap@1@HPEAU_xDISPATCHER_CONTEXT@@PEBU_s_FuncInfo@@H@Z 000000018003858c f   libvcruntime:risctrnsctrl.obj
 0001:000376cc       ?GetRangeOfTrysToCheck@__FrameHandler4@@SA?AU?$pair@Viterator@TryBlockMap4@FH4@@V123@@std@@AEAVTryBlockMap4@FH4@@HPEAU_xDISPATCHER_CONTEXT@@PEAUFuncInfo4@5@H@Z 00000001800386cc f   libvcruntime:risctrnsctrl.obj
 0001:00037834       ?UnwindNestedFrames@__FrameHandler3@@SAXPEA_KPEAUEHExceptionRecord@@PEAU_CONTEXT@@0PEAXPEBU_s_FuncInfo@@HHPEBU_s_HandlerType@@PEAU_xDISPATCHER_CONTEXT@@E@Z 0000000180038834 f   libvcruntime:risctrnsctrl.obj
 0001:00037938       ?UnwindNestedFrames@__FrameHandler4@@SAXPEA_KPEAUEHExceptionRecord@@PEAU_CONTEXT@@0PEAXPEAUFuncInfo4@FH4@@HHPEAUHandlerType4@5@PEAU_xDISPATCHER_CONTEXT@@E@Z 0000000180038938 f   libvcruntime:risctrnsctrl.obj
 0001:00037a58       ?setBuffer@TryBlockMap4@FH4@@QEAAXViterator@12@@Z 0000000180038a58 f i libvcruntime:risctrnsctrl.obj
 0001:00037c18       _CreateFrameInfo           0000000180038c18 f   libvcruntime:risctrnsctrl.obj
 0001:00037c54       _FindAndUnlinkFrame        0000000180038c54 f   libvcruntime:risctrnsctrl.obj
 0001:00037ca8       _GetImageBase              0000000180038ca8 f   libvcruntime:risctrnsctrl.obj
 0001:00037cbc       _GetThrowImageBase         0000000180038cbc f   libvcruntime:risctrnsctrl.obj
 0001:00037cd0       _SetImageBase              0000000180038cd0 f   libvcruntime:risctrnsctrl.obj
 0001:00037ce8       _SetThrowImageBase         0000000180038ce8 f   libvcruntime:risctrnsctrl.obj
 0001:00037d00       __CxxFrameHandler3         0000000180038d00 f   libvcruntime:risctrnsctrl.obj
 0001:00037d88       __CxxFrameHandler4         0000000180038d88 f   libvcruntime:risctrnsctrl.obj
 0001:00037e48       __std_exception_copy       0000000180038e48 f   libvcruntime:std_exception.obj
 0001:00037ed8       __std_exception_destroy    0000000180038ed8 f   libvcruntime:std_exception.obj
 0001:00037f00       _get_purecall_handler      0000000180038f00 f   libvcruntime:purevirt.obj
 0001:00037f0c       _purecall                  0000000180038f0c f   libvcruntime:purevirt.obj
 0001:00037f28       __DestructExceptionObject  0000000180038f28 f   libvcruntime:ehhelpers.obj
 0001:00037f98       ?_CallMemberFunction0@@YAXQEAX0@Z 0000000180038f98 f i libvcruntime:ehhelpers.obj
 0001:00037f9c       _IsExceptionObjectToBeDestroyed 0000000180038f9c f   libvcruntime:ehhelpers.obj
 0001:00037fcc       __AdjustPointer            0000000180038fcc f   libvcruntime:ehhelpers.obj
 0001:00037ff0       __FrameUnwindFilter        0000000180038ff0 f   libvcruntime:ehhelpers.obj
 0001:00038058       __std_terminate            0000000180039058 f   libvcruntime:ehhelpers.obj
 0001:00038064       strchr                     0000000180039064 f   libvcruntime:strchr.obj
 0001:00038100       memcpy_repmovs             0000000180039100 f   libvcruntime:memcpy.obj
 0001:00038120       memmove                    0000000180039120 f   libvcruntime:memcpy.obj
 0001:00038120       memcpy                     0000000180039120 f   libvcruntime:memcpy.obj
 0001:00038798       _CxxThrowException         0000000180039798 f   libvcruntime:throw.obj
 0001:00038838       __uncaught_exception       0000000180039838 f   libvcruntime:uncaught_exception.obj
 0001:00038870       memcmp                     0000000180039870 f   libvcruntime:memcmp.obj
 0001:00038950       memset_repmovs             0000000180039950 f   libvcruntime:memset.obj
 0001:00038970       memset                     0000000180039970 f   libvcruntime:memset.obj
 0001:00038b10       memchr                     0000000180039b10 f   libvcruntime:memchr.obj
 0001:00038b80       __vcrt_initialize          0000000180039b80 f   libvcruntime:initialization.obj
 0001:00038ba8       __vcrt_thread_attach       0000000180039ba8 f   libvcruntime:initialization.obj
 0001:00038bbc       __vcrt_thread_detach       0000000180039bbc f   libvcruntime:initialization.obj
 0001:00038bd0       __vcrt_uninitialize        0000000180039bd0 f   libvcruntime:initialization.obj
 0001:00038bec       __vcrt_uninitialize_critical 0000000180039bec f   libvcruntime:initialization.obj
 0001:00038bfc       __C_specific_handler       0000000180039bfc f   libvcruntime:riscchandler.obj
 0001:00038e08       __std_type_info_compare    0000000180039e08 f   libvcruntime:std_type_info.obj
 0001:00038e30       __std_type_info_destroy_list 0000000180039e30 f   libvcruntime:std_type_info.obj
 0001:00038e5c       __vcrt_freefls             0000000180039e5c f   libvcruntime:per_thread_data.obj
 0001:00038e7c       __vcrt_freeptd             0000000180039e7c f   libvcruntime:per_thread_data.obj
 0001:00038ecc       __vcrt_getptd              0000000180039ecc f   libvcruntime:per_thread_data.obj
 0001:00038ee8       __vcrt_getptd_noexit       0000000180039ee8 f   libvcruntime:per_thread_data.obj
 0001:00038fa8       __vcrt_getptd_noinit       0000000180039fa8 f   libvcruntime:per_thread_data.obj
 0001:00038ff8       __vcrt_initialize_ptd      0000000180039ff8 f   libvcruntime:per_thread_data.obj
 0001:00039040       __vcrt_uninitialize_ptd    000000018003a040 f   libvcruntime:per_thread_data.obj
 0001:00039064       ?GetCurrentState@__FrameHandler3@@SAHPEA_KPEAU_xDISPATCHER_CONTEXT@@PEBU_s_FuncInfo@@@Z 000000018003a064 f   libvcruntime:ehstate.obj
 0001:0003908c       ?GetUnwindTryBlock@__FrameHandler3@@SAHPEA_KPEAU_xDISPATCHER_CONTEXT@@PEBU_s_FuncInfo@@@Z 000000018003a08c f   libvcruntime:ehstate.obj
 0001:000390b8       ?SetState@__FrameHandler3@@SAXPEA_KPEBU_s_FuncInfo@@H@Z 000000018003a0b8 f   libvcruntime:ehstate.obj
 0001:000390c4       ?SetUnwindTryBlock@__FrameHandler3@@SAXPEA_KPEAU_xDISPATCHER_CONTEXT@@PEBU_s_FuncInfo@@H@Z 000000018003a0c4 f   libvcruntime:ehstate.obj
 0001:00039100       ?StateFromControlPc@__FrameHandler3@@SAHPEBU_s_FuncInfo@@PEAU_xDISPATCHER_CONTEXT@@@Z 000000018003a100 f   libvcruntime:ehstate.obj
 0001:00039108       ?StateFromControlPc@__FrameHandler4@@SAHPEAUFuncInfo4@FH4@@PEAU_xDISPATCHER_CONTEXT@@@Z 000000018003a108 f   libvcruntime:ehstate.obj
 0001:00039110       ?StateFromIp@__FrameHandler3@@SAHPEBU_s_FuncInfo@@PEAU_xDISPATCHER_CONTEXT@@_K@Z 000000018003a110 f   libvcruntime:ehstate.obj
 0001:00039178       ?StateFromIp@__FrameHandler4@@SAHPEAUFuncInfo4@FH4@@PEAU_xDISPATCHER_CONTEXT@@_K@Z 000000018003a178 f   libvcruntime:ehstate.obj
 0001:0003a85c       ??$TypeMatchHelper@V__FrameHandler3@@@@YAHPEBU_s_HandlerType@@PEBU_s_CatchableType@@PEBU_s_ThrowInfo@@@Z 000000018003b85c f i libvcruntime:frame.obj
 0001:0003a99c       ??$TypeMatchHelper@V__FrameHandler4@@@@YAHPEAUHandlerType4@FH4@@PEBU_s_CatchableType@@PEBU_s_ThrowInfo@@@Z 000000018003b99c f i libvcruntime:frame.obj
 0001:0003aae0       ??$__InternalCxxFrameHandler@V__FrameHandler3@@@@YA?AW4_EXCEPTION_DISPOSITION@@PEAUEHExceptionRecord@@PEA_KPEAU_CONTEXT@@PEAU_xDISPATCHER_CONTEXT@@PEBU_s_FuncInfo@@H1E@Z 000000018003bae0 f i libvcruntime:frame.obj
 0001:0003ad18       ??$__InternalCxxFrameHandler@V__FrameHandler4@@@@YA?AW4_EXCEPTION_DISPOSITION@@PEAUEHExceptionRecord@@PEA_KPEAU_CONTEXT@@PEAU_xDISPATCHER_CONTEXT@@PEAUFuncInfo4@FH4@@H1E@Z 000000018003bd18 f i libvcruntime:frame.obj
 0001:0003afac       ??0HandlerMap4@FH4@@QEAA@PEBUTryBlockMapEntry4@1@_KH@Z 000000018003bfac f i libvcruntime:frame.obj
 0001:0003b028       ??0TryBlockMap4@FH4@@QEAA@PEBUFuncInfo4@1@_K@Z 000000018003c028 f i libvcruntime:frame.obj
 0001:0003b100       ??0bad_exception@std@@QEAA@AEBV01@@Z 000000018003c100 f i libvcruntime:frame.obj
 0001:0003b13c       ??0bad_exception@std@@QEAA@XZ 000000018003c13c f i libvcruntime:frame.obj
 0001:0003b15c       ?CxxCallCatchBlock@__FrameHandler3@@SAPEAXPEAU_EXCEPTION_RECORD@@@Z 000000018003c15c f   libvcruntime:frame.obj
 0001:0003b348       ?CxxCallCatchBlock@__FrameHandler4@@SAPEAXPEAU_EXCEPTION_RECORD@@@Z 000000018003c348 f   libvcruntime:frame.obj
 0001:0003b598       ?DecompHandler@HandlerMap4@FH4@@AEAAXXZ 000000018003c598 f i libvcruntime:frame.obj
 0001:0003b7d8       ?FrameUnwindToState@__FrameHandler3@@SAXPEA_KPEAU_xDISPATCHER_CONTEXT@@PEBU_s_FuncInfo@@H@Z 000000018003c7d8 f   libvcruntime:frame.obj
 0001:0003b964       ?FrameUnwindToState@__FrameHandler4@@SAXPEA_KPEAU_xDISPATCHER_CONTEXT@@PEAUFuncInfo4@FH4@@H@Z 000000018003c964 f   libvcruntime:frame.obj
 0001:0003bc4c       ?GetHandlerSearchState@__FrameHandler3@@SAHPEA_KPEAU_xDISPATCHER_CONTEXT@@PEBU_s_FuncInfo@@@Z 000000018003cc4c f i libvcruntime:frame.obj
 0001:0003be5c       ?ReadEntry@UWMap4@FH4@@AEAAXPEAPEAE@Z 000000018003ce5c f i libvcruntime:frame.obj
 0001:0003befc       ?_CallMemberFunction1@@YAXQEAX00@Z 000000018003cefc f i libvcruntime:frame.obj
 0001:0003bf08       ?_CallMemberFunction2@@YAXQEAX00H@Z 000000018003cf08 f i libvcruntime:frame.obj
 0001:0003bf18       ?getStartStop@UWMap4@FH4@@QEAAXHHAEAViterator@12@0@Z 000000018003cf18 f i libvcruntime:frame.obj
 0001:0003bfe8       ?getStateFromIterators@UWMap4@FH4@@SAHAEBViterator@12@H0H0@Z 000000018003cfe8 f i libvcruntime:frame.obj
 0001:0003c0b0       __vcrt_initialize_locks    000000018003d0b0 f   libvcruntime:locks.obj
 0001:0003c0e4       __vcrt_uninitialize_locks  000000018003d0e4 f   libvcruntime:locks.obj
 0001:0003c130       _NLG_Notify                000000018003d130 f   libvcruntime:notify.obj
 0001:0003c150       __NLG_Dispatch2            000000018003d150 f   libvcruntime:notify.obj
 0001:0003c160       __NLG_Return2              000000018003d160 f   libvcruntime:notify.obj
 0001:0003c164       __except_validate_context_record 000000018003d164 f   libvcruntime:jbcxrval.obj
 0001:0003c2ec       __vcrt_FlsAlloc            000000018003d2ec f   libvcruntime:winapi_downlevel.obj
 0001:0003c334       __vcrt_FlsFree             000000018003d334 f   libvcruntime:winapi_downlevel.obj
 0001:0003c37c       __vcrt_FlsGetValue         000000018003d37c f   libvcruntime:winapi_downlevel.obj
 0001:0003c3c4       __vcrt_FlsSetValue         000000018003d3c4 f   libvcruntime:winapi_downlevel.obj
 0001:0003c418       __vcrt_InitializeCriticalSectionEx 000000018003d418 f   libvcruntime:winapi_downlevel.obj
 0001:0003c490       _CallSettingFrame          000000018003d490 f   libvcruntime:handlers.obj
 0001:0003c4e0       _CallSettingFrame_LookupContinuationIndex 000000018003d4e0 f   libvcruntime:handlers.obj
 0001:0003c510       _CallSettingFrame_NotifyContinuationAddr 000000018003d510 f   libvcruntime:handlers.obj
 0001:0003c540       _CallSettingFrameEncoded   000000018003d540 f   libvcruntime:handlers.obj
 0001:0003c588       calloc                     000000018003d588 f   libucrt:calloc.obj
 0001:0003c590       realloc                    000000018003d590 f   libucrt:realloc.obj
 0001:0003c640       strcspn                    000000018003d640 f   libucrt:strcspn.obj
 0001:0003cbdc       ??$ensure_buffer_is_big_enough@D@formatting_buffer@__crt_stdio_output@@QEAA_N_K@Z 000000018003dbdc f i libucrt:output.obj
 0001:0003cc84       ??$type_case_integer_parse_into_buffer@I@?$output_processor@DV?$string_output_adapter@D@__crt_stdio_output@@V?$format_validation_base@DV?$string_output_adapter@D@__crt_stdio_output@@@2@@__crt_stdio_output@@AEAAXII_N@Z 000000018003dc84 f i libucrt:output.obj
 0001:0003cd0c       ??$type_case_integer_parse_into_buffer@_K@?$output_processor@DV?$string_output_adapter@D@__crt_stdio_output@@V?$format_validation_base@DV?$string_output_adapter@D@__crt_stdio_output@@@2@@__crt_stdio_output@@AEAAX_KI_N@Z 000000018003dd0c f i libucrt:output.obj
 0001:0003cd9c       ??$write_multiple_characters@V?$string_output_adapter@D@__crt_stdio_output@@D@__crt_stdio_output@@YAXAEBV?$string_output_adapter@D@0@DHQEAH@Z 000000018003dd9c f i libucrt:output.obj
 0001:0003ce14       ??0_LocaleUpdate@@QEAA@QEAU__crt_locale_pointers@@@Z 000000018003de14 f i libucrt:output.obj
 0001:0003ceb0       ??1_LocaleUpdate@@QEAA@XZ  000000018003deb0 f i libucrt:output.obj
 0001:0003ced0       ?crop_zeroes@__crt_stdio_output@@YAXPEADQEAU__crt_locale_pointers@@@Z 000000018003ded0 f i libucrt:output.obj
 0001:0003cf70       ?force_decimal_point@__crt_stdio_output@@YAXPEADQEAU__crt_locale_pointers@@@Z 000000018003df70 f i libucrt:output.obj
 0001:0003cfe8       ?parse_int_from_format_string@?$output_processor@DV?$string_output_adapter@D@__crt_stdio_output@@V?$format_validation_base@DV?$string_output_adapter@D@__crt_stdio_output@@@2@@__crt_stdio_output@@AEAA_NQEAH@Z 000000018003dfe8 f i libucrt:output.obj
 0001:0003d08c       ?process@?$output_processor@DV?$string_output_adapter@D@__crt_stdio_output@@V?$format_validation_base@DV?$string_output_adapter@D@__crt_stdio_output@@@2@@__crt_stdio_output@@QEAAHXZ 000000018003e08c f i libucrt:output.obj
 0001:0003d2a0       ?state_case_normal@?$output_processor@DV?$string_output_adapter@D@__crt_stdio_output@@V?$format_validation_base@DV?$string_output_adapter@D@__crt_stdio_output@@@2@@__crt_stdio_output@@AEAA_NXZ 000000018003e2a0 f i libucrt:output.obj
 0001:0003d314       ?state_case_normal_tchar@?$output_processor@DV?$string_output_adapter@D@__crt_stdio_output@@V?$format_validation_base@DV?$string_output_adapter@D@__crt_stdio_output@@@2@@__crt_stdio_output@@AEAA_ND@Z 000000018003e314 f i libucrt:output.obj
 0001:0003d3bc       ?state_case_size@?$output_processor@DV?$string_output_adapter@D@__crt_stdio_output@@V?$format_validation_base@DV?$string_output_adapter@D@__crt_stdio_output@@@2@@__crt_stdio_output@@AEAA_NXZ 000000018003e3bc f i libucrt:output.obj
 0001:0003d52c       ?state_case_type@?$output_processor@DV?$string_output_adapter@D@__crt_stdio_output@@V?$format_validation_base@DV?$string_output_adapter@D@__crt_stdio_output@@@2@@__crt_stdio_output@@AEAA_NXZ 000000018003e52c f i libucrt:output.obj
 0001:0003d7a0       ?to_integer_size@__crt_stdio_output@@YA_KW4length_modifier@1@@Z 000000018003e7a0 f i libucrt:output.obj
 0001:0003d808       ?type_case_Z@?$output_processor@DV?$string_output_adapter@D@__crt_stdio_output@@V?$format_validation_base@DV?$string_output_adapter@D@__crt_stdio_output@@@2@@__crt_stdio_output@@AEAA_NXZ 000000018003e808 f i libucrt:output.obj
 0001:0003d87c       ?type_case_a@?$output_processor@DV?$string_output_adapter@D@__crt_stdio_output@@V?$format_validation_base@DV?$string_output_adapter@D@__crt_stdio_output@@@2@@__crt_stdio_output@@AEAA_NXZ 000000018003e87c f i libucrt:output.obj
 0001:0003da38       ?type_case_c_tchar@?$output_processor@DV?$string_output_adapter@D@__crt_stdio_output@@V?$format_validation_base@DV?$string_output_adapter@D@__crt_stdio_output@@@2@@__crt_stdio_output@@AEAA_ND@Z 000000018003ea38 f i libucrt:output.obj
 0001:0003db00       ?type_case_integer@?$output_processor@DV?$string_output_adapter@D@__crt_stdio_output@@V?$format_validation_base@DV?$string_output_adapter@D@__crt_stdio_output@@@2@@__crt_stdio_output@@AEAA_NI_N@Z 000000018003eb00 f i libucrt:output.obj
 0001:0003dc80       ?type_case_n@?$output_processor@DV?$string_output_adapter@D@__crt_stdio_output@@V?$format_validation_base@DV?$string_output_adapter@D@__crt_stdio_output@@@2@@__crt_stdio_output@@AEAA_NXZ 000000018003ec80 f i libucrt:output.obj
 0001:0003dd08       ?type_case_s@?$output_processor@DV?$string_output_adapter@D@__crt_stdio_output@@V?$format_validation_base@DV?$string_output_adapter@D@__crt_stdio_output@@@2@@__crt_stdio_output@@AEAA_NXZ 000000018003ed08 f i libucrt:output.obj
 0001:0003dda0       ?write_stored_string_tchar@?$output_processor@DV?$string_output_adapter@D@__crt_stdio_output@@V?$format_validation_base@DV?$string_output_adapter@D@__crt_stdio_output@@@2@@__crt_stdio_output@@AEAA_ND@Z 000000018003eda0 f i libucrt:output.obj
 0001:0003de7c       ?write_string@?$string_output_adapter@D@__crt_stdio_output@@QEBAXQEBDHQEAHAEAV__crt_deferred_errno_cache@@@Z 000000018003ee7c f i libucrt:output.obj
 0001:0003df20       __stdio_common_vsprintf_s  000000018003ef20 f   libucrt:output.obj
 0001:0003df84       localeconv                 000000018003ef84 f   libucrt:localeconv.obj
 0001:0003dfb8       free                       000000018003efb8 f   libucrt:free.obj
 0001:0003dfcc       ??$parse_integer@KV?$c_string_character_source@D@__crt_strtox@@@__crt_strtox@@YAKQEAU__crt_locale_pointers@@V?$c_string_character_source@D@0@H_N@Z 000000018003efcc f i libucrt:atox.obj
 0001:0003e2d0       ??$parse_integer@KV?$c_string_character_source@_W@__crt_strtox@@@__crt_strtox@@YAKQEAU__crt_locale_pointers@@V?$c_string_character_source@_W@0@H_N@Z 000000018003f2d0 f i libucrt:atox.obj
 0001:0003e978       _ischartype_l              000000018003f978 f i libucrt:atox.obj
 0001:0003e9f0       _wtol                      000000018003f9f0 f   libucrt:atox.obj
 0001:0003ea1c       atoi                       000000018003fa1c f   libucrt:atox.obj
 0001:0003ea48       frexp                      000000018003fa48 f   libucrt:frexp.obj
 0001:0003eb40       __acrt_call_reportfault    000000018003fb40 f   libucrt:invalid_parameter.obj
 0001:0003ec9c       __acrt_initialize_invalid_parameter_handler 000000018003fc9c f   libucrt:invalid_parameter.obj
 0001:0003eca4       _invalid_parameter         000000018003fca4 f   libucrt:invalid_parameter.obj
 0001:0003ed54       _invalid_parameter_noinfo  000000018003fd54 f   libucrt:invalid_parameter.obj
 0001:0003ed74       _invalid_parameter_noinfo_noreturn 000000018003fd74 f   libucrt:invalid_parameter.obj
 0001:0003eda4       _invoke_watson             000000018003fda4 f   libucrt:invalid_parameter.obj
 0001:0003ee60       ??$parse_floating_point@V?$c_string_character_source@D@__crt_strtox@@N@__crt_strtox@@YA?AW4SLD_STATUS@@QEAU__crt_locale_pointers@@V?$c_string_character_source@D@0@QEAN@Z 000000018003fe60 f i libucrt:atof.obj
 0001:0003ef00       ??$parse_floating_point_from_source@V?$c_string_character_source@D@__crt_strtox@@@__crt_strtox@@YA?AW4floating_point_parse_result@0@QEAU__crt_locale_pointers@@AEAV?$c_string_character_source@D@0@AEAUfloating_point_string@0@@Z 000000018003ff00 f i libucrt:atof.obj
 0001:0003f3b0       ??$parse_floating_point_possible_infinity@DV?$c_string_character_source@D@__crt_strtox@@PEBD@__crt_strtox@@YA?AW4floating_point_parse_result@0@AEADAEAV?$c_string_character_source@D@0@PEBD@Z 00000001800403b0 f i libucrt:atof.obj
 0001:0003f50c       ??$parse_floating_point_possible_nan@DV?$c_string_character_source@D@__crt_strtox@@PEBD@__crt_strtox@@YA?AW4floating_point_parse_result@0@AEADAEAV?$c_string_character_source@D@0@PEBD@Z 000000018004050c f i libucrt:atof.obj
 0001:0003f6f8       ??$parse_floating_point_possible_nan_is_ind@DV?$c_string_character_source@D@__crt_strtox@@@__crt_strtox@@YA_NAEADAEAV?$c_string_character_source@D@0@@Z 00000001800406f8 f i libucrt:atof.obj
 0001:0003f73c       ??$parse_floating_point_possible_nan_is_snan@DV?$c_string_character_source@D@__crt_strtox@@@__crt_strtox@@YA_NAEADAEAV?$c_string_character_source@D@0@@Z 000000018004073c f i libucrt:atof.obj
 0001:0003f780       ??$parse_floating_point_write_result@N@__crt_strtox@@YA?AW4SLD_STATUS@@W4floating_point_parse_result@0@AEBUfloating_point_string@0@QEAN@Z 0000000180040780 f i libucrt:atof.obj
 0001:0003f960       ?as_double@floating_point_value@__crt_strtox@@QEBAAEANXZ 0000000180040960 f i libucrt:atof.obj
 0001:0003f99c       ?as_float@floating_point_value@__crt_strtox@@QEBAAEAMXZ 000000018004099c f i libucrt:atof.obj
 0001:0003f9d8       ?assemble_floating_point_value@__crt_strtox@@YA?AW4SLD_STATUS@@_KH_N1AEBVfloating_point_value@1@@Z 00000001800409d8 f i libucrt:atof.obj
 0001:0003fd78       ?assemble_floating_point_value_from_big_integer@__crt_strtox@@YA?AW4SLD_STATUS@@AEBUbig_integer@1@I_N1AEBVfloating_point_value@1@@Z 0000000180040d78 f i libucrt:atof.obj
 0001:0003fed8       ?convert_decimal_string_to_floating_type_common@__crt_strtox@@YA?AW4SLD_STATUS@@AEBUfloating_point_string@1@AEBVfloating_point_value@1@@Z 0000000180040ed8 f i libucrt:atof.obj
 0001:00041d28       ?convert_hexadecimal_string_to_floating_type_common@__crt_strtox@@YA?AW4SLD_STATUS@@AEBUfloating_point_string@1@AEBVfloating_point_value@1@@Z 0000000180042d28 f i libucrt:atof.obj
 0001:00041de0       ?divide@__crt_strtox@@YA_KAEAUbig_integer@1@AEBU21@@Z 0000000180042de0 f i libucrt:atof.obj
 0001:0004220c       atof                       000000018004320c f   libucrt:atof.obj
 0001:0004229c       fputc                      000000018004329c f   libucrt:fputc.obj
 0001:000425dc       __acrt_stdio_flush_nolock  00000001800435dc f   libucrt:fflush.obj
 0001:00042658       _fflush_nolock             0000000180043658 f   libucrt:fflush.obj
 0001:000426a4       _flushall                  00000001800436a4 f   libucrt:fflush.obj
 0001:000426ac       fflush                     00000001800436ac f   libucrt:fflush.obj
 0001:00042714       _fclose_nolock             0000000180043714 f   libucrt:fclose.obj
 0001:00042798       fclose                     0000000180043798 f   libucrt:fclose.obj
 0001:000427fc       _fgetc_nolock              00000001800437fc f   libucrt:fgetc.obj
 0001:00042840       fgetc                      0000000180043840 f   libucrt:fgetc.obj
 0001:00042948       __acrt_initialize_stdio    0000000180043948 f   libucrt:_file.obj
 0001:00042a68       __acrt_iob_func            0000000180043a68 f   libucrt:_file.obj
 0001:00042a7c       __acrt_uninitialize_stdio  0000000180043a7c f   libucrt:_file.obj
 0001:00042ad8       _get_stream_buffer_pointers 0000000180043ad8 f   libucrt:_file.obj
 0001:00042b20       _lock_file                 0000000180043b20 f   libucrt:_file.obj
 0001:00042b2c       _unlock_file               0000000180043b2c f   libucrt:_file.obj
 0001:00042bdc       _fwrite_nolock             0000000180043bdc f   libucrt:fwrite.obj
 0001:00042d88       fwrite                     0000000180043d88 f   libucrt:fwrite.obj
 0001:00042e0c       fgetpos                    0000000180043e0c f   libucrt:fgetpos.obj
 0001:00042f7c       setvbuf                    0000000180043f7c f   libucrt:setvbuf.obj
 0001:00043018       _ungetc_nolock             0000000180044018 f   libucrt:ungetc.obj
 0001:00043140       ungetc                     0000000180044140 f   libucrt:ungetc.obj
 0001:00043198       fsetpos                    0000000180044198 f   libucrt:fsetpos.obj
 0001:000431d0       _fread_nolock_s            00000001800441d0 f   libucrt:fread.obj
 0001:00043430       fread                      0000000180044430 f   libucrt:fread.obj
 0001:00043450       fread_s                    0000000180044450 f   libucrt:fread.obj
 0001:00043700       _fseeki64                  0000000180044700 f   libucrt:fseek.obj
 0001:00043708       fseek                      0000000180044708 f   libucrt:fseek.obj
 0001:00043710       malloc                     0000000180044710 f   libucrt:malloc.obj
 0001:00043718       ??$__acrt_get_current_directory_narrow_acp_or_utf8@U__crt_win32_buffer_internal_dynamic_resizing@@@@YAHAEAV?$__crt_win32_buffer@DU__crt_win32_buffer_internal_dynamic_resizing@@@@@Z 0000000180044718 f i libucrt:chdir.obj
 0001:00043834       ??$__acrt_get_current_directory_wide@U__crt_win32_buffer_internal_dynamic_resizing@@@@YAHAEAV?$__crt_win32_buffer@_WU__crt_win32_buffer_internal_dynamic_resizing@@@@@Z 0000000180044834 f i libucrt:chdir.obj
 0001:000438fc       ??$__acrt_wcs_to_mbs_cp@U__crt_win32_buffer_internal_dynamic_resizing@@@@YAHQEB_WAEAV?$__crt_win32_buffer@DU__crt_win32_buffer_internal_dynamic_resizing@@@@I@Z 00000001800448fc f i libucrt:chdir.obj
 0001:00043a88       _chdir                     0000000180044a88 f   libucrt:chdir.obj
 0001:00043bbc       ___lc_codepage_func        0000000180044bbc f   libucrt:initctype.obj
 0001:00043bec       ___lc_collate_cp_func      0000000180044bec f   libucrt:initctype.obj
 0001:00043c1c       ___lc_locale_name_func     0000000180044c1c f   libucrt:initctype.obj
 0001:00043c50       ___mb_cur_max_func         0000000180044c50 f   libucrt:initctype.obj
 0001:00043c80       __acrt_locale_initialize_ctype 0000000180044c80 f   libucrt:initctype.obj
 0001:000442e4       __acrt_initialize_locks    00000001800452e4 f   libucrt:locks.obj
 0001:0004432c       __acrt_lock                000000018004532c f   libucrt:locks.obj
 0001:00044348       __acrt_uninitialize_locks  0000000180045348 f   libucrt:locks.obj
 0001:00044380       __acrt_unlock              0000000180045380 f   libucrt:locks.obj
 0001:0004439c       _lock_locales              000000018004539c f   libucrt:locks.obj
 0001:000443b8       _unlock_locales            00000001800453b8 f   libucrt:locks.obj
 0001:000446a4       setlocale                  00000001800456a4 f   libucrt:setlocale.obj
 0001:000446f0       __pctype_func              00000001800456f0 f   libucrt:ctype.obj
 0001:00044720       islower                    0000000180045720 f   libucrt:_ctype.obj
 0001:000447d0       isupper                    00000001800457d0 f   libucrt:_ctype.obj
 0001:00044878       _wcsdup                    0000000180045878 f   libucrt:wcsdup.obj
 0001:000448fc       __acrt_errno_from_os_error 00000001800458fc f   libucrt:errno.obj
 0001:00044944       __acrt_errno_map_os_error  0000000180045944 f   libucrt:errno.obj
 0001:00044994       __doserrno                 0000000180045994 f   libucrt:errno.obj
 0001:000449b4       _errno                     00000001800459b4 f   libucrt:errno.obj
 0001:000449d4       abort                      00000001800459d4 f   libucrt:abort.obj
 0001:00044ae8       _fsopen                    0000000180045ae8 f   libucrt:fopen.obj
 0001:00044af0       __strncnt                  0000000180045af0 f   libucrt:strncnt.obj
 0001:00044b10       pow                        0000000180045b10 f   libucrt:pow.obj
 0001:000461b0       powf                       00000001800471b0 f   libucrt:powf.obj
 0001:00047078       ??$__acrt_mbs_to_wcs_cp@U__crt_win32_buffer_internal_dynamic_resizing@@@@YAHQEBDAEAV?$__crt_win32_buffer@_WU__crt_win32_buffer_internal_dynamic_resizing@@@@I@Z 0000000180048078 f i libucrt:strftime.obj
 0001:000471f0       ??$__acrt_wcs_to_mbs_cp@U__crt_win32_buffer_no_resizing@@@@YAHQEB_WAEAV?$__crt_win32_buffer@DU__crt_win32_buffer_no_resizing@@@@I@Z 00000001800481f0 f i libucrt:strftime.obj
 0001:00047304       _toupper_l                 0000000180048304 f   libucrt:tolower_toupper.obj
 0001:00047440       toupper                    0000000180048440 f   libucrt:tolower_toupper.obj
 0001:0004746c       strnlen                    000000018004846c f   libucrt:strnlen.obj
 0001:000475bc       wcsnlen                    00000001800485bc f   libucrt:strnlen.obj
 0001:00047794       __acrt_initialize_new_handler 0000000180048794 f   libucrt:new_handler.obj
 0001:0004779c       _callnewh                  000000018004879c f   libucrt:new_handler.obj
 0001:000477cc       _query_new_handler         00000001800487cc f   libucrt:new_handler.obj
 0001:00047800       _seh_filter_dll            0000000180048800 f   libucrt:exception_filter.obj
 0001:00047814       _seh_filter_exe            0000000180048814 f   libucrt:exception_filter.obj
 0001:00047c04       __acrt_initialize_thread_local_exit_callback 0000000180048c04 f   libucrt:exit.obj
 0001:00047c0c       _cexit                     0000000180048c0c f   libucrt:exit.obj
 0001:00047c1c       _exit                      0000000180048c1c f   libucrt:exit.obj
 0001:00047c28       _is_c_termination_complete 0000000180048c28 f   libucrt:exit.obj
 0001:00047df0       __acrt_allocate_buffer_for_argv 0000000180048df0 f   libucrt:argv_parsing.obj
 0001:00047e50       _configure_narrow_argv     0000000180048e50 f   libucrt:argv_parsing.obj
 0001:000481c8       __dcrt_uninitialize_environments_nolock 00000001800491c8 f   libucrt:environment_initialization.obj
 0001:00048200       _initialize_narrow_environment 0000000180049200 f   libucrt:environment_initialization.obj
 0001:00048548       _crt_atexit                0000000180049548 f   libucrt:onexit.obj
 0001:00048558       _execute_onexit_table      0000000180049558 f   libucrt:onexit.obj
 0001:00048594       _initialize_onexit_table   0000000180049594 f   libucrt:onexit.obj
 0001:000485bc       _register_onexit_function  00000001800495bc f   libucrt:onexit.obj
 0001:00048730       __acrt_initialize          0000000180049730 f   libucrt:initialization.obj
 0001:00048744       __acrt_thread_attach       0000000180049744 f   libucrt:initialization.obj
 0001:00048758       __acrt_thread_detach       0000000180049758 f   libucrt:initialization.obj
 0001:00048768       __acrt_uninitialize        0000000180049768 f   libucrt:initialization.obj
 0001:000487a0       __acrt_uninitialize_critical 00000001800497a0 f   libucrt:initialization.obj
 0001:000487b0       _initterm                  00000001800497b0 f   libucrt:initterm.obj
 0001:00048814       _initterm_e                0000000180049814 f   libucrt:initterm.obj
 0001:00048854       terminate                  0000000180049854 f   libucrt:terminate.obj
 0001:00048874       strcpy_s                   0000000180049874 f   libucrt:strcpy_s.obj
 0001:000488f0       strncmp                    00000001800498f0 f   libucrt:strncmp.obj
 0001:00048970       wcsncmp                    0000000180049970 f   libucrt:wcsncmp.obj
 0001:0004899c       _calloc_base               000000018004999c f   libucrt:calloc_base.obj
 0001:00048a14       _realloc_base              0000000180049a14 f   libucrt:realloc_base.obj
 0001:00048a90       _free_base                 0000000180049a90 f   libucrt:free_base.obj
 0001:00048ad0       _malloc_base               0000000180049ad0 f   libucrt:malloc_base.obj
 0001:00048b30       strtol                     0000000180049b30 f   libucrt:strtox.obj
 0001:00048b5c       _mbtowc_l                  0000000180049b5c f   libucrt:mbtowc.obj
 0001:00048cdc       mbtowc                     0000000180049cdc f   libucrt:mbtowc.obj
 0001:00048ce4       _wctomb_s_l                0000000180049ce4 f   libucrt:wctomb.obj
 0001:000491f8       __acrt_freeptd             000000018004a1f8 f   libucrt:per_thread_data.obj
 0001:0004923c       __acrt_getptd              000000018004a23c f   libucrt:per_thread_data.obj
 0001:00049310       __acrt_getptd_head         000000018004a310 f   libucrt:per_thread_data.obj
 0001:000493b8       __acrt_getptd_noexit       000000018004a3b8 f   libucrt:per_thread_data.obj
 0001:00049484       __acrt_initialize_ptd      000000018004a484 f   libucrt:per_thread_data.obj
 0001:000494c0       __acrt_uninitialize_ptd    000000018004a4c0 f   libucrt:per_thread_data.obj
 0001:000494e4       __acrt_update_locale_info  000000018004a4e4 f   libucrt:locale_update.obj
 0001:00049518       __acrt_update_multibyte_info 000000018004a518 f   libucrt:locale_update.obj
 0001:00049f58       __acrt_fp_format           000000018004af58 f   libucrt:cvt.obj
 0001:0004a290       _fileno                    000000018004b290 f   libucrt:fileno.obj
 0001:0004a2b8       _get_printf_count_output   000000018004b2b8 f   libucrt:printf_count_output.obj
 0001:0004a2d0       __acrt_should_use_temporary_buffer 000000018004b2d0 f   libucrt:_sftbuf.obj
 0001:0004a318       __acrt_stdio_begin_temporary_buffering_nolock 000000018004b318 f   libucrt:_sftbuf.obj
 0001:0004a3e0       __acrt_stdio_end_temporary_buffering_nolock 000000018004b3e0 f   libucrt:_sftbuf.obj
 0001:0004a684       ?commit_locale_name@_expandlocale_locale_name_cache@@QEAAXQEB_W_K@Z 000000018004b684 f i libucrt:wsetlocale.obj
 0001:0004a6fc       __acrt_copy_locale_name    000000018004b6fc f   libucrt:wsetlocale.obj
 0001:0004a780       __acrt_set_locale_changed  000000018004b780 f   libucrt:wsetlocale.obj
 0001:0004a78c       __acrt_uninitialize_locale 000000018004b78c f   libucrt:wsetlocale.obj
 0001:0004a7bc       __lc_lctowcs               000000018004b7bc f   libucrt:wsetlocale.obj
 0001:0004a860       __lc_wcstolc               000000018004b860 f   libucrt:wsetlocale.obj
 0001:0004af08       _wcscats                   000000018004bf08 f   libucrt:wsetlocale.obj
 0001:0004af70       _wsetlocale                000000018004bf70 f   libucrt:wsetlocale.obj
 0001:0004bebc       __acrt_initialize_lowio    000000018004cebc f   libucrt:ioinit.obj
 0001:0004bef8       __acrt_uninitialize_lowio  000000018004cef8 f   libucrt:ioinit.obj
 0001:0004bf38       iswctype                   000000018004cf38 f   libucrt:iswctype.obj
 0001:0004bfa4       _isctype_l                 000000018004cfa4 f   libucrt:isctype.obj
 0001:0004c0ac       _dsign                     000000018004d0ac f   libucrt:nan.obj
 0001:0004c0c4       _errcode                   000000018004d0c4 f   libucrt:fpexcept.obj
 0001:0004c108       _except1                   000000018004d108 f   libucrt:fpexcept.obj
 0001:0004c1fc       _handle_exc                000000018004d1fc f   libucrt:fpexcept.obj
 0001:0004c464       _raise_exc                 000000018004d464 f   libucrt:fpexcept.obj
 0001:0004c48c       _raise_exc_ex              000000018004d48c f   libucrt:fpexcept.obj
 0001:0004c79c       _raise_excf                000000018004d79c f   libucrt:fpexcept.obj
 0001:0004c7c8       _set_errno_from_matherr    000000018004d7c8 f   libucrt:fpexcept.obj
 0001:0004c7f8       _umatherr                  000000018004d7f8 f   libucrt:fpexcept.obj
 0001:0004c8cc       _decomp                    000000018004d8cc f   libucrt:util.obj
 0001:0004c9fc       _sptype                    000000018004d9fc f   libucrt:util.obj
 0001:0004ca70       _clrfp                     000000018004da70 f   libucrt:fpctrl.obj
 0001:0004ca90       _ctrlfp                    000000018004da90 f   libucrt:fpctrl.obj
 0001:0004cb0c       _set_statfp                000000018004db0c f   libucrt:fpctrl.obj
 0001:0004cb2c       _statfp                    000000018004db2c f   libucrt:fpctrl.obj
 0001:0004cb40       fegetround                 000000018004db40 f   libucrt:fegetround.obj
 0001:0004ccb4       __acrt_stdio_flush_and_write_narrow_nolock 000000018004dcb4 f   libucrt:_flsbuf.obj
 0001:0004cdf8       _commit                    000000018004ddf8 f   libucrt:commit.obj
 0001:0004d708       _write                     000000018004e708 f   libucrt:write.obj
 0001:0004d7f4       _write_nolock              000000018004e7f4 f   libucrt:write.obj
 0001:0004db4c       _close                     000000018004eb4c f   libucrt:close.obj
 0001:0004dbf0       _close_nolock              000000018004ebf0 f   libucrt:close.obj
 0001:0004dcb0       ?__acrt_stdio_allocate_stream@@YA?AV__crt_stdio_stream@@XZ 000000018004ecb0 f   libucrt:stream.obj
 0001:0004dd08       ?__acrt_stdio_free_stream@@YAXV__crt_stdio_stream@@@Z 000000018004ed08 f   libucrt:stream.obj
 0001:0004de10       __acrt_stdio_free_buffer_nolock 000000018004ee10 f   libucrt:_freebuf.obj
 0001:0004de50       __acrt_stdio_refill_and_read_narrow_nolock 000000018004ee50 f   libucrt:_filbuf.obj
 0001:0004e238       __acrt_AppPolicyGetProcessTerminationMethodInternal 000000018004f238 f   libucrt:winapi_thunks.obj
 0001:0004e288       __acrt_AreFileApisANSI     000000018004f288 f   libucrt:winapi_thunks.obj
 0001:0004e2c4       __acrt_EnumSystemLocalesEx 000000018004f2c4 f   libucrt:winapi_thunks.obj
 0001:0004e35c       __acrt_FlsAlloc            000000018004f35c f   libucrt:winapi_thunks.obj
 0001:0004e3a4       __acrt_FlsFree             000000018004f3a4 f   libucrt:winapi_thunks.obj
 0001:0004e3ec       __acrt_FlsGetValue         000000018004f3ec f   libucrt:winapi_thunks.obj
 0001:0004e434       __acrt_FlsSetValue         000000018004f434 f   libucrt:winapi_thunks.obj
 0001:0004e488       __acrt_GetLocaleInfoEx     000000018004f488 f   libucrt:winapi_thunks.obj
 0001:0004e50c       __acrt_GetUserDefaultLocaleName 000000018004f50c f   libucrt:winapi_thunks.obj
 0001:0004e570       __acrt_InitializeCriticalSectionEx 000000018004f570 f   libucrt:winapi_thunks.obj
 0001:0004e5d4       __acrt_IsValidLocaleName   000000018004f5d4 f   libucrt:winapi_thunks.obj
 0001:0004e62c       __acrt_LCIDToLocaleName    000000018004f62c f   libucrt:winapi_thunks.obj
 0001:0004e69c       __acrt_LCMapStringEx       000000018004f69c f   libucrt:winapi_thunks.obj
 0001:0004e778       __acrt_LocaleNameToLCID    000000018004f778 f   libucrt:winapi_thunks.obj
 0001:0004e7c8       __acrt_can_use_vista_locale_apis 000000018004f7c8 f   libucrt:winapi_thunks.obj
 0001:0004e7f8       __acrt_eagerly_load_locale_apis 000000018004f7f8 f   libucrt:winapi_thunks.obj
 0001:0004e954       __acrt_initialize_winapi_thunks 000000018004f954 f   libucrt:winapi_thunks.obj
 0001:0004e988       __acrt_uninitialize_winapi_thunks 000000018004f988 f   libucrt:winapi_thunks.obj
 0001:0004e9cc       _fcloseall                 000000018004f9cc f   libucrt:closeall.obj
 0001:0004ef50       _ftelli64                  000000018004ff50 f   libucrt:ftell.obj
 0001:0004ef58       _ftelli64_nolock           000000018004ff58 f   libucrt:ftell.obj
 0001:0004ef60       __acrt_stdio_allocate_buffer_nolock 000000018004ff60 f   libucrt:_getbuf.obj
 0001:0004f534       _read                      0000000180050534 f   libucrt:read.obj
 0001:0004f650       _read_nolock               0000000180050650 f   libucrt:read.obj
 0001:0004fc34       _lseeki64                  0000000180050c34 f   libucrt:lseek.obj
 0001:0004fc3c       _lseeki64_nolock           0000000180050c3c f   libucrt:lseek.obj
 0001:0004fc44       __acrt_SetEnvironmentVariableA 0000000180050c44 f   libucrt:setenvironmentvariablea.obj
 0001:0004fddc       __acrt_SetCurrentDirectoryA 0000000180050ddc f   libucrt:setcurrentdirectorya.obj
 0001:0004feac       __acrt_WideCharToMultiByte 0000000180050eac f   libucrt:widechartomultibyte.obj
 0001:000500d8       __acrt_GetLocaleInfoA      00000001800510d8 f   libucrt:getlocaleinfoa.obj
 0001:000502a0       __acrt_GetStringTypeA      00000001800512a0 f   libucrt:getstringtypea.obj
 0001:00050748       __acrt_LCMapStringA        0000000180051748 f   libucrt:lcmapstringa.obj
 0001:000509e0       _mbstowcs_s_l              00000001800519e0 f   libucrt:mbstowcs.obj
 0001:00050b14       mbstowcs_s                 0000000180051b14 f   libucrt:mbstowcs.obj
 0001:00050e90       _wcstombs_s_l              0000000180051e90 f   libucrt:wcstombs.obj
 0001:00050f78       wcscpy_s                   0000000180051f78 f   libucrt:wcscpy_s.obj
 0001:00051028       __acrt_get_sigabrt_handler 0000000180052028 f   libucrt:signal.obj
 0001:00051058       __acrt_initialize_signal_handlers 0000000180052058 f   libucrt:signal.obj
 0001:00051078       raise                      0000000180052078 f   libucrt:signal.obj
 0001:000512e4       ??$__acrt_stdio_parse_mode@D@@YA?AU__acrt_stdio_stream_mode@@QEBD@Z 00000001800522e4 f i libucrt:openfile.obj
 0001:000515a8       _openfile                  00000001800525a8 f   libucrt:openfile.obj
 0001:00051650       __acrt_initialize_fma3     0000000180052650 f   libucrt:fma3_available.obj
 0001:000516c0       _pow_special               00000001800526c0 f   libucrt:pow_special.obj
 0001:000517e4       _powf_special              00000001800527e4 f   libucrt:pow_special.obj
 0001:00051970       __acrt_MultiByteToWideChar 0000000180052970 f   libucrt:multibytetowidechar.obj
 0001:000519cc       __ascii_wcsicmp            00000001800529cc f   libucrt:wcsicmp.obj
 0001:00051a0c       _wcsicmp                   0000000180052a0c f   libucrt:wcsicmp.obj
 0001:00051a54       _wcsicmp_l                 0000000180052a54 f   libucrt:wcsicmp.obj
 0001:00051b7c       __acrt_initialize_timeset  0000000180052b7c f   libucrt:timeset.obj
 0001:00051bcc       _isleadbyte_l              0000000180052bcc f i libucrt:_wctype.obj
 0001:00051c18       __acrt_get_process_end_policy 0000000180052c18 f   libucrt:win_policies.obj
 0001:0005230c       __acrt_expand_narrow_argv_wildcards 000000018005330c f   libucrt:argv_wildcards.obj
 0001:00052314       __acrt_GetModuleFileNameA  0000000180053314 f   libucrt:getmodulefilenamea.obj
 0001:00052b5c       __acrt_initialize_multibyte 0000000180053b5c f   libucrt:mbctype.obj
 0001:00052bbc       __acrt_update_thread_multibyte_data 0000000180053bbc f   libucrt:mbctype.obj
 0001:00052bd8       _setmbcp_nolock            0000000180053bd8 f   libucrt:mbctype.obj
 0001:00052f0c       _ismbblead                 0000000180053f0c f   libucrt:ismbbyte.obj
 0001:00052f20       __acrt_initialize_command_line 0000000180053f20 f   libucrt:argv_data.obj
 0001:00052f48       __dcrt_get_narrow_environment_from_os 0000000180053f48 f   libucrt:get_environment_from_os.obj
 0001:0005304c       _recalloc_base             000000018005404c f   libucrt:recalloc.obj
 0001:000530e4       __acrt_initialize_heap     00000001800540e4 f   libucrt:heap_handle.obj
 0001:00053100       __acrt_uninitialize_heap   0000000180054100 f   libucrt:heap_handle.obj
 0001:0005310c       __acrt_execute_initializers 000000018005410c f   libucrt:shared_initialization.obj
 0001:0005318c       __acrt_execute_uninitializers 000000018005418c f   libucrt:shared_initialization.obj
 0001:000531c8       __acrt_has_user_matherr    00000001800541c8 f   libucrt:matherr.obj
 0001:000531e8       __acrt_initialize_user_matherr 00000001800541e8 f   libucrt:matherr.obj
 0001:000531f0       __acrt_invoke_user_matherr 00000001800541f0 f   libucrt:matherr.obj
 0001:00053220       _query_new_mode            0000000180054220 f   libucrt:new_mode.obj
 0001:00053228       ?__mbrtowc_utf8@__crt_mbstring@@YA_KPEA_WPEBD_KPEAU_Mbstatet@@@Z 0000000180054228 f   libucrt:mbrtowc.obj
 0001:00053264       ?__mbsrtowcs_utf8@__crt_mbstring@@YA_KPEA_WPEAPEBD_KPEAU_Mbstatet@@@Z 0000000180054264 f   libucrt:mbrtowc.obj
 0001:000533dc       ?__c32rtomb_utf8@__crt_mbstring@@YA_KPEAD_UPEAU_Mbstatet@@@Z 00000001800543dc f   libucrt:c32rtomb.obj
 0001:00053490       c32rtomb                   0000000180054490 f   libucrt:c32rtomb.obj
 0001:00053498       __acrt_add_locale_ref      0000000180054498 f   libucrt:locale_refcounting.obj
 0001:00053524       __acrt_free_locale         0000000180054524 f   libucrt:locale_refcounting.obj
 0001:0005369c       __acrt_locale_add_lc_time_reference 000000018005469c f   libucrt:locale_refcounting.obj
 0001:000536c4       __acrt_locale_free_lc_time_if_unreferenced 00000001800546c4 f   libucrt:locale_refcounting.obj
 0001:000536fc       __acrt_locale_release_lc_time_reference 00000001800546fc f   libucrt:locale_refcounting.obj
 0001:00053724       __acrt_release_locale_ref  0000000180054724 f   libucrt:locale_refcounting.obj
 0001:000537cc       __acrt_update_thread_locale_data 00000001800547cc f   libucrt:locale_refcounting.obj
 0001:0005383c       _updatetlocinfoEx_nolock   000000018005483c f   libucrt:locale_refcounting.obj
 0001:000538a4       __acrt_fp_strflt_to_string 00000001800548a4 f   libucrt:_fptostr.obj
 0001:00053a00       __acrt_fltout              0000000180054a00 f   libucrt:cfout.obj
 0001:00054c44       _isatty                    0000000180055c44 f   libucrt:isatty.obj
 0001:00054ca4       __acrt_locale_free_monetary 0000000180055ca4 f   libucrt:initmon.obj
 0001:00054db0       __acrt_locale_initialize_monetary 0000000180055db0 f   libucrt:initmon.obj
 0001:000552e4       __acrt_locale_free_numeric 00000001800562e4 f   libucrt:initnum.obj
 0001:00055350       __acrt_locale_initialize_numeric 0000000180056350 f   libucrt:initnum.obj
 0001:000559d0       __acrt_locale_free_time    00000001800569d0 f   libucrt:inittime.obj
 0001:00055ad8       __acrt_locale_initialize_time 0000000180056ad8 f   libucrt:inittime.obj
 0001:00055b74       wcscat_s                   0000000180056b74 f   libucrt:wcscat_s.obj
 0001:00055bf4       wcsncat_s                  0000000180056bf4 f   libucrt:wcsncat_s.obj
 0001:00055cf4       wcsncpy_s                  0000000180056cf4 f   libucrt:wcsncpy_s.obj
 0001:00055dd8       wcscspn                    0000000180056dd8 f   libucrt:wcscspn.obj
 0001:00055e18       wcspbrk                    0000000180056e18 f   libucrt:wcspbrk.obj
 0001:00056600       __acrt_get_qualified_locale 0000000180057600 f   libucrt:get_qualified_locale.obj
 0001:00057034       __acrt_get_qualified_locale_downlevel 0000000180058034 f   libucrt:getqloc_downlevel.obj
 0001:000572b4       __acrt_lowio_create_handle_array 00000001800582b4 f   libucrt:osfinfo.obj
 0001:0005735c       __acrt_lowio_destroy_handle_array 000000018005835c f   libucrt:osfinfo.obj
 0001:000573ac       __acrt_lowio_ensure_fh_exists 00000001800583ac f   libucrt:osfinfo.obj
 0001:00057454       __acrt_lowio_lock_fh       0000000180058454 f   libucrt:osfinfo.obj
 0001:0005747c       __acrt_lowio_set_os_handle 000000018005847c f   libucrt:osfinfo.obj
 0001:0005753c       __acrt_lowio_unlock_fh     000000018005853c f   libucrt:osfinfo.obj
 0001:00057564       _alloc_osfhnd              0000000180058564 f   libucrt:osfinfo.obj
 0001:000576a4       _free_osfhnd               00000001800586a4 f   libucrt:osfinfo.obj
 0001:00057760       _get_osfhandle             0000000180058760 f   libucrt:osfinfo.obj
 0001:000577d8       __acrt_GetStringTypeW      00000001800587d8 f   libucrt:getstringtypew.obj
 0001:000577f0       _get_fpsr                  00000001800587f0 f   libucrt:fpsr.obj
 0001:00057800       _set_fpsr                  0000000180058800 f   libucrt:fpsr.obj
 0001:0005780a       _fclrf                     000000018005880a f   libucrt:fpsr.obj
 0001:0005781e       _frnd                      000000018005881e f   libucrt:fpsr.obj
 0001:00057840       __acrt_fenv_get_common_round_control 0000000180058840 f   libucrt:_fenvutils.obj
 0001:0005784c       __acrt_fenv_get_control    000000018005884c f   libucrt:_fenvutils.obj
 0001:00057940       __acrt_fenv_get_status     0000000180058940 f   libucrt:_fenvutils.obj
 0001:00057994       __acrt_fenv_set_control    0000000180058994 f   libucrt:_fenvutils.obj
 0001:00057adc       __acrt_fenv_set_status     0000000180058adc f   libucrt:_fenvutils.obj
 0001:00057b60       _putwch_nolock             0000000180058b60 f   libucrt:putwch.obj
 0001:00057b9c       __acrt_DownlevelLCIDToLocaleName 0000000180058b9c f   libucrt:lcidtoname_downlevel.obj
 0001:00057c90       __acrt_DownlevelLocaleNameToLCID 0000000180058c90 f   libucrt:lcidtoname_downlevel.obj
 0001:00057d40       strncpy_s                  0000000180058d40 f   libucrt:strncpy_s.obj
 0001:00057e14       ?__wcsrtombs_utf8@__crt_mbstring@@YA_KPEADPEAPEB_W_KPEAU_Mbstatet@@@Z 0000000180058e14 f   libucrt:wcrtomb.obj
 0001:00057f30       __ascii_wcsnicmp           0000000180058f30 f   libucrt:wcsnicmp.obj
 0001:00057f7c       _wcsnicmp                  0000000180058f7c f   libucrt:wcsnicmp.obj
 0001:00057fc4       _wcsnicmp_l                0000000180058fc4 f   libucrt:wcsnicmp.obj
 0001:00058114       __ascii_strnicmp           0000000180059114 f   libucrt:strnicmp.obj
 0001:00058160       _strnicmp                  0000000180059160 f   libucrt:strnicmp.obj
 0001:000581b0       _strnicmp_l                00000001800591b0 f   libucrt:strnicmp.obj
 0001:00058888       _sopen_nolock              0000000180059888 f   libucrt:open.obj
 0001:000589a0       _sopen_s                   00000001800599a0 f   libucrt:open.obj
 0001:000589d4       _wsopen_nolock             00000001800599d4 f   libucrt:open.obj
 0001:00058ee0       _handle_error              0000000180059ee0 f   libucrt:libm_error.obj
 0001:00059008       _handle_errorf             000000018005a008 f   libucrt:libm_error.obj
 0001:0005913c       _handle_nan                000000018005a13c f   libucrt:libm_error.obj
 0001:00059158       _handle_nanf               000000018005a158 f   libucrt:libm_error.obj
 0001:00059168       _towlower_l                000000018005a168 f   libucrt:towlower.obj
 0001:00059230       qsort                      000000018005a230 f   libucrt:qsort.obj
 0001:00059670       strpbrk                    000000018005a670 f   libucrt:strpbrk.obj
 0001:00059a38       _mbsdec                    000000018005aa38 f   libucrt:mbsdec.obj
 0001:00059a40       _mbsdec_l                  000000018005aa40 f   libucrt:mbsdec.obj
 0001:00059aec       _msize_base                000000018005aaec f   libucrt:msize.obj
 0001:00059b28       ?__mbrtoc32_utf8@__crt_mbstring@@YA_KPEA_UPEBD_KPEAU_Mbstatet@@@Z 000000018005ab28 f   libucrt:mbrtoc32.obj
 0001:00059d00       _controlfp_s               000000018005ad00 f   libucrt:contrlfp.obj
 0001:00059d64       fegetenv                   000000018005ad64 f   libucrt:fegetenv.obj
 0001:00059d84       fesetenv                   000000018005ad84 f   libucrt:fesetenv.obj
 0001:00059dd0       feholdexcept               000000018005add0 f   libucrt:feholdexcept.obj
 0001:00059e20       ceil                       000000018005ae20 f   libucrt:ceil.obj
 0001:00059ef0       log10                      000000018005aef0 f   libucrt:log10.obj
 0001:0005a5dc       _itow_s                    000000018005b5dc f   libucrt:xtoa.obj
 0001:0005a5fc       wcscmp                     000000018005b5fc f   libucrt:wcscmp.obj
 0001:0005a634       _query_app_type            000000018005b634 f   libucrt:report_runtime_error.obj
 0001:0005a63c       __dcrt_lowio_ensure_console_output_initialized 000000018005b63c f   libucrt:initcon.obj
 0001:0005a690       __dcrt_terminate_console_output 000000018005b690 f   libucrt:initcon.obj
 0001:0005a6ac       __dcrt_write_console       000000018005b6ac f   libucrt:initcon.obj
 0001:0005a76c       ?__c16rtomb_utf8@__crt_mbstring@@YA_KPEAD_SPEAU_Mbstatet@@@Z 000000018005b76c f   libucrt:c16rtomb.obj
 0001:0005a810       _get_fmode                 000000018005b810 f   libucrt:setmode.obj
 0001:0005a840       _setmode_nolock            000000018005b840 f   libucrt:setmode.obj
 0001:0005a920       _chsize_nolock             000000018005b920 f   libucrt:chsize.obj
 0001:0005aa8c       __acrt_LCMapStringW        000000018005ba8c f   libucrt:lcmapstringw.obj
 0001:0005ab14       _clearfp                   000000018005bb14 f   libucrt:ieee.obj
 0001:0005ab84       _control87                 000000018005bb84 f   libucrt:ieee.obj
 0001:0005ae50       _log10_special             000000018005be50 f   libucrt:log_special.obj
 0001:0005ae70       _log_special               000000018005be70 f   libucrt:log_special.obj
 0001:0005af28       __acrt_initialize_fmode    000000018005bf28 f   libucrt:txtmode.obj
 0001:0005af50       _FindPESection             000000018005bf50 f   LIBCMT:pesect.obj
 0001:0005afa0       _IsNonwritableInCurrentImage 000000018005bfa0 f   LIBCMT:pesect.obj
 0001:0005aff0       _ValidateImageBase         000000018005bff0 f   LIBCMT:pesect.obj
 0001:0005b020       __GSHandlerCheck_SEH       000000018005c020 f   LIBCMT:gshandlerseh.obj
 0001:0005b0a8       __GSHandlerCheck_EH        000000018005c0a8 f   LIBCMT:gshandlereh.obj
 0001:0005b128       _local_unwind              000000018005c128 f   libvcruntime:jmpuwind.obj
 0001:0005b154       strrchr                    000000018005c154 f   libvcruntime:strrchr.obj
 0001:0005b280       wcschr                     000000018005c280 f   libvcruntime:wcschr.obj
 0001:0005b300       exp                        000000018005c300 f   libucrt:exp.obj
 0001:0005b6f8       floor                      000000018005c6f8 f   libucrt:floor.obj
 0001:0005b7b0       log                        000000018005c7b0 f   libucrt:log.obj
 0001:0005bcf0       strcmp                     000000018005ccf0 f   libucrt:strcmp.obj
 0001:0005bd58       _exp_special               000000018005cd58 f   libucrt:exp_special.obj
 0001:0005be00       _guard_dispatch_icall_nop  000000018005ce00 f   LIBCMT:guard_dispatch.obj
 0001:0005be20       _guard_xfg_dispatch_icall_nop 000000018005ce20 f   LIBCMT:guard_xfg_dispatch.obj
 0002:00000000       __imp_WritePrivateProfileStringW 0000000180061000     kernel32:KERNEL32.dll
 0002:00000008       __imp_GetPrivateProfileIntW 0000000180061008     kernel32:KERNEL32.dll
 0002:00000010       __imp_FindFirstFileW       0000000180061010     kernel32:KERNEL32.dll
 0002:00000018       __imp_FindNextFileW        0000000180061018     kernel32:KERNEL32.dll
 0002:00000020       __imp_GetModuleFileNameW   0000000180061020     kernel32:KERNEL32.dll
 0002:00000028       __imp_FindClose            0000000180061028     kernel32:KERNEL32.dll
 0002:00000030       __imp_GetModuleHandleExA   0000000180061030     kernel32:KERNEL32.dll
 0002:00000038       __imp_GetLastError         0000000180061038     kernel32:KERNEL32.dll
 0002:00000040       __imp_LoadLibraryW         0000000180061040     kernel32:KERNEL32.dll
 0002:00000048       __imp_GetProcAddress       0000000180061048     kernel32:KERNEL32.dll
 0002:00000050       __imp_FreeLibrary          0000000180061050     kernel32:KERNEL32.dll
 0002:00000058       __imp_OutputDebugStringW   0000000180061058     kernel32:KERNEL32.dll
 0002:00000060       __imp_MultiByteToWideChar  0000000180061060     kernel32:KERNEL32.dll
 0002:00000068       __imp_WideCharToMultiByte  0000000180061068     kernel32:KERNEL32.dll
 0002:00000070       __imp_SetEndOfFile         0000000180061070     kernel32:KERNEL32.dll
 0002:00000078       __imp_WriteConsoleW        0000000180061078     kernel32:KERNEL32.dll
 0002:00000080       __imp_HeapSize             0000000180061080     kernel32:KERNEL32.dll
 0002:00000088       __imp_CreateFileW          0000000180061088     kernel32:KERNEL32.dll
 0002:00000090       __imp_SetStdHandle         0000000180061090     kernel32:KERNEL32.dll
 0002:00000098       __imp_GetProcessHeap       0000000180061098     kernel32:KERNEL32.dll
 0002:000000a0       __imp_FreeEnvironmentStringsW 00000001800610a0     kernel32:KERNEL32.dll
 0002:000000a8       __imp_InitializeSRWLock    00000001800610a8     kernel32:KERNEL32.dll
 0002:000000b0       __imp_ReleaseSRWLockExclusive 00000001800610b0     kernel32:KERNEL32.dll
 0002:000000b8       __imp_AcquireSRWLockExclusive 00000001800610b8     kernel32:KERNEL32.dll
 0002:000000c0       __imp_EnterCriticalSection 00000001800610c0     kernel32:KERNEL32.dll
 0002:000000c8       __imp_LeaveCriticalSection 00000001800610c8     kernel32:KERNEL32.dll
 0002:000000d0       __imp_InitializeCriticalSectionEx 00000001800610d0     kernel32:KERNEL32.dll
 0002:000000d8       __imp_TryEnterCriticalSection 00000001800610d8     kernel32:KERNEL32.dll
 0002:000000e0       __imp_DeleteCriticalSection 00000001800610e0     kernel32:KERNEL32.dll
 0002:000000e8       __imp_GetCurrentThreadId   00000001800610e8     kernel32:KERNEL32.dll
 0002:000000f0       __imp_QueryPerformanceCounter 00000001800610f0     kernel32:KERNEL32.dll
 0002:000000f8       __imp_QueryPerformanceFrequency 00000001800610f8     kernel32:KERNEL32.dll
 0002:00000100       __imp_LCMapStringEx        0000000180061100     kernel32:KERNEL32.dll
 0002:00000108       __imp_EncodePointer        0000000180061108     kernel32:KERNEL32.dll
 0002:00000110       __imp_DecodePointer        0000000180061110     kernel32:KERNEL32.dll
 0002:00000118       __imp_CompareStringEx      0000000180061118     kernel32:KERNEL32.dll
 0002:00000120       __imp_GetCPInfo            0000000180061120     kernel32:KERNEL32.dll
 0002:00000128       __imp_GetSystemTimeAsFileTime 0000000180061128     kernel32:KERNEL32.dll
 0002:00000130       __imp_GetModuleHandleW     0000000180061130     kernel32:KERNEL32.dll
 0002:00000138       __imp_GetStringTypeW       0000000180061138     kernel32:KERNEL32.dll
 0002:00000140       __imp_RtlCaptureContext    0000000180061140     kernel32:KERNEL32.dll
 0002:00000148       __imp_RtlLookupFunctionEntry 0000000180061148     kernel32:KERNEL32.dll
 0002:00000150       __imp_RtlVirtualUnwind     0000000180061150     kernel32:KERNEL32.dll
 0002:00000158       __imp_UnhandledExceptionFilter 0000000180061158     kernel32:KERNEL32.dll
 0002:00000160       __imp_SetUnhandledExceptionFilter 0000000180061160     kernel32:KERNEL32.dll
 0002:00000168       __imp_GetCurrentProcess    0000000180061168     kernel32:KERNEL32.dll
 0002:00000170       __imp_TerminateProcess     0000000180061170     kernel32:KERNEL32.dll
 0002:00000178       __imp_IsProcessorFeaturePresent 0000000180061178     kernel32:KERNEL32.dll
 0002:00000180       __imp_IsDebuggerPresent    0000000180061180     kernel32:KERNEL32.dll
 0002:00000188       __imp_GetStartupInfoW      0000000180061188     kernel32:KERNEL32.dll
 0002:00000190       __imp_GetCurrentProcessId  0000000180061190     kernel32:KERNEL32.dll
 0002:00000198       __imp_InitializeSListHead  0000000180061198     kernel32:KERNEL32.dll
 0002:000001a0       __imp_RtlUnwindEx          00000001800611a0     kernel32:KERNEL32.dll
 0002:000001a8       __imp_RtlPcToFileHeader    00000001800611a8     kernel32:KERNEL32.dll
 0002:000001b0       __imp_RaiseException       00000001800611b0     kernel32:KERNEL32.dll
 0002:000001b8       __imp_InterlockedFlushSList 00000001800611b8     kernel32:KERNEL32.dll
 0002:000001c0       __imp_SetLastError         00000001800611c0     kernel32:KERNEL32.dll
 0002:000001c8       __imp_InitializeCriticalSectionAndSpinCount 00000001800611c8     kernel32:KERNEL32.dll
 0002:000001d0       __imp_TlsAlloc             00000001800611d0     kernel32:KERNEL32.dll
 0002:000001d8       __imp_TlsGetValue          00000001800611d8     kernel32:KERNEL32.dll
 0002:000001e0       __imp_TlsSetValue          00000001800611e0     kernel32:KERNEL32.dll
 0002:000001e8       __imp_TlsFree              00000001800611e8     kernel32:KERNEL32.dll
 0002:000001f0       __imp_LoadLibraryExW       00000001800611f0     kernel32:KERNEL32.dll
 0002:000001f8       __imp_SetEnvironmentVariableW 00000001800611f8     kernel32:KERNEL32.dll
 0002:00000200       __imp_SetCurrentDirectoryW 0000000180061200     kernel32:KERNEL32.dll
 0002:00000208       __imp_GetCurrentDirectoryW 0000000180061208     kernel32:KERNEL32.dll
 0002:00000210       __imp_ExitProcess          0000000180061210     kernel32:KERNEL32.dll
 0002:00000218       __imp_GetModuleHandleExW   0000000180061218     kernel32:KERNEL32.dll
 0002:00000220       __imp_HeapAlloc            0000000180061220     kernel32:KERNEL32.dll
 0002:00000228       __imp_HeapReAlloc          0000000180061228     kernel32:KERNEL32.dll
 0002:00000230       __imp_HeapFree             0000000180061230     kernel32:KERNEL32.dll
 0002:00000238       __imp_GetStdHandle         0000000180061238     kernel32:KERNEL32.dll
 0002:00000240       __imp_GetFileType          0000000180061240     kernel32:KERNEL32.dll
 0002:00000248       __imp_GetFileSizeEx        0000000180061248     kernel32:KERNEL32.dll
 0002:00000250       __imp_SetFilePointerEx     0000000180061250     kernel32:KERNEL32.dll
 0002:00000258       __imp_FlushFileBuffers     0000000180061258     kernel32:KERNEL32.dll
 0002:00000260       __imp_WriteFile            0000000180061260     kernel32:KERNEL32.dll
 0002:00000268       __imp_GetConsoleOutputCP   0000000180061268     kernel32:KERNEL32.dll
 0002:00000270       __imp_GetConsoleMode       0000000180061270     kernel32:KERNEL32.dll
 0002:00000278       __imp_CloseHandle          0000000180061278     kernel32:KERNEL32.dll
 0002:00000280       __imp_LCMapStringW         0000000180061280     kernel32:KERNEL32.dll
 0002:00000288       __imp_GetLocaleInfoW       0000000180061288     kernel32:KERNEL32.dll
 0002:00000290       __imp_IsValidLocale        0000000180061290     kernel32:KERNEL32.dll
 0002:00000298       __imp_GetUserDefaultLCID   0000000180061298     kernel32:KERNEL32.dll
 0002:000002a0       __imp_EnumSystemLocalesW   00000001800612a0     kernel32:KERNEL32.dll
 0002:000002a8       __imp_ReadFile             00000001800612a8     kernel32:KERNEL32.dll
 0002:000002b0       __imp_ReadConsoleW         00000001800612b0     kernel32:KERNEL32.dll
 0002:000002b8       __imp_FindFirstFileExW     00000001800612b8     kernel32:KERNEL32.dll
 0002:000002c0       __imp_IsValidCodePage      00000001800612c0     kernel32:KERNEL32.dll
 0002:000002c8       __imp_GetACP               00000001800612c8     kernel32:KERNEL32.dll
 0002:000002d0       __imp_GetOEMCP             00000001800612d0     kernel32:KERNEL32.dll
 0002:000002d8       __imp_GetCommandLineA      00000001800612d8     kernel32:KERNEL32.dll
 0002:000002e0       __imp_GetCommandLineW      00000001800612e0     kernel32:KERNEL32.dll
 0002:000002e8       __imp_GetEnvironmentStringsW 00000001800612e8     kernel32:KERNEL32.dll
 0002:000002f0       __imp_RtlUnwind            00000001800612f0     kernel32:KERNEL32.dll
 0002:000002f8       \177KERNEL32_NULL_THUNK_DATA 00000001800612f8     kernel32:KERNEL32.dll
 0002:00000300       __imp_SetDlgItemTextW      0000000180061300     user32:USER32.dll
 0002:00000308       __imp_GetDlgItem           0000000180061308     user32:USER32.dll
 0002:00000310       __imp_SetForegroundWindow  0000000180061310     user32:USER32.dll
 0002:00000318       __imp_ShowWindow           0000000180061318     user32:USER32.dll
 0002:00000320       __imp_CreateDialogParamW   0000000180061320     user32:USER32.dll
 0002:00000328       \177USER32_NULL_THUNK_DATA 0000000180061328     user32:USER32.dll
 0002:00000330       __guard_check_icall_fptr   0000000180061330     LIBCMT:guard_support.obj
 0002:00000338       __guard_xfg_check_icall_fptr 0000000180061338     LIBCMT:guard_support.obj
 0002:00000340       __guard_dispatch_icall_fptr 0000000180061340     LIBCMT:guard_support.obj
 0002:00000348       __guard_xfg_dispatch_icall_fptr 0000000180061348     LIBCMT:guard_support.obj
 0002:00000350       __guard_xfg_table_dispatch_icall_fptr 0000000180061350     LIBCMT:guard_support.obj
 0002:00000358       __xc_a                     0000000180061358     LIBCMT:initializers.obj
 0002:000003a0       __xc_z                     00000001800613a0     LIBCMT:initializers.obj
 0002:000003a8       __xi_a                     00000001800613a8     LIBCMT:initializers.obj
 0002:000003b8       __acrt_stdio_initializer   00000001800613b8     libucrt:stdio_initializer.obj
 0002:000003c0       __acrt_tran_fma3_initializer 00000001800613c0     libucrt:fma3_initializer.obj
 0002:000003c8       __acrt_timeset_initializer 00000001800613c8     libucrt:timeset_initializer.obj
 0002:000003d0       __acrt_multibyte_initializer 00000001800613d0     libucrt:multibyte_initializer.obj
 0002:000003d8       __acrt_fmode_initializer   00000001800613d8     libucrt:fmode_initializer.obj
 0002:000003e0       __xi_z                     00000001800613e0     LIBCMT:initializers.obj
 0002:000003e8       __xp_a                     00000001800613e8     LIBCMT:initializers.obj
 0002:000003f0       __acrt_locale_terminator   00000001800613f0     libucrt:locale_initializer.obj
 0002:000003f8       __dcrt_console_output_terminator 00000001800613f8     libucrt:console_output_initializer.obj
 0002:00000400       __acrt_stdio_terminator    0000000180061400     libucrt:stdio_initializer.obj
 0002:00000408       __xp_z                     0000000180061408     LIBCMT:initializers.obj
 0002:00000410       __xt_a                     0000000180061410     LIBCMT:initializers.obj
 0002:00000418       __xt_z                     0000000180061418     LIBCMT:initializers.obj
 0002:00000428       ??_7exception@std@@6B@     0000000180061428     libcpmt:xthrow.obj
 0002:00000440       ??_7bad_alloc@std@@6B@     0000000180061440     libcpmt:xthrow.obj
 0002:00000450       ??_C@_0P@GHFPNOJB@bad?5allocation@ 0000000180061450     libcpmt:xthrow.obj
 0002:00000468       ??_7bad_function_call@std@@6B@ 0000000180061468     libcpmt:xthrow.obj
 0002:00000478       ??_C@_0BC@DPJNKNAF@bad?5function?5call@ 0000000180061478     libcpmt:xthrow.obj
 0002:00000498       ??_7logic_error@std@@6B@   0000000180061498     libcpmt:xthrow.obj
 0002:000004b0       ??_7length_error@std@@6B@  00000001800614b0     libcpmt:xthrow.obj
 0002:000004c8       ??_7out_of_range@std@@6B@  00000001800614c8     libcpmt:xthrow.obj
 0002:000004e0       ??_7runtime_error@std@@6B@ 00000001800614e0     libcpmt:xthrow.obj
 0002:000004f8       ??_7regex_error@std@@6B@   00000001800614f8     libcpmt:xthrow.obj
 0002:00000510       ??_C@_0FI@CMNGHIFF@regex_error?$CIerror_collate?$CJ?3?5The@ 0000000180061510     libcpmt:xthrow.obj
 0002:00000570       ??_C@_0FE@LJMHKIOC@regex_error?$CIerror_ctype?$CJ?3?5The?5e@ 0000000180061570     libcpmt:xthrow.obj
 0002:000005d0       ??_C@_0GI@HEGGMMDL@regex_error?$CIerror_escape?$CJ?3?5The?5@ 00000001800615d0     libcpmt:xthrow.obj
 0002:00000640       ??_C@_0FA@HFMLPGNN@regex_error?$CIerror_backref?$CJ?3?5The@ 0000000180061640     libcpmt:xthrow.obj
 0002:00000690       ??_C@_0EH@LGEANNAL@regex_error?$CIerror_brack?$CJ?3?5The?5e@ 0000000180061690     libcpmt:xthrow.obj
 0002:000006e0       ??_C@_0EH@CAGOJGLE@regex_error?$CIerror_paren?$CJ?3?5The?5e@ 00000001800616e0     libcpmt:xthrow.obj
 0002:00000730       ??_C@_0EH@DICJJKLO@regex_error?$CIerror_brace?$CJ?3?5The?5e@ 0000000180061730     libcpmt:xthrow.obj
 0002:00000780       ??_C@_0FM@BLDIHIBB@regex_error?$CIerror_badbrace?$CJ?3?5Th@ 0000000180061780     libcpmt:xthrow.obj
 0002:000007e0       ??_C@_0HA@ICNJLCMC@regex_error?$CIerror_range?$CJ?3?5The?5e@ 00000001800617e0     libcpmt:xthrow.obj
 0002:00000850       ??_C@_0GP@PICOBCHA@regex_error?$CIerror_space?$CJ?3?5There@ 0000000180061850     libcpmt:xthrow.obj
 0002:000008c0       ??_C@_0FK@LCHHHEOA@regex_error?$CIerror_badrepeat?$CJ?3?5O@ 00000001800618c0     libcpmt:xthrow.obj
 0002:00000920       ??_C@_0HL@NEKOFBJA@regex_error?$CIerror_complexity?$CJ?3?5@ 0000000180061920     libcpmt:xthrow.obj
 0002:000009a0       ??_C@_0JC@HCDLJLGO@regex_error?$CIerror_stack?$CJ?3?5There@ 00000001800619a0     libcpmt:xthrow.obj
 0002:00000a38       ??_C@_0BJ@CHBLKGNM@regex_error?$CIerror_parse?$CJ@ 0000000180061a38     libcpmt:xthrow.obj
 0002:00000a58       ??_C@_0BK@DFJCACNI@regex_error?$CIerror_syntax?$CJ@ 0000000180061a58     libcpmt:xthrow.obj
 0002:00000a78       ??_C@_0M@KGKAAGCA@regex_error@ 0000000180061a78     libcpmt:xthrow.obj
 0002:00000a90       ??_7_Facet_base@std@@6B@   0000000180061a90     libcpmt:locale0.obj
 0002:00000ab0       ??_7_Locimp@locale@std@@6B@ 0000000180061ab0     libcpmt:locale0.obj
 0002:00000ac8       ??_C@_01NBENCBCI@?$CK@     0000000180061ac8     libcpmt:locale0.obj
 0002:00001230       ??_C@_0BN@LKKBCCDB@address?5family?5not?5supported@ 0000000180062230     libcpmt:syserror.obj
 0002:00001250       ??_C@_0P@LDMLAFHI@address?5in?5use@ 0000000180062250     libcpmt:syserror.obj
 0002:00001260       ??_C@_0BG@DHPCNBJB@address?5not?5available@ 0000000180062260     libcpmt:syserror.obj
 0002:00001278       ??_C@_0BC@DFIBIBIL@already?5connected@ 0000000180062278     libcpmt:syserror.obj
 0002:00001290       ??_C@_0BH@CAKOHOMI@argument?5list?5too?5long@ 0000000180062290     libcpmt:syserror.obj
 0002:000012a8       ??_C@_0BH@CGIMPKIM@argument?5out?5of?5domain@ 00000001800622a8     libcpmt:syserror.obj
 0002:000012c0       ??_C@_0M@KGHGGJGL@bad?5address@ 00000001800622c0     libcpmt:syserror.obj
 0002:000012d0       ??_C@_0BE@MPJPGCEO@bad?5file?5descriptor@ 00000001800622d0     libcpmt:syserror.obj
 0002:000012e8       ??_C@_0M@PMMIEFCP@bad?5message@ 00000001800622e8     libcpmt:syserror.obj
 0002:000012f8       ??_C@_0M@KPHOFDBE@broken?5pipe@ 00000001800622f8     libcpmt:syserror.obj
 0002:00001308       ??_C@_0BD@MGNDDEGM@connection?5aborted@ 0000000180062308     libcpmt:syserror.obj
 0002:00001320       ??_C@_0BP@KAIHPOGN@connection?5already?5in?5progress@ 0000000180062320     libcpmt:syserror.obj
 0002:00001340       ??_C@_0BD@PJLIIJEL@connection?5refused@ 0000000180062340     libcpmt:syserror.obj
 0002:00001358       ??_C@_0BB@IECNJNOI@connection?5reset@ 0000000180062358     libcpmt:syserror.obj
 0002:00001370       ??_C@_0BC@PPHBOELF@cross?5device?5link@ 0000000180062370     libcpmt:syserror.obj
 0002:00001388       ??_C@_0BN@KDMIFEIP@destination?5address?5required@ 0000000180062388     libcpmt:syserror.obj
 0002:000013a8       ??_C@_0BI@NGCEHDD@device?5or?5resource?5busy@ 00000001800623a8     libcpmt:syserror.obj
 0002:000013c0       ??_C@_0BE@JIDOCPHM@directory?5not?5empty@ 00000001800623c0     libcpmt:syserror.obj
 0002:000013d8       ??_C@_0BI@BNCLIGPB@executable?5format?5error@ 00000001800623d8     libcpmt:syserror.obj
 0002:000013f0       ??_C@_0M@MIDIAGJP@file?5exists@ 00000001800623f0     libcpmt:syserror.obj
 0002:00001400       ??_C@_0P@DNAJLBJK@file?5too?5large@ 0000000180062400     libcpmt:syserror.obj
 0002:00001410       ??_C@_0BC@EJHOMAAK@filename?5too?5long@ 0000000180062410     libcpmt:syserror.obj
 0002:00001428       ??_C@_0BH@KEFGLDAF@function?5not?5supported@ 0000000180062428     libcpmt:syserror.obj
 0002:00001440       ??_C@_0BB@DHFDFGDM@host?5unreachable@ 0000000180062440     libcpmt:syserror.obj
 0002:00001458       ??_C@_0BD@JPHBMONG@identifier?5removed@ 0000000180062458     libcpmt:syserror.obj
 0002:00001470       ??_C@_0BG@CDNPAGJK@illegal?5byte?5sequence@ 0000000180062470     libcpmt:syserror.obj
 0002:00001488       ??_C@_0CD@BNPLBMNA@inappropriate?5io?5control?5operat@ 0000000180062488     libcpmt:syserror.obj
 0002:000014b0       ??_C@_0M@EGEKIIMP@interrupted@ 00000001800624b0     libcpmt:syserror.obj
 0002:000014c0       ??_C@_0BB@FCMFBGOM@invalid?5argument@ 00000001800624c0     libcpmt:syserror.obj
 0002:000014d8       ??_C@_0N@OHAFKDEK@invalid?5seek@ 00000001800624d8     libcpmt:syserror.obj
 0002:000014e8       ??_C@_08GLNPIFBN@io?5error@ 00000001800624e8     libcpmt:syserror.obj
 0002:000014f8       ??_C@_0P@FLLDBIDK@is?5a?5directory@ 00000001800624f8     libcpmt:syserror.obj
 0002:00001508       ??_C@_0N@IFLPBIOP@message?5size@ 0000000180062508     libcpmt:syserror.obj
 0002:00001518       ??_C@_0N@KIIEAAIO@network?5down@ 0000000180062518     libcpmt:syserror.obj
 0002:00001528       ??_C@_0O@FNPDBHEE@network?5reset@ 0000000180062528     libcpmt:syserror.obj
 0002:00001538       ??_C@_0BE@IFNCKGE@network?5unreachable@ 0000000180062538     libcpmt:syserror.obj
 0002:00001550       ??_C@_0BA@PFFCAOFK@no?5buffer?5space@ 0000000180062550     libcpmt:syserror.obj
 0002:00001560       ??_C@_0BB@IEPBLJHK@no?5child?5process@ 0000000180062560     libcpmt:syserror.obj
 0002:00001578       ??_C@_07PLECNNKG@no?5link@ 0000000180062578     libcpmt:syserror.obj
 0002:00001580       ??_C@_0BC@NJECKMKE@no?5lock?5available@ 0000000180062580     libcpmt:syserror.obj
 0002:00001598       ??_C@_0BF@PBGGPKKE@no?5message?5available@ 0000000180062598     libcpmt:syserror.obj
 0002:000015b0       ??_C@_0L@EDOLMPAK@no?5message@ 00000001800625b0     libcpmt:syserror.obj
 0002:000015c0       ??_C@_0BD@EAMBFIDF@no?5protocol?5option@ 00000001800625c0     libcpmt:syserror.obj
 0002:000015d8       ??_C@_0BD@IJDJKDEA@no?5space?5on?5device@ 00000001800625d8     libcpmt:syserror.obj
 0002:000015f0       ??_C@_0BE@MKFDAFMP@no?5stream?5resources@ 00000001800625f0     libcpmt:syserror.obj
 0002:00001608       ??_C@_0BK@IMCPHCBI@no?5such?5device?5or?5address@ 0000000180062608     libcpmt:syserror.obj
 0002:00001628       ??_C@_0P@FDINDDOK@no?5such?5device@ 0000000180062628     libcpmt:syserror.obj
 0002:00001638       ??_C@_0BK@NDOCBPGE@no?5such?5file?5or?5directory@ 0000000180062638     libcpmt:syserror.obj
 0002:00001658       ??_C@_0BA@ENLPPKBN@no?5such?5process@ 0000000180062658     libcpmt:syserror.obj
 0002:00001668       ??_C@_0BA@DOCPFFJG@not?5a?5directory@ 0000000180062668     libcpmt:syserror.obj
 0002:00001678       ??_C@_0N@POEIPGGF@not?5a?5socket@ 0000000180062678     libcpmt:syserror.obj
 0002:00001688       ??_C@_0N@LGAPMMPI@not?5a?5stream@ 0000000180062688     libcpmt:syserror.obj
 0002:00001698       ??_C@_0O@GLMIBBEG@not?5connected@ 0000000180062698     libcpmt:syserror.obj
 0002:000016a8       ??_C@_0BC@ENOOLCNF@not?5enough?5memory@ 00000001800626a8     libcpmt:syserror.obj
 0002:000016c0       ??_C@_0O@NHEDABJP@not?5supported@ 00000001800626c0     libcpmt:syserror.obj
 0002:000016d0       ??_C@_0BD@MOLBPMEA@operation?5canceled@ 00000001800626d0     libcpmt:syserror.obj
 0002:000016e8       ??_C@_0BG@KDKHOPCO@operation?5in?5progress@ 00000001800626e8     libcpmt:syserror.obj
 0002:00001700       ??_C@_0BI@OHIEJAAB@operation?5not?5permitted@ 0000000180062700     libcpmt:syserror.obj
 0002:00001718       ??_C@_0BI@LNEGIFLN@operation?5not?5supported@ 0000000180062718     libcpmt:syserror.obj
 0002:00001730       ??_C@_0BG@OEMDKMEE@operation?5would?5block@ 0000000180062730     libcpmt:syserror.obj
 0002:00001748       ??_C@_0L@BLPOFLNJ@owner?5dead@ 0000000180062748     libcpmt:syserror.obj
 0002:00001758       ??_C@_0BC@CIJDGCDI@permission?5denied@ 0000000180062758     libcpmt:syserror.obj
 0002:00001770       ??_C@_0P@FNPOCJBE@protocol?5error@ 0000000180062770     libcpmt:syserror.obj
 0002:00001780       ??_C@_0BH@JPPPLHJB@protocol?5not?5supported@ 0000000180062780     libcpmt:syserror.obj
 0002:00001798       ??_C@_0BG@EICBIHDP@read?5only?5file?5system@ 0000000180062798     libcpmt:syserror.obj
 0002:000017b0       ??_C@_0BO@BJBOMOEJ@resource?5deadlock?5would?5occur@ 00000001800627b0     libcpmt:syserror.obj
 0002:000017d0       ??_C@_0BP@LKNGHENJ@resource?5unavailable?5try?5again@ 00000001800627d0     libcpmt:syserror.obj
 0002:000017f0       ??_C@_0BE@GOIPJJHG@result?5out?5of?5range@ 00000001800627f0     libcpmt:syserror.obj
 0002:00001808       ??_C@_0BG@MPLKFPAE@state?5not?5recoverable@ 0000000180062808     libcpmt:syserror.obj
 0002:00001820       ??_C@_0P@DIIFGFCG@stream?5timeout@ 0000000180062820     libcpmt:syserror.obj
 0002:00001830       ??_C@_0P@IPFDMIFL@text?5file?5busy@ 0000000180062830     libcpmt:syserror.obj
 0002:00001840       ??_C@_09KJPPMAOI@timed?5out@ 0000000180062840     libcpmt:syserror.obj
 0002:00001850       ??_C@_0BO@HACHBEKI@too?5many?5files?5open?5in?5system@ 0000000180062850     libcpmt:syserror.obj
 0002:00001870       ??_C@_0BE@GHAFMPAH@too?5many?5files?5open@ 0000000180062870     libcpmt:syserror.obj
 0002:00001888       ??_C@_0P@HCOMKFCC@too?5many?5links@ 0000000180062888     libcpmt:syserror.obj
 0002:00001898       ??_C@_0BO@EFGOJEF@too?5many?5symbolic?5link?5levels@ 0000000180062898     libcpmt:syserror.obj
 0002:000018b8       ??_C@_0BA@KGKGOOJA@value?5too?5large@ 00000001800628b8     libcpmt:syserror.obj
 0002:000018c8       ??_C@_0BE@MIEJDDNH@wrong?5protocol?5type@ 00000001800628c8     libcpmt:syserror.obj
 0002:000018e0       ??_C@_0O@BFJCFAAK@unknown?5error@ 00000001800628e0     libcpmt:syserror.obj
 0002:000018f0       ?_BADOFF@std@@3_JB         00000001800628f0     libcpmt:ios.obj
 0002:00001958       ??_7bad_array_new_length@std@@6B@ 0000000180062958     libcpmt:thread0.obj
 0002:00001970       ??_7_System_error@std@@6B@ 0000000180062970     libcpmt:thread0.obj
 0002:00001988       ??_7system_error@std@@6B@  0000000180062988     libcpmt:thread0.obj
 0002:000019a0       ??_7_Generic_error_category@std@@6B@ 00000001800629a0     libcpmt:thread0.obj
 0002:000019d0       ??_C@_07DCLBNMLN@generic@  00000001800629d0     libcpmt:thread0.obj
 0002:00001a58       ??_C@_01KDCPPGHE@r@        0000000180062a58     libcpmt:fiopen.obj
 0002:00001a5c       ??_C@_01MCMALHOG@a@        0000000180062a5c     libcpmt:fiopen.obj
 0002:00001a60       ??_C@_02JDPG@rb@           0000000180062a60     libcpmt:fiopen.obj
 0002:00001a64       ??_C@_02GMLFBBN@wb@        0000000180062a64     libcpmt:fiopen.obj
 0002:00001a68       ??_C@_02BOGAIONP@ab@       0000000180062a68     libcpmt:fiopen.obj
 0002:00001a6c       ??_C@_02CBLLGHLK@r?$CL@    0000000180062a6c     libcpmt:fiopen.obj
 0002:00001a70       ??_C@_02CHHAKFFB@w?$CL@    0000000180062a70     libcpmt:fiopen.obj
 0002:00001a74       ??_C@_02DPNLHKJD@a?$CL@    0000000180062a74     libcpmt:fiopen.obj
 0002:00001a78       ??_C@_03HMFOOINA@r?$CLb@   0000000180062a78     libcpmt:fiopen.obj
 0002:00001a7c       ??_C@_03ELIABIOC@w?$CLb@   0000000180062a7c     libcpmt:fiopen.obj
 0002:00001a80       ??_C@_03DOPCBAKB@a?$CLb@   0000000180062a80     libcpmt:fiopen.obj
 0002:00001a90       ??_7stl_critical_section_vista@details@Concurrency@@6B@ 0000000180062a90     libcpmt:mutex.obj
 0002:00001ac0       ??_7stl_critical_section_win7@details@Concurrency@@6B@ 0000000180062ac0     libcpmt:mutex.obj
 0002:00001af0       ??_7bad_cast@std@@6B@      0000000180062af0     libcpmt:locale.obj
 0002:00001b08       ??_7?$ctype@D@std@@6B@     0000000180062b08     libcpmt:locale.obj
 0002:00001b68       ??_7?$num_put@DV?$ostreambuf_iterator@DU?$char_traits@D@std@@@std@@@std@@6B@ 0000000180062b68     libcpmt:locale.obj
 0002:00001bc8       ??_7?$numpunct@D@std@@6B@  0000000180062bc8     libcpmt:locale.obj
 0002:00001c10       ??_7?$codecvt@DDU_Mbstatet@@@std@@6B@ 0000000180062c10     libcpmt:locale.obj
 0002:00001d60       ??_C@_1BK@MGMFAEKH@?$AAk?$AAe?$AAr?$AAn?$AAe?$AAl?$AA3?$AA2?$AA?4?$AAd?$AAl?$AAl@ 0000000180062d60     libcpmt:winapisupp.obj
 0002:00001d80       ??_C@_08KNHFBNJ@FlsAlloc@  0000000180062d80     libcpmt:winapisupp.obj
 0002:00001d90       ??_C@_07PEJMOBNF@FlsFree@  0000000180062d90     libcpmt:winapisupp.obj
 0002:00001d98       ??_C@_0M@GDNOONDI@FlsGetValue@ 0000000180062d98     libcpmt:winapisupp.obj
 0002:00001da8       ??_C@_0M@JCPCPOEF@FlsSetValue@ 0000000180062da8     libcpmt:winapisupp.obj
 0002:00001db8       ??_C@_0BM@HCFOFFN@InitializeCriticalSectionEx@ 0000000180062db8     libcpmt:winapisupp.obj
 0002:00001dd8       ??_C@_0BE@GPLMMCMH@InitOnceExecuteOnce@ 0000000180062dd8     libcpmt:winapisupp.obj
 0002:00001df0       ??_C@_0P@DLHPPCNH@CreateEventExW@ 0000000180062df0     libcpmt:winapisupp.obj
 0002:00001e00       ??_C@_0BB@MEFPJLHN@CreateSemaphoreW@ 0000000180062e00     libcpmt:winapisupp.obj
 0002:00001e18       ??_C@_0BD@KIEEOEEH@CreateSemaphoreExW@ 0000000180062e18     libcpmt:winapisupp.obj
 0002:00001e30       ??_C@_0BG@OGFAJCKC@CreateThreadpoolTimer@ 0000000180062e30     libcpmt:winapisupp.obj
 0002:00001e48       ??_C@_0BD@LPLEMMDI@SetThreadpoolTimer@ 0000000180062e48     libcpmt:winapisupp.obj
 0002:00001e60       ??_C@_0CA@FMNJENH@WaitForThreadpoolTimerCallbacks@ 0000000180062e60     libcpmt:winapisupp.obj
 0002:00001e80       ??_C@_0BF@DCFCCNOC@CloseThreadpoolTimer@ 0000000180062e80     libcpmt:winapisupp.obj
 0002:00001e98       ??_C@_0BF@FLABGKKM@CreateThreadpoolWait@ 0000000180062e98     libcpmt:winapisupp.obj
 0002:00001eb0       ??_C@_0BC@MGCOHNA@SetThreadpoolWait@ 0000000180062eb0     libcpmt:winapisupp.obj
 0002:00001ec8       ??_C@_0BE@OCIOMIMP@CloseThreadpoolWait@ 0000000180062ec8     libcpmt:winapisupp.obj
 0002:00001ee0       ??_C@_0BJ@LKGHFHBO@FlushProcessWriteBuffers@ 0000000180062ee0     libcpmt:winapisupp.obj
 0002:00001f00       ??_C@_0BP@KALKKPMO@FreeLibraryWhenCallbackReturns@ 0000000180062f00     libcpmt:winapisupp.obj
 0002:00001f20       ??_C@_0BK@DFNBACLA@GetCurrentProcessorNumber@ 0000000180062f20     libcpmt:winapisupp.obj
 0002:00001f40       ??_C@_0BE@FKKLLFLM@CreateSymbolicLinkW@ 0000000180062f40     libcpmt:winapisupp.obj
 0002:00001f58       ??_C@_0BE@JOGNEJCI@GetCurrentPackageId@ 0000000180062f58     libcpmt:winapisupp.obj
 0002:00001f70       ??_C@_0P@CDHHOHKP@GetTickCount64@ 0000000180062f70     libcpmt:winapisupp.obj
 0002:00001f80       ??_C@_0BN@NEEHBBPO@GetFileInformationByHandleEx@ 0000000180062f80     libcpmt:winapisupp.obj
 0002:00001fa0       ??_C@_0BL@KBBHGKCM@SetFileInformationByHandle@ 0000000180062fa0     libcpmt:winapisupp.obj
 0002:00001fc0       ??_C@_0BP@FPNJPEJC@GetSystemTimePreciseAsFileTime@ 0000000180062fc0     libcpmt:winapisupp.obj
 0002:00001fe0       ??_C@_0BM@HLJJNPAH@InitializeConditionVariable@ 0000000180062fe0     libcpmt:winapisupp.obj
 0002:00002000       ??_C@_0BG@BFNILBLN@WakeConditionVariable@ 0000000180063000     libcpmt:winapisupp.obj
 0002:00002018       ??_C@_0BJ@PGPPEPCC@WakeAllConditionVariable@ 0000000180063018     libcpmt:winapisupp.obj
 0002:00002038       ??_C@_0BJ@JEBJOJFJ@SleepConditionVariableCS@ 0000000180063038     libcpmt:winapisupp.obj
 0002:00002058       ??_C@_0BC@MMLHEBPB@InitializeSRWLock@ 0000000180063058     libcpmt:winapisupp.obj
 0002:00002070       ??_C@_0BI@OMNLIJDB@AcquireSRWLockExclusive@ 0000000180063070     libcpmt:winapisupp.obj
 0002:00002088       ??_C@_0BL@OGHFEMNA@TryAcquireSRWLockExclusive@ 0000000180063088     libcpmt:winapisupp.obj
 0002:000020a8       ??_C@_0BI@HMIEPCNJ@ReleaseSRWLockExclusive@ 00000001800630a8     libcpmt:winapisupp.obj
 0002:000020c0       ??_C@_0BK@LGACAGIC@SleepConditionVariableSRW@ 00000001800630c0     libcpmt:winapisupp.obj
 0002:000020e0       ??_C@_0BF@GGPHFPJA@CreateThreadpoolWork@ 00000001800630e0     libcpmt:winapisupp.obj
 0002:000020f8       ??_C@_0BF@NHDAIMMO@SubmitThreadpoolWork@ 00000001800630f8     libcpmt:winapisupp.obj
 0002:00002110       ??_C@_0BE@NPHIPNPD@CloseThreadpoolWork@ 0000000180063110     libcpmt:winapisupp.obj
 0002:00002128       ??_C@_0BA@IHGNDAEB@CompareStringEx@ 0000000180063128     libcpmt:winapisupp.obj
 0002:00002138       ??_C@_0BA@ONOKGCMP@GetLocaleInfoEx@ 0000000180063138     libcpmt:winapisupp.obj
 0002:00002148       ??_C@_0O@KKBNKAPF@LCMapStringEx@ 0000000180063148     libcpmt:winapisupp.obj
 0002:00002158       ??_C@_11LOCGONAA@@         0000000180063158     libcpmt:wlocale.obj
 0002:0000215c       ??_C@_13IMODFHAA@?$AA?9@   000000018006315c     libcpmt:wlocale.obj
 0002:00002160       __xmm@80000000000000008000000000000000 0000000180063160     libcpmt:wlocale.obj
 0002:00002178       ??_7?$collate@D@std@@6B@   0000000180063178     libcpmt:xlocale.obj
 0002:00002250       ??_7type_info@@6B@         0000000180063250     LIBCMT:std_type_info_static.obj
 0002:00002260       __xmm@ffffffffffffffffffffffffffffffff 0000000180063260     LIBCMT:utility.obj
 0002:00002270       _pDefaultRawDllMain        0000000180063270     LIBCMT:dll_dllmain.obj
 0002:00002270       _pRawDllMain               0000000180063270     LIBCMT:dll_dllmain.obj
 0002:00002288       ?s_negLengthTab@FH4@@3QBCB 0000000180063288     libvcruntime:risctrnsctrl.obj
 0002:00002298       ?s_shiftTab@FH4@@3QBEB     0000000180063298     libvcruntime:risctrnsctrl.obj
 0002:000023e8       _pDestructExceptionObject  00000001800633e8     libvcruntime:ehhelpers.obj
 0002:000023f8       ??_7bad_exception@std@@6B@ 00000001800633f8     libvcruntime:frame.obj
 0002:00002408       ??_C@_0O@DPKOEFFH@bad?5exception@ 0000000180063408     libvcruntime:frame.obj
 0002:00002b20       ??_C@_08EHJDFFNH@__based?$CI@ 0000000180063b20     libvcruntime:undname.obj
 0002:00002b30       ??_C@_07KOLFKCDI@__cdecl@  0000000180063b30     libvcruntime:undname.obj
 0002:00002b38       ??_C@_08GHMPAG@__pascal@   0000000180063b38     libvcruntime:undname.obj
 0002:00002b48       ??_C@_09IFJBGAPI@__stdcall@ 0000000180063b48     libvcruntime:undname.obj
 0002:00002b58       ??_C@_0L@NPHFGOKO@__thiscall@ 0000000180063b58     libvcruntime:undname.obj
 0002:00002b68       ??_C@_0L@JMKHOMEK@__fastcall@ 0000000180063b68     libvcruntime:undname.obj
 0002:00002b78       ??_C@_0N@BCKKPABJ@__vectorcall@ 0000000180063b78     libvcruntime:undname.obj
 0002:00002b88       ??_C@_09HIJEGCPM@__clrcall@ 0000000180063b88     libvcruntime:undname.obj
 0002:00002b94       ??_C@_06GHPCKEAG@__eabi@   0000000180063b94     libvcruntime:undname.obj
 0002:00002ba0       ??_C@_09IOPIDJLG@__swift_1@ 0000000180063ba0     libvcruntime:undname.obj
 0002:00002bb0       ??_C@_09KFNFGKHF@__swift_2@ 0000000180063bb0     libvcruntime:undname.obj
 0002:00002bc0       ??_C@_07JOMMBBKO@__ptr64@  0000000180063bc0     libvcruntime:undname.obj
 0002:00002bc8       ??_C@_0L@PILCLIHE@__restrict@ 0000000180063bc8     libvcruntime:undname.obj
 0002:00002bd8       ??_C@_0M@GFIIJFMG@__unaligned@ 0000000180063bd8     libvcruntime:undname.obj
 0002:00002be8       ??_C@_09DHDLOLLB@restrict?$CI@ 0000000180063be8     libvcruntime:undname.obj
 0002:00002bf4       ??_C@_04NIHEBCM@?5new@     0000000180063bf4     libvcruntime:undname.obj
 0002:00002c00       ??_C@_07FPCDHGMM@?5delete@ 0000000180063c00     libvcruntime:undname.obj
 0002:00002c08       ??_C@_01NEMOKFLO@?$DN@     0000000180063c08     libvcruntime:undname.obj
 0002:00002c0c       ??_C@_02GPIOPFAK@?$DO?$DO@ 0000000180063c0c     libvcruntime:undname.obj
 0002:00002c10       ??_C@_02FODMEDOG@?$DM?$DM@ 0000000180063c10     libvcruntime:undname.obj
 0002:00002c14       ??_C@_01DCLJPIOD@?$CB@     0000000180063c14     libvcruntime:undname.obj
 0002:00002c18       ??_C@_02EGOFBIJA@?$DN?$DN@ 0000000180063c18     libvcruntime:undname.obj
 0002:00002c1c       ??_C@_02FDNJECIE@?$CB?$DN@ 0000000180063c1c     libvcruntime:undname.obj
 0002:00002c20       ??_C@_02GPECMEKF@?$FL?$FN@ 0000000180063c20     libvcruntime:undname.obj
 0002:00002c28       ??_C@_08LHJFAFGD@operator@ 0000000180063c28     libvcruntime:undname.obj
 0002:00002c34       ??_C@_02HBOOOICD@?9?$DO@   0000000180063c34     libvcruntime:undname.obj
 0002:00002c38       ??_C@_01HNPIGOCE@?$CG@     0000000180063c38     libvcruntime:undname.obj
 0002:00002c3c       ??_C@_03MNHNFDLC@?9?$DO?$CK@ 0000000180063c3c     libvcruntime:undname.obj
 0002:00002c40       ??_C@_01FGNFDNOH@?$CF@     0000000180063c40     libvcruntime:undname.obj
 0002:00002c44       ??_C@_01MNNFJEPP@?$DM@     0000000180063c44     libvcruntime:undname.obj
 0002:00002c48       ??_C@_02EHCHHCKH@?$DM?$DN@ 0000000180063c48     libvcruntime:undname.obj
 0002:00002c4c       ??_C@_02EEKDKGMJ@?$DO?$DN@ 0000000180063c4c     libvcruntime:undname.obj
 0002:00002c50       ??_C@_01IHBHIGKO@?0@       0000000180063c50     libvcruntime:undname.obj
 0002:00002c54       ??_C@_02HCKGKOFO@?$CI?$CJ@ 0000000180063c54     libvcruntime:undname.obj
 0002:00002c58       ??_C@_01PJKLJHI@?$HO@      0000000180063c58     libvcruntime:undname.obj
 0002:00002c5c       ??_C@_01JKBOJNNK@?$FO@     0000000180063c5c     libvcruntime:undname.obj
 0002:00002c60       ??_C@_01DNKMNLPK@?$HM@     0000000180063c60     libvcruntime:undname.obj
 0002:00002c64       ??_C@_02PPKAJPJL@?$CG?$CG@ 0000000180063c64     libvcruntime:undname.obj
 0002:00002c68       ??_C@_02NONPIBCD@?$HM?$HM@ 0000000180063c68     libvcruntime:undname.obj
 0002:00002c6c       ??_C@_02FPIMKNGF@?$CK?$DN@ 0000000180063c6c     libvcruntime:undname.obj
 0002:00002c70       ??_C@_02FOEOMHFC@?$CL?$DN@ 0000000180063c70     libvcruntime:undname.obj
 0002:00002c74       ??_C@_02FKMDLLOA@?9?$DN@   0000000180063c74     libvcruntime:undname.obj
 0002:00002c78       ??_C@_02FJEHGPIO@?1?$DN@   0000000180063c78     libvcruntime:undname.obj
 0002:00002c7c       ??_C@_02FENAOKFI@?$CF?$DN@ 0000000180063c7c     libvcruntime:undname.obj
 0002:00002c80       ??_C@_03IKFCCPFF@?$DO?$DO?$DN@ 0000000180063c80     libvcruntime:undname.obj
 0002:00002c84       ??_C@_03CDNPDDLA@?$DM?$DM?$DN@ 0000000180063c84     libvcruntime:undname.obj
 0002:00002c88       ??_C@_02FGJGFEAB@?$CG?$DN@ 0000000180063c88     libvcruntime:undname.obj
 0002:00002c8c       ??_C@_02DHLNPPGH@?$HM?$DN@ 0000000180063c8c     libvcruntime:undname.obj
 0002:00002c90       ??_C@_02MHEGNOJ@?$FO?$DN@  0000000180063c90     libvcruntime:undname.obj
 0002:00002c98       ??_C@_09IFPLHPGF@?$GAvftable?8@ 0000000180063c98     libvcruntime:undname.obj
 0002:00002ca8       ??_C@_09BLBHBJP@?$GAvbtable?8@ 0000000180063ca8     libvcruntime:undname.obj
 0002:00002cb8       ??_C@_07FEEIOKP@?$GAvcall?8@ 0000000180063cb8     libvcruntime:undname.obj
 0002:00002cc0       ??_C@_08LLFFHHDJ@?$GAtypeof?8@ 0000000180063cc0     libvcruntime:undname.obj
 0002:00002cd0       ??_C@_0BF@KDPPACIK@?$GAlocal?5static?5guard?8@ 0000000180063cd0     libvcruntime:undname.obj
 0002:00002ce8       ??_C@_08OBABFOLI@?$GAstring?8@ 0000000180063ce8     libvcruntime:undname.obj
 0002:00002cf8       ??_C@_0BD@JDLKDPAB@?$GAvbase?5destructor?8@ 0000000180063cf8     libvcruntime:undname.obj
 0002:00002d10       ??_C@_0BN@DEGPLNFK@?$GAvector?5deleting?5destructor?8@ 0000000180063d10     libvcruntime:undname.obj
 0002:00002d30       ??_C@_0BO@OBMKPJIG@?$GAdefault?5constructor?5closure?8@ 0000000180063d30     libvcruntime:undname.obj
 0002:00002d50       ??_C@_0BN@IMDCHIKM@?$GAscalar?5deleting?5destructor?8@ 0000000180063d50     libvcruntime:undname.obj
 0002:00002d70       ??_C@_0BO@PFGOCPJJ@?$GAvector?5constructor?5iterator?8@ 0000000180063d70     libvcruntime:undname.obj
 0002:00002d90       ??_C@_0BN@LFPFMEDL@?$GAvector?5destructor?5iterator?8@ 0000000180063d90     libvcruntime:undname.obj
 0002:00002db0       ??_C@_0CE@IKBNEHA@?$GAvector?5vbase?5constructor?5itera@ 0000000180063db0     libvcruntime:undname.obj
 0002:00002dd8       ??_C@_0BL@NILFHHPC@?$GAvirtual?5displacement?5map?8@ 0000000180063dd8     libvcruntime:undname.obj
 0002:00002df8       ??_C@_0CB@JONCMFFK@?$GAeh?5vector?5constructor?5iterator@ 0000000180063df8     libvcruntime:undname.obj
 0002:00002e20       ??_C@_0CA@GCEOPDGL@?$GAeh?5vector?5destructor?5iterator?8@ 0000000180063e20     libvcruntime:undname.obj
 0002:00002e40       ??_C@_0CH@OOJPLCPH@?$GAeh?5vector?5vbase?5constructor?5it@ 0000000180063e40     libvcruntime:undname.obj
 0002:00002e68       ??_C@_0BL@LLKPOHJI@?$GAcopy?5constructor?5closure?8@ 0000000180063e68     libvcruntime:undname.obj
 0002:00002e88       ??_C@_0BA@KBCDOMBN@?$GAudt?5returning?8@ 0000000180063e88     libvcruntime:undname.obj
 0002:00002e98       ??_C@_03KLGMFNMG@?$GAEH@   0000000180063e98     libvcruntime:undname.obj
 0002:00002e9c       ??_C@_05KHLCHHI@?$GARTTI@  0000000180063e9c     libvcruntime:undname.obj
 0002:00002ea8       ??_C@_0BA@KKLDJDLB@?$GAlocal?5vftable?8@ 0000000180063ea8     libvcruntime:undname.obj
 0002:00002eb8       ??_C@_0CE@IIHCMGGL@?$GAlocal?5vftable?5constructor?5clos@ 0000000180063eb8     libvcruntime:undname.obj
 0002:00002edc       ??_C@_06FHBGPFGH@?5new?$FL?$FN@ 0000000180063edc     libvcruntime:undname.obj
 0002:00002ee8       ??_C@_09LBNFPBCA@?5delete?$FL?$FN@ 0000000180063ee8     libvcruntime:undname.obj
 0002:00002ef8       ??_C@_0P@HJKNJFNN@?$GAomni?5callsig?8@ 0000000180063ef8     libvcruntime:undname.obj
 0002:00002f08       ??_C@_0BL@CNOONJFP@?$GAplacement?5delete?5closure?8@ 0000000180063f08     libvcruntime:undname.obj
 0002:00002f28       ??_C@_0BN@CKNJLHMB@?$GAplacement?5delete?$FL?$FN?5closure?8@ 0000000180063f28     libvcruntime:undname.obj
 0002:00002f48       ??_C@_0CG@CFDHKGGD@?$GAmanaged?5vector?5constructor?5ite@ 0000000180063f48     libvcruntime:undname.obj
 0002:00002f70       ??_C@_0CF@IMGKMJNO@?$GAmanaged?5vector?5destructor?5iter@ 0000000180063f70     libvcruntime:undname.obj
 0002:00002f98       ??_C@_0CG@HLDDJMAG@?$GAeh?5vector?5copy?5constructor?5ite@ 0000000180063f98     libvcruntime:undname.obj
 0002:00002fc0       ??_C@_0CM@FCBBDIGB@?$GAeh?5vector?5vbase?5copy?5construct@ 0000000180063fc0     libvcruntime:undname.obj
 0002:00002ff0       ??_C@_0BL@CLIPGLGB@?$GAdynamic?5initializer?5for?5?8@ 0000000180063ff0     libvcruntime:undname.obj
 0002:00003010       ??_C@_0CB@PDBIFEP@?$GAdynamic?5atexit?5destructor?5for?5@ 0000000180064010     libvcruntime:undname.obj
 0002:00003038       ??_C@_0CD@CGAJBKEJ@?$GAvector?5copy?5constructor?5iterat@ 0000000180064038     libvcruntime:undname.obj
 0002:00003060       ??_C@_0CJ@GJELGAMM@?$GAvector?5vbase?5copy?5constructor?5@ 0000000180064060     libvcruntime:undname.obj
 0002:00003090       ??_C@_0CL@FGIJHLCE@?$GAmanaged?5vector?5copy?5constructo@ 0000000180064090     libvcruntime:undname.obj
 0002:000030c0       ??_C@_0BM@PMGGMLDN@?$GAlocal?5static?5thread?5guard?8@ 00000001800640c0     libvcruntime:undname.obj
 0002:000030e0       ??_C@_0N@BDNMDMOL@operator?5?$CC?$CC?5@ 00000001800640e0     libvcruntime:undname.obj
 0002:000030f0       ??_C@_0BC@GGEBGALA@operator?5co_await@ 00000001800640f0     libvcruntime:undname.obj
 0002:00003108       ??_C@_0M@GAAIMMOH@operator?$DM?$DN?$DO@ 0000000180064108     libvcruntime:undname.obj
 0002:00003118       ??_C@_0BC@DAFEJGAK@?5Type?5Descriptor?8@ 0000000180064118     libvcruntime:undname.obj
 0002:00003130       ??_C@_0BM@LDKODKLH@?5Base?5Class?5Descriptor?5at?5?$CI@ 0000000180064130     libvcruntime:undname.obj
 0002:00003150       ??_C@_0BD@LGICGFMM@?5Base?5Class?5Array?8@ 0000000180064150     libvcruntime:undname.obj
 0002:00003168       ??_C@_0BN@MECKDCOJ@?5Class?5Hierarchy?5Descriptor?8@ 0000000180064168     libvcruntime:undname.obj
 0002:00003188       ??_C@_0BK@CFCOFLF@?5Complete?5Object?5Locator?8@ 0000000180064188     libvcruntime:undname.obj
 0002:000031a8       ??_C@_0BG@JNJLAMPM@?$GAanonymous?5namespace?8@ 00000001800641a8     libvcruntime:undname.obj
 0002:000031d8       ??_C@_1DM@KHCHBNEB@?$AAa?$AAp?$AAi?$AA?9?$AAm?$AAs?$AA?9?$AAw?$AAi?$AAn?$AA?9?$AAc?$AAo?$AAr?$AAe@ 00000001800641d8     libvcruntime:winapi_downlevel.obj
 0002:00003218       ??_C@_1DK@LPPGFMPP@?$AAa?$AAp?$AAi?$AA?9?$AAm?$AAs?$AA?9?$AAw?$AAi?$AAn?$AA?9?$AAc?$AAo?$AAr?$AAe@ 0000000180064218     libvcruntime:winapi_downlevel.obj
 0002:00003258       ??_C@_1BC@GDMECMAK@?$AAk?$AAe?$AAr?$AAn?$AAe?$AAl?$AA3?$AA2@ 0000000180064258     libvcruntime:winapi_downlevel.obj
 0002:00003270       ??_C@_1BA@PFFKHIOG@?$AAa?$AAp?$AAi?$AA?9?$AAm?$AAs?$AA?9@ 0000000180064270     libvcruntime:winapi_downlevel.obj
 0002:000032b0       ?format_validation_lookup_table_spectre@__crt_stdio_output@@3V?$spectre_mitigated_lookup_table@Ustate_transition_pair@__crt_stdio_output@@$0IA@@1@B 00000001800642b0     libucrt:output.obj
 0002:000036b0       ??_C@_1O@CEDCILHN@?$AA?$CI?$AAn?$AAu?$AAl?$AAl?$AA?$CJ@ 00000001800646b0     libucrt:output.obj
 0002:000036c0       ??_C@_06OJHGLDPL@?$CInull?$CJ@ 00000001800646c0     libucrt:output.obj
 0002:000036c8       __real@0000000000000000    00000001800646c8     libucrt:frexp.obj
 0002:000036d0       __real@8000000000000000    00000001800646d0     libucrt:frexp.obj
 0002:000036e0       ?large_power_data@?1??multiply_by_power_of_ten@__crt_strtox@@YA_NAEAUbig_integer@2@I@Z@4QBIB 00000001800646e0     libucrt:atof.obj
 0002:00003ff0       ?large_power_indices@?1??multiply_by_power_of_ten@__crt_strtox@@YA_NAEAUbig_integer@2@I@Z@4QBUunpack_index@?1??12@YA_N0I@Z@B 0000000180064ff0     libucrt:atof.obj
 0002:00004088       ?small_powers_of_ten@?1??multiply_by_power_of_ten@__crt_strtox@@YA_NAEAUbig_integer@2@I@Z@4QBIB 0000000180065088     libucrt:atof.obj
 0002:000040b0       ??_C@_1GE@DPGDJKLM@?$AAm?$AAi?$AAn?$AAk?$AAe?$AAr?$AAn?$AAe?$AAl?$AA?2?$AAc?$AAr?$AAt?$AAs?$AA?2@ 00000001800650b0     libucrt:atof.obj
 0002:00004120       ??_C@_1FM@FELNCOBF@?$AA_?$AA_?$AAc?$AAr?$AAt?$AA_?$AAs?$AAt?$AAr?$AAt?$AAo?$AAx?$AA?3?$AA?3?$AAf@ 0000000180065120     libucrt:atof.obj
 0002:00004180       ??_C@_1BG@GEMHBGAF@?$AA_?$AAi?$AAs?$AA_?$AAd?$AAo?$AAu?$AAb?$AAl?$AAe@ 0000000180065180     libucrt:atof.obj
 0002:000041a0       ??_C@_1FK@JOJELFFO@?$AA_?$AA_?$AAc?$AAr?$AAt?$AA_?$AAs?$AAt?$AAr?$AAt?$AAo?$AAx?$AA?3?$AA?3?$AAf@ 00000001800651a0     libucrt:atof.obj
 0002:00004200       ??_C@_1BI@BANMPGJI@?$AA?$CB?$AA_?$AAi?$AAs?$AA_?$AAd?$AAo?$AAu?$AAb?$AAl?$AAe@ 0000000180065200     libucrt:atof.obj
 0002:00004218       ?inf_uppercase@?1???$parse_floating_point_possible_infinity@DV?$c_string_character_source@D@__crt_strtox@@PEBD@__crt_strtox@@YA?AW4floating_point_parse_result@1@AEADAEAV?$c_string_character_source@D@1@PEBD@Z@4QBDB 0000000180065218     libucrt:atof.obj
 0002:0000421c       ?inf_lowercase@?1???$parse_floating_point_possible_infinity@DV?$c_string_character_source@D@__crt_strtox@@PEBD@__crt_strtox@@YA?AW4floating_point_parse_result@1@AEADAEAV?$c_string_character_source@D@1@PEBD@Z@4QBDB 000000018006521c     libucrt:atof.obj
 0002:00004220       ?inity_uppercase@?1???$parse_floating_point_possible_infinity@DV?$c_string_character_source@D@__crt_strtox@@PEBD@__crt_strtox@@YA?AW4floating_point_parse_result@1@AEADAEAV?$c_string_character_source@D@1@PEBD@Z@4QBDB 0000000180065220     libucrt:atof.obj
 0002:00004228       ?inity_lowercase@?1???$parse_floating_point_possible_infinity@DV?$c_string_character_source@D@__crt_strtox@@PEBD@__crt_strtox@@YA?AW4floating_point_parse_result@1@AEADAEAV?$c_string_character_source@D@1@PEBD@Z@4QBDB 0000000180065228     libucrt:atof.obj
 0002:00004230       ?uppercase@?1???$parse_floating_point_possible_nan@DV?$c_string_character_source@D@__crt_strtox@@PEBD@__crt_strtox@@YA?AW4floating_point_parse_result@1@AEADAEAV?$c_string_character_source@D@1@PEBD@Z@4QBDB 0000000180065230     libucrt:atof.obj
 0002:00004234       ?lowercase@?1???$parse_floating_point_possible_nan@DV?$c_string_character_source@D@__crt_strtox@@PEBD@__crt_strtox@@YA?AW4floating_point_parse_result@1@AEADAEAV?$c_string_character_source@D@1@PEBD@Z@4QBDB 0000000180065234     libucrt:atof.obj
 0002:00004238       ?uppercase@?1???$parse_floating_point_possible_nan_is_snan@DV?$c_string_character_source@D@__crt_strtox@@@__crt_strtox@@YA_NAEADAEAV?$c_string_character_source@D@1@@Z@4QBDB 0000000180065238     libucrt:atof.obj
 0002:00004240       ?lowercase@?1???$parse_floating_point_possible_nan_is_snan@DV?$c_string_character_source@D@__crt_strtox@@@__crt_strtox@@YA_NAEADAEAV?$c_string_character_source@D@1@@Z@4QBDB 0000000180065240     libucrt:atof.obj
 0002:00004248       ?uppercase@?1???$parse_floating_point_possible_nan_is_ind@DV?$c_string_character_source@D@__crt_strtox@@@__crt_strtox@@YA_NAEADAEAV?$c_string_character_source@D@1@@Z@4QBDB 0000000180065248     libucrt:atof.obj
 0002:0000424c       ?lowercase@?1???$parse_floating_point_possible_nan_is_ind@DV?$c_string_character_source@D@__crt_strtox@@@__crt_strtox@@YA_NAEADAEAV?$c_string_character_source@D@1@@Z@4QBDB 000000018006524c     libucrt:atof.obj
 0002:00004250       __newctype                 0000000180065250     libucrt:ctype.obj
 0002:00004550       __newclmap                 0000000180065550     libucrt:ctype.obj
 0002:000046d0       __newcumap                 00000001800656d0     libucrt:ctype.obj
 0002:00004850       _wctype                    0000000180065850     libucrt:ctype.obj
 0002:00006880       __acrt_exception_action_table 0000000180067880     libucrt:exception_filter.obj
 0002:00006940       __acrt_signal_action_table_count 0000000180067940     libucrt:exception_filter.obj
 0002:00006948       __acrt_signal_action_first_fpe_index 0000000180067948     libucrt:exception_filter.obj
 0002:00006950       __acrt_signal_action_fpe_count 0000000180067950     libucrt:exception_filter.obj
 0002:00006958       ??_C@_1BI@BGOHAHKC@?$AAm?$AAs?$AAc?$AAo?$AAr?$AAe?$AAe?$AA?4?$AAd?$AAl?$AAl@ 0000000180067958     libucrt:exit.obj
 0002:00006970       ??_C@_0P@MIGLKIOC@CorExitProcess@ 0000000180067970     libucrt:exit.obj
 0002:00006b00       ??_C@_03OEIAHPBN@INF@      0000000180067b00     libucrt:cvt.obj
 0002:00006b04       ??_C@_03OJHLLCGB@inf@      0000000180067b04     libucrt:cvt.obj
 0002:00006b08       ??_C@_03LKNCIKJB@NAN@      0000000180067b08     libucrt:cvt.obj
 0002:00006b0c       ??_C@_03LHCJEHON@nan@      0000000180067b0c     libucrt:cvt.obj
 0002:00006b10       ??_C@_09OFJJIMPC@NAN?$CISNAN?$CJ@ 0000000180067b10     libucrt:cvt.obj
 0002:00006b20       ??_C@_09IPFBKMDL@nan?$CIsnan?$CJ@ 0000000180067b20     libucrt:cvt.obj
 0002:00006b30       ??_C@_08IKHNHAJ@NAN?$CIIND?$CJ@ 0000000180067b30     libucrt:cvt.obj
 0002:00006b40       ??_C@_08OFCDMILK@nan?$CIind?$CJ@ 0000000180067b40     libucrt:cvt.obj
 0002:00006b4c       ??_C@_05KLBDPFGC@e?$CL000@ 0000000180067b4c     libucrt:cvt.obj
 0002:00006be0       __lc_category              0000000180067be0     libucrt:wsetlocale.obj
 0002:00006c70       ??_C@_1O@GIFLHMA@?$AAL?$AAC?$AA_?$AAA?$AAL?$AAL@ 0000000180067c70     libucrt:wsetlocale.obj
 0002:00006c80       ??_C@_1BG@PPOMIBNJ@?$AAL?$AAC?$AA_?$AAC?$AAO?$AAL?$AAL?$AAA?$AAT?$AAE@ 0000000180067c80     libucrt:wsetlocale.obj
 0002:00006c98       ??_C@_1BC@FFJGAPJM@?$AAL?$AAC?$AA_?$AAC?$AAT?$AAY?$AAP?$AAE@ 0000000180067c98     libucrt:wsetlocale.obj
 0002:00006cb0       ??_C@_1BI@PCKFNJFB@?$AAL?$AAC?$AA_?$AAM?$AAO?$AAN?$AAE?$AAT?$AAA?$AAR?$AAY@ 0000000180067cb0     libucrt:wsetlocale.obj
 0002:00006cc8       ??_C@_1BG@ENIEDKID@?$AAL?$AAC?$AA_?$AAN?$AAU?$AAM?$AAE?$AAR?$AAI?$AAC@ 0000000180067cc8     libucrt:wsetlocale.obj
 0002:00006ce0       ??_C@_1BA@HAAOMIIG@?$AAL?$AAC?$AA_?$AAT?$AAI?$AAM?$AAE@ 0000000180067ce0     libucrt:wsetlocale.obj
 0002:00006cf0       ??_C@_15NBPDDFIP@?$AA?$DN?$AA?$DL@ 0000000180067cf0     libucrt:wsetlocale.obj
 0002:00006cf8       ??_C@_13PJJBFPED@?$AA?$DL@ 0000000180067cf8     libucrt:wsetlocale.obj
 0002:00006cfc       ??_C@_13NMPKAAJP@?$AA?$DN@ 0000000180067cfc     libucrt:wsetlocale.obj
 0002:00006d00       ??_C@_17EFJLDFDO@?$AA?9?$AA_?$AA?4@ 0000000180067d00     libucrt:wsetlocale.obj
 0002:00006d08       ??_C@_13FHBKNHDA@?$AAC@    0000000180067d08     libucrt:wsetlocale.obj
 0002:00006d10       ??_C@_17MBJJLFDM@?$AA_?$AA?4?$AA?0@ 0000000180067d10     libucrt:wsetlocale.obj
 0002:00006d18       ??_C@_13ENNFDPBH@?$AA_@    0000000180067d18     libucrt:wsetlocale.obj
 0002:00006d1c       ??_C@_13JOFGPIOO@?$AA?4@   0000000180067d1c     libucrt:wsetlocale.obj
 0002:00006d20       __lc_time_c                0000000180067d20     libucrt:nlsdata.obj
 0002:00006fe0       ??_C@_03KOEHGMDN@Sun@      0000000180067fe0     libucrt:nlsdata.obj
 0002:00006fe4       ??_C@_03PDAGKDH@Mon@       0000000180067fe4     libucrt:nlsdata.obj
 0002:00006fe8       ??_C@_03NAGEINEP@Tue@      0000000180067fe8     libucrt:nlsdata.obj
 0002:00006fec       ??_C@_03MHOMLAJA@Wed@      0000000180067fec     libucrt:nlsdata.obj
 0002:00006ff0       ??_C@_03IOFIKPDN@Thu@      0000000180067ff0     libucrt:nlsdata.obj
 0002:00006ff4       ??_C@_03IDIOELNC@Fri@      0000000180067ff4     libucrt:nlsdata.obj
 0002:00006ff8       ??_C@_03FEFJNEK@Sat@       0000000180067ff8     libucrt:nlsdata.obj
 0002:00006ffc       ??_C@_06OOPIFAJ@Sunday@    0000000180067ffc     libucrt:nlsdata.obj
 0002:00007004       ??_C@_06JLEDEDGH@Monday@   0000000180068004     libucrt:nlsdata.obj
 0002:00007010       ??_C@_07BAAGCFCM@Tuesday@  0000000180068010     libucrt:nlsdata.obj
 0002:00007018       ??_C@_09DLIGFAKA@Wednesday@ 0000000180068018     libucrt:nlsdata.obj
 0002:00007028       ??_C@_08HACCIKIA@Thursday@ 0000000180068028     libucrt:nlsdata.obj
 0002:00007034       ??_C@_06JECMNKMI@Friday@   0000000180068034     libucrt:nlsdata.obj
 0002:00007040       ??_C@_08INBOOONO@Saturday@ 0000000180068040     libucrt:nlsdata.obj
 0002:0000704c       ??_C@_03JIHJHPIE@Jan@      000000018006804c     libucrt:nlsdata.obj
 0002:00007050       ??_C@_03HJBDCHOM@Feb@      0000000180068050     libucrt:nlsdata.obj
 0002:00007054       ??_C@_03ODNJBKGA@Mar@      0000000180068054     libucrt:nlsdata.obj
 0002:00007058       ??_C@_03LEOLGMJP@Apr@      0000000180068058     libucrt:nlsdata.obj
 0002:0000705c       ??_C@_03CNMDKL@May@        000000018006805c     libucrt:nlsdata.obj
 0002:00007060       ??_C@_03IDFGHECI@Jun@      0000000180068060     libucrt:nlsdata.obj
 0002:00007064       ??_C@_03LBGABGKK@Jul@      0000000180068064     libucrt:nlsdata.obj
 0002:00007068       ??_C@_03IFJFEIGA@Aug@      0000000180068068     libucrt:nlsdata.obj
 0002:0000706c       ??_C@_03GGCAPAJC@Sep@      000000018006806c     libucrt:nlsdata.obj
 0002:00007070       ??_C@_03BMAOKBAD@Oct@      0000000180068070     libucrt:nlsdata.obj
 0002:00007074       ??_C@_03JPJOFNIA@Nov@      0000000180068074     libucrt:nlsdata.obj
 0002:00007078       ??_C@_03MKABNOCG@Dec@      0000000180068078     libucrt:nlsdata.obj
 0002:00007080       ??_C@_07CGJPFGJA@January@  0000000180068080     libucrt:nlsdata.obj
 0002:00007088       ??_C@_08GNJGEPFN@February@ 0000000180068088     libucrt:nlsdata.obj
 0002:00007094       ??_C@_05HPCKOFNC@March@    0000000180068094     libucrt:nlsdata.obj
 0002:0000709c       ??_C@_05DMJDNLEJ@April@    000000018006809c     libucrt:nlsdata.obj
 0002:000070a4       ??_C@_04CNLMGBGM@June@     00000001800680a4     libucrt:nlsdata.obj
 0002:000070ac       ??_C@_04MIEPOIFP@July@     00000001800680ac     libucrt:nlsdata.obj
 0002:000070b4       ??_C@_06LBBHFDDG@August@   00000001800680b4     libucrt:nlsdata.obj
 0002:000070c0       ??_C@_09BHHEALKD@September@ 00000001800680c0     libucrt:nlsdata.obj
 0002:000070d0       ??_C@_07JJNFCEND@October@  00000001800680d0     libucrt:nlsdata.obj
 0002:000070d8       ??_C@_08HCHEGEOA@November@ 00000001800680d8     libucrt:nlsdata.obj
 0002:000070e8       ??_C@_08EDHMEBNP@December@ 00000001800680e8     libucrt:nlsdata.obj
 0002:000070f4       ??_C@_02DEDBPAFC@AM@       00000001800680f4     libucrt:nlsdata.obj
 0002:000070f8       ??_C@_02CJNFDJBF@PM@       00000001800680f8     libucrt:nlsdata.obj
 0002:00007100       ??_C@_08BPBNCDIB@MM?1dd?1yy@ 0000000180068100     libucrt:nlsdata.obj
 0002:00007110       ??_C@_0BE@CKGJFCPC@dddd?0?5MMMM?5dd?0?5yyyy@ 0000000180068110     libucrt:nlsdata.obj
 0002:00007128       ??_C@_08JCCMCCIL@HH?3mm?3ss@ 0000000180068128     libucrt:nlsdata.obj
 0002:00007138       ??_C@_17MBGCMIPB@?$AAS?$AAu?$AAn@ 0000000180068138     libucrt:nlsdata.obj
 0002:00007140       ??_C@_17KBOMKBF@?$AAM?$AAo?$AAn@ 0000000180068140     libucrt:nlsdata.obj
 0002:00007148       ??_C@_17BMKGEGOJ@?$AAT?$AAu?$AAe@ 0000000180068148     libucrt:nlsdata.obj
 0002:00007150       ??_C@_17CJEDCEPE@?$AAW?$AAe?$AAd@ 0000000180068150     libucrt:nlsdata.obj
 0002:00007158       ??_C@_17PDPHAADD@?$AAT?$AAh?$AAu@ 0000000180068158     libucrt:nlsdata.obj
 0002:00007160       ??_C@_17HFOLPPLP@?$AAF?$AAr?$AAi@ 0000000180068160     libucrt:nlsdata.obj
 0002:00007168       ??_C@_17GGIBDPIH@?$AAS?$AAa?$AAt@ 0000000180068168     libucrt:nlsdata.obj
 0002:00007170       ??_C@_1O@IHNHDHPB@?$AAS?$AAu?$AAn?$AAd?$AAa?$AAy@ 0000000180068170     libucrt:nlsdata.obj
 0002:00007180       ??_C@_1O@MMNBFLIA@?$AAM?$AAo?$AAn?$AAd?$AAa?$AAy@ 0000000180068180     libucrt:nlsdata.obj
 0002:00007190       ??_C@_1BA@ENFBFFEK@?$AAT?$AAu?$AAe?$AAs?$AAd?$AAa?$AAy@ 0000000180068190     libucrt:nlsdata.obj
 0002:000071a0       ??_C@_1BE@EBOGMDOH@?$AAW?$AAe?$AAd?$AAn?$AAe?$AAs?$AAd?$AAa?$AAy@ 00000001800681a0     libucrt:nlsdata.obj
 0002:000071b8       ??_C@_1BC@HHMNLIHE@?$AAT?$AAh?$AAu?$AAr?$AAs?$AAd?$AAa?$AAy@ 00000001800681b8     libucrt:nlsdata.obj
 0002:000071d0       ??_C@_1O@PDICJHAG@?$AAF?$AAr?$AAi?$AAd?$AAa?$AAy@ 00000001800681d0     libucrt:nlsdata.obj
 0002:000071e0       ??_C@_1BC@ENMNNPAJ@?$AAS?$AAa?$AAt?$AAu?$AAr?$AAd?$AAa?$AAy@ 00000001800681e0     libucrt:nlsdata.obj
 0002:000071f8       ??_C@_17DKNBKCHM@?$AAJ?$AAa?$AAn@ 00000001800681f8     libucrt:nlsdata.obj
 0002:00007200       ??_C@_17LMDJEKJN@?$AAF?$AAe?$AAb@ 0000000180068200     libucrt:nlsdata.obj
 0002:00007208       ??_C@_17CKNLEDEC@?$AAM?$AAa?$AAr@ 0000000180068208     libucrt:nlsdata.obj
 0002:00007210       ??_C@_17LFPOIHDD@?$AAA?$AAp?$AAr@ 0000000180068210     libucrt:nlsdata.obj
 0002:00007218       ??_C@_17PNNKMEED@?$AAM?$AAa?$AAy@ 0000000180068218     libucrt:nlsdata.obj
 0002:00007220       ??_C@_17KCJGOCPB@?$AAJ?$AAu?$AAn@ 0000000180068220     libucrt:nlsdata.obj
 0002:00007228       ??_C@_17IJPCKHK@?$AAJ?$AAu?$AAl@ 0000000180068228     libucrt:nlsdata.obj
 0002:00007230       ??_C@_17ICPELBCN@?$AAA?$AAu?$AAg@ 0000000180068230     libucrt:nlsdata.obj
 0002:00007238       ??_C@_17HCHCOKMG@?$AAS?$AAe?$AAp@ 0000000180068238     libucrt:nlsdata.obj
 0002:00007240       ??_C@_17FNLKOI@?$AAO?$AAc?$AAt@ 0000000180068240     libucrt:nlsdata.obj
 0002:00007248       ??_C@_17BBDMLCIG@?$AAN?$AAo?$AAv@ 0000000180068248     libucrt:nlsdata.obj
 0002:00007250       ??_C@_17EGKACKIF@?$AAD?$AAe?$AAc@ 0000000180068250     libucrt:nlsdata.obj
 0002:00007258       ??_C@_1BA@EFMEIEBA@?$AAJ?$AAa?$AAn?$AAu?$AAa?$AAr?$AAy@ 0000000180068258     libucrt:nlsdata.obj
 0002:00007268       ??_C@_1BC@JGDDFFAM@?$AAF?$AAe?$AAb?$AAr?$AAu?$AAa?$AAr?$AAy@ 0000000180068268     libucrt:nlsdata.obj
 0002:00007280       ??_C@_1M@IKEENEDF@?$AAM?$AAa?$AAr?$AAc?$AAh@ 0000000180068280     libucrt:nlsdata.obj
 0002:00007290       ??_C@_1M@GJNLMHFD@?$AAA?$AAp?$AAr?$AAi?$AAl@ 0000000180068290     libucrt:nlsdata.obj
 0002:000072a0       ??_C@_19EPFLPGAP@?$AAJ?$AAu?$AAn?$AAe@ 00000001800682a0     libucrt:nlsdata.obj
 0002:000072b0       ??_C@_19BIFMLPCD@?$AAJ?$AAu?$AAl?$AAy@ 00000001800682b0     libucrt:nlsdata.obj
 0002:000072c0       ??_C@_1O@PAHLKOAC@?$AAA?$AAu?$AAg?$AAu?$AAs?$AAt@ 00000001800682c0     libucrt:nlsdata.obj
 0002:000072d0       ??_C@_1BE@DKAAMBJL@?$AAS?$AAe?$AAp?$AAt?$AAe?$AAm?$AAb?$AAe?$AAr@ 00000001800682d0     libucrt:nlsdata.obj
 0002:000072e8       ??_C@_1BA@EPANDLNG@?$AAO?$AAc?$AAt?$AAo?$AAb?$AAe?$AAr@ 00000001800682e8     libucrt:nlsdata.obj
 0002:000072f8       ??_C@_1BC@BGLIFPF@?$AAN?$AAo?$AAv?$AAe?$AAm?$AAb?$AAe?$AAr@ 00000001800682f8     libucrt:nlsdata.obj
 0002:00007310       ??_C@_1BC@FEMKIFH@?$AAD?$AAe?$AAc?$AAe?$AAm?$AAb?$AAe?$AAr@ 0000000180068310     libucrt:nlsdata.obj
 0002:00007324       ??_C@_15ODEHAHHF@?$AAA?$AAM@ 0000000180068324     libucrt:nlsdata.obj
 0002:0000732c       ??_C@_15CLMNNGEL@?$AAP?$AAM@ 000000018006832c     libucrt:nlsdata.obj
 0002:00007338       ??_C@_1BC@IEBCMHCM@?$AAM?$AAM?$AA?1?$AAd?$AAd?$AA?1?$AAy?$AAy@ 0000000180068338     libucrt:nlsdata.obj
 0002:00007350       ??_C@_1CI@KNAKOEBC@?$AAd?$AAd?$AAd?$AAd?$AA?0?$AA?5?$AAM?$AAM?$AAM?$AAM?$AA?5?$AAd?$AAd?$AA?0?$AA?5@ 0000000180068350     libucrt:nlsdata.obj
 0002:00007378       ??_C@_1BC@GDGBMEMK@?$AAH?$AAH?$AA?3?$AAm?$AAm?$AA?3?$AAs?$AAs@ 0000000180068378     libucrt:nlsdata.obj
 0002:00007390       ??_C@_1M@BMHNFIME@?$AAe?$AAn?$AA?9?$AAU?$AAS@ 0000000180068390     libucrt:nlsdata.obj
 0002:00007570       ??_C@_03KHJOGHMM@exp@      0000000180068570     libucrt:fpexcept.obj
 0002:00007574       ??_C@_03JGHBODFD@pow@      0000000180068574     libucrt:fpexcept.obj
 0002:00007578       ??_C@_03MGHMBJCF@log@      0000000180068578     libucrt:fpexcept.obj
 0002:0000757c       ??_C@_05HGHHAHAP@log10@    000000018006857c     libucrt:fpexcept.obj
 0002:00007584       ??_C@_04COOMCNPB@sinh@     0000000180068584     libucrt:fpexcept.obj
 0002:0000758c       ??_C@_04HPJJNFIM@cosh@     000000018006858c     libucrt:fpexcept.obj
 0002:00007594       ??_C@_04FJHINJAO@tanh@     0000000180068594     libucrt:fpexcept.obj
 0002:0000759c       ??_C@_04FIHNOPOL@asin@     000000018006859c     libucrt:fpexcept.obj
 0002:000075a4       ??_C@_04PDIFKINK@acos@     00000001800685a4     libucrt:fpexcept.obj
 0002:000075ac       ??_C@_04MLLJIGOK@atan@     00000001800685ac     libucrt:fpexcept.obj
 0002:000075b4       ??_C@_05KNGEOGJB@atan2@    00000001800685b4     libucrt:fpexcept.obj
 0002:000075bc       ??_C@_04EIAKFFMI@sqrt@     00000001800685bc     libucrt:fpexcept.obj
 0002:000075c4       ??_C@_03BLEJJJBH@sin@      00000001800685c4     libucrt:fpexcept.obj
 0002:000075c8       ??_C@_03LALBNOCG@cos@      00000001800685c8     libucrt:fpexcept.obj
 0002:000075cc       ??_C@_03IIINPABG@tan@      00000001800685cc     libucrt:fpexcept.obj
 0002:000075d0       ??_C@_04GFPJNGEK@ceil@     00000001800685d0     libucrt:fpexcept.obj
 0002:000075d8       ??_C@_05PBJFFIGL@floor@    00000001800685d8     libucrt:fpexcept.obj
 0002:000075e0       ??_C@_04ODHECPBC@fabs@     00000001800685e0     libucrt:fpexcept.obj
 0002:000075e8       ??_C@_04EHEDPDJG@modf@     00000001800685e8     libucrt:fpexcept.obj
 0002:000075f0       ??_C@_05CEJMAHNP@ldexp@    00000001800685f0     libucrt:fpexcept.obj
 0002:000075f8       ??_C@_05KBKMEMPO@_cabs@    00000001800685f8     libucrt:fpexcept.obj
 0002:00007600       ??_C@_06MEIMCGCF@_hypot@   0000000180068600     libucrt:fpexcept.obj
 0002:00007608       ??_C@_04KEPJIHGP@fmod@     0000000180068608     libucrt:fpexcept.obj
 0002:00007610       ??_C@_05GKKHEGJL@frexp@    0000000180068610     libucrt:fpexcept.obj
 0002:00007618       ??_C@_03MJLDFKDL@_y0@      0000000180068618     libucrt:fpexcept.obj
 0002:0000761c       ??_C@_03NAKIGLHK@_y1@      000000018006861c     libucrt:fpexcept.obj
 0002:00007620       ??_C@_03ONILCKOB@_yn@      0000000180068620     libucrt:fpexcept.obj
 0002:00007624       ??_C@_05JGDBENOH@_logb@    0000000180068624     libucrt:fpexcept.obj
 0002:00007630       ??_C@_0L@KDOEJCKC@_nextafter@ 0000000180068630     libucrt:fpexcept.obj
 0002:00007640       _d_inf                     0000000180068640     libucrt:util.obj
 0002:00007648       _d_max                     0000000180068648     libucrt:util.obj
 0002:000076f0       ??_C@_1EA@JGEFHKEI@?$AAa?$AAp?$AAi?$AA?9?$AAm?$AAs?$AA?9?$AAw?$AAi?$AAn?$AA?9?$AAc?$AAo?$AAr?$AAe@ 00000001800686f0     libucrt:winapi_thunks.obj
 0002:00007730       ??_C@_1DI@IJCEHOCB@?$AAa?$AAp?$AAi?$AA?9?$AAm?$AAs?$AA?9?$AAw?$AAi?$AAn?$AA?9?$AAc?$AAo?$AAr?$AAe@ 0000000180068730     libucrt:winapi_thunks.obj
 0002:00007770       ??_C@_1EI@MPIAOHOC@?$AAa?$AAp?$AAi?$AA?9?$AAm?$AAs?$AA?9?$AAw?$AAi?$AAn?$AA?9?$AAc?$AAo?$AAr?$AAe@ 0000000180068770     libucrt:winapi_thunks.obj
 0002:000077c0       ??_C@_1FK@FPHCKFIE@?$AAa?$AAp?$AAi?$AA?9?$AAm?$AAs?$AA?9?$AAw?$AAi?$AAn?$AA?9?$AAc?$AAo?$AAr?$AAe@ 00000001800687c0     libucrt:winapi_thunks.obj
 0002:00007820       ??_C@_1EM@DILCGIIO@?$AAa?$AAp?$AAi?$AA?9?$AAm?$AAs?$AA?9?$AAw?$AAi?$AAn?$AA?9?$AAc?$AAo?$AAr?$AAe@ 0000000180068820     libucrt:winapi_thunks.obj
 0002:00007870       ??_C@_1DM@LNCGDDPN@?$AAa?$AAp?$AAi?$AA?9?$AAm?$AAs?$AA?9?$AAw?$AAi?$AAn?$AA?9?$AAc?$AAo?$AAr?$AAe@ 0000000180068870     libucrt:winapi_thunks.obj
 0002:000078b0       ??_C@_1DO@FPAPJEMD@?$AAa?$AAp?$AAi?$AA?9?$AAm?$AAs?$AA?9?$AAw?$AAi?$AAn?$AA?9?$AAc?$AAo?$AAr?$AAe@ 00000001800688b0     libucrt:winapi_thunks.obj
 0002:000078f0       ??_C@_1DK@NDHNAHIO@?$AAa?$AAp?$AAi?$AA?9?$AAm?$AAs?$AA?9?$AAw?$AAi?$AAn?$AA?9?$AAc?$AAo?$AAr?$AAe@ 00000001800688f0     libucrt:winapi_thunks.obj
 0002:00007930       ??_C@_1DM@KGHDGBCM@?$AAa?$AAp?$AAi?$AA?9?$AAm?$AAs?$AA?9?$AAw?$AAi?$AAn?$AA?9?$AAc?$AAo?$AAr?$AAe@ 0000000180068930     libucrt:winapi_thunks.obj
 0002:00007970       ??_C@_1EO@IJIOEFOH@?$AAa?$AAp?$AAi?$AA?9?$AAm?$AAs?$AA?9?$AAw?$AAi?$AAn?$AA?9?$AAr?$AAt?$AAc?$AAo@ 0000000180068970     libucrt:winapi_thunks.obj
 0002:000079c0       ??_C@_1FG@HHGEKANL@?$AAa?$AAp?$AAi?$AA?9?$AAm?$AAs?$AA?9?$AAw?$AAi?$AAn?$AA?9?$AAs?$AAe?$AAc?$AAu@ 00000001800689c0     libucrt:winapi_thunks.obj
 0002:00007a20       ??_C@_1EG@DBIOJECG@?$AAe?$AAx?$AAt?$AA?9?$AAm?$AAs?$AA?9?$AAw?$AAi?$AAn?$AA?9?$AAn?$AAt?$AAu?$AAs@ 0000000180068a20     libucrt:winapi_thunks.obj
 0002:00007a70       ??_C@_1EO@FIHMJCLF@?$AAe?$AAx?$AAt?$AA?9?$AAm?$AAs?$AA?9?$AAw?$AAi?$AAn?$AA?9?$AAn?$AAt?$AAu?$AAs@ 0000000180068a70     libucrt:winapi_thunks.obj
 0002:00007ac0       ??_C@_1BC@DNHGCMLG@?$AAa?$AAd?$AAv?$AAa?$AAp?$AAi?$AA3?$AA2@ 0000000180068ac0     libucrt:winapi_thunks.obj
 0002:00007ad8       ??_C@_1M@OAIMIKLP@?$AAn?$AAt?$AAd?$AAl?$AAl@ 0000000180068ad8     libucrt:winapi_thunks.obj
 0002:00007af0       ??_C@_1EG@DPGNFKGC@?$AAa?$AAp?$AAi?$AA?9?$AAm?$AAs?$AA?9?$AAw?$AAi?$AAn?$AA?9?$AAa?$AAp?$AAp?$AAm@ 0000000180068af0     libucrt:winapi_thunks.obj
 0002:00007b38       ??_C@_1O@BCCLBEOE@?$AAu?$AAs?$AAe?$AAr?$AA3?$AA2@ 0000000180068b38     libucrt:winapi_thunks.obj
 0002:00007b48       ??_C@_1BA@IAIFMGEF@?$AAe?$AAx?$AAt?$AA?9?$AAm?$AAs?$AA?9@ 0000000180068b48     libucrt:winapi_thunks.obj
 0002:00007b60       ??_C@_0BA@FHFNEAED@AreFileApisANSI@ 0000000180068b60     libucrt:winapi_thunks.obj
 0002:00007b80       ??_C@_0BE@LJANKFHF@EnumSystemLocalesEx@ 0000000180068b80     libucrt:winapi_thunks.obj
 0002:00007bc0       ??_C@_0BA@EPCJIIPD@GetDateFormatEx@ 0000000180068bc0     libucrt:winapi_thunks.obj
 0002:00007be0       ??_C@_0BA@CIJJKCJJ@GetTimeFormatEx@ 0000000180068be0     libucrt:winapi_thunks.obj
 0002:00007bf8       ??_C@_0BJ@PBCCBIPI@GetUserDefaultLocaleName@ 0000000180068bf8     libucrt:winapi_thunks.obj
 0002:00007c28       ??_C@_0BC@CELBKLLA@IsValidLocaleName@ 0000000180068c28     libucrt:winapi_thunks.obj
 0002:00007c50       ??_C@_0BB@CDHDDLLP@LCIDToLocaleName@ 0000000180068c50     libucrt:winapi_thunks.obj
 0002:00007c70       ??_C@_0BB@HBDEELFH@LocaleNameToLCID@ 0000000180068c70     libucrt:winapi_thunks.obj
 0002:00007c88       ??_C@_0CF@OJOFEIGO@AppPolicyGetProcessTerminationM@ 0000000180068c88     libucrt:winapi_thunks.obj
 0002:00007cd8       ?ccs@?1???$__acrt_stdio_parse_mode@D@@YA?AU__acrt_stdio_stream_mode@@QEBD@Z@4QBDB 0000000180068cd8     libucrt:openfile.obj
 0002:00007cdc       ?utf8_encoding@?1???$__acrt_stdio_parse_mode@D@@YA?AU__acrt_stdio_stream_mode@@QEBD@Z@4QBDB 0000000180068cdc     libucrt:openfile.obj
 0002:00007ce8       ?utf16_encoding@?1???$__acrt_stdio_parse_mode@D@@YA?AU__acrt_stdio_stream_mode@@QEBD@Z@4QBDB 0000000180068ce8     libucrt:openfile.obj
 0002:00007cf0       ?unicode_encoding@?1???$__acrt_stdio_parse_mode@D@@YA?AU__acrt_stdio_stream_mode@@QEBD@Z@4QBDB 0000000180068cf0     libucrt:openfile.obj
 0002:00007d00       __log_256_lead             0000000180068d00     libucrt:log_256_lead_tail_table.obj
 0002:00008510       __log_256_tail             0000000180069510     libucrt:log_256_lead_tail_table.obj
 0002:00008d20       __two_to_jby64_head_table  0000000180069d20     libucrt:two_to_jby64_head_tail_table.obj
 0002:00008f20       __two_to_jby64_tail_table  0000000180069f20     libucrt:two_to_jby64_head_tail_table.obj
 0002:00009120       ??_C@_04MBFDLNIM@powf@     000000018006a120     libucrt:pow_special.obj
 0002:00009130       __two_to_jby64_table       000000018006a130     libucrt:two_to_jby64_table.obj
 0002:00009330       __log_F_inv_qword          000000018006a330     libucrt:log_f_inv_qword_table.obj
 0002:00009b60       ??_C@_1M@HPNHIDJI@?$AAj?$AAa?$AA?9?$AAJ?$AAP@ 000000018006ab60     libucrt:mbctype.obj
 0002:00009b70       ??_C@_1M@BIBDDEMK@?$AAz?$AAh?$AA?9?$AAC?$AAN@ 000000018006ab70     libucrt:mbctype.obj
 0002:00009b80       ??_C@_1M@JLOOOEGK@?$AAk?$AAo?$AA?9?$AAK?$AAR@ 000000018006ab80     libucrt:mbctype.obj
 0002:00009b90       ??_C@_1M@CLNBBOPM@?$AAz?$AAh?$AA?9?$AAT?$AAW@ 000000018006ab90     libucrt:mbctype.obj
 0002:00009b9c       ??_C@_05DNEBIAHO@1?$CDINF@ 000000018006ab9c     libucrt:cfout.obj
 0002:00009ba4       ??_C@_06IMKFLFPG@1?$CDQNAN@ 000000018006aba4     libucrt:cfout.obj
 0002:00009bac       ??_C@_06PGGFOGJG@1?$CDSNAN@ 000000018006abac     libucrt:cfout.obj
 0002:00009bb4       ??_C@_05PHHOCPM@1?$CDIND@  000000018006abb4     libucrt:cfout.obj
 0002:00009bc0       __acrt_rg_language         000000018006abc0     libucrt:get_qualified_locale.obj
 0002:00009fd0       __acrt_rg_language_count   000000018006afd0     libucrt:get_qualified_locale.obj
 0002:00009fe0       __acrt_rg_country          000000018006afe0     libucrt:get_qualified_locale.obj
 0002:0000a150       __acrt_rg_country_count    000000018006b150     libucrt:get_qualified_locale.obj
 0002:0000a158       ??_C@_1BC@LLOKLNP@?$AAa?$AAm?$AAe?$AAr?$AAi?$AAc?$AAa?$AAn@ 000000018006b158     libucrt:get_qualified_locale.obj
 0002:0000a170       ??_C@_1CC@HEIGCDGG@?$AAa?$AAm?$AAe?$AAr?$AAi?$AAc?$AAa?$AAn?$AA?5?$AAe?$AAn?$AAg?$AAl?$AAi?$AAs@ 000000018006b170     libucrt:get_qualified_locale.obj
 0002:0000a198       ??_C@_1CC@IHCNOMIN@?$AAa?$AAm?$AAe?$AAr?$AAi?$AAc?$AAa?$AAn?$AA?9?$AAe?$AAn?$AAg?$AAl?$AAi?$AAs@ 000000018006b198     libucrt:get_qualified_locale.obj
 0002:0000a1c0       ??_C@_1BG@GKAGPCGG@?$AAa?$AAu?$AAs?$AAt?$AAr?$AAa?$AAl?$AAi?$AAa?$AAn@ 000000018006b1c0     libucrt:get_qualified_locale.obj
 0002:0000a1d8       ??_C@_1BA@GMENCENF@?$AAb?$AAe?$AAl?$AAg?$AAi?$AAa?$AAn@ 000000018006b1d8     libucrt:get_qualified_locale.obj
 0002:0000a1e8       ??_C@_1BC@PJMIIAAN@?$AAc?$AAa?$AAn?$AAa?$AAd?$AAi?$AAa?$AAn@ 000000018006b1e8     libucrt:get_qualified_locale.obj
 0002:0000a200       ??_C@_17NOIMNFBF@?$AAc?$AAh?$AAh@ 000000018006b200     libucrt:get_qualified_locale.obj
 0002:0000a208       ??_C@_17GGDALCHA@?$AAc?$AAh?$AAi@ 000000018006b208     libucrt:get_qualified_locale.obj
 0002:0000a210       ??_C@_1BA@NPNJKIBL@?$AAc?$AAh?$AAi?$AAn?$AAe?$AAs?$AAe@ 000000018006b210     libucrt:get_qualified_locale.obj
 0002:0000a220       ??_C@_1CC@DINBAMMJ@?$AAc?$AAh?$AAi?$AAn?$AAe?$AAs?$AAe?$AA?9?$AAh?$AAo?$AAn?$AAg?$AAk?$AAo?$AAn@ 000000018006b220     libucrt:get_qualified_locale.obj
 0002:0000a248       ??_C@_1CG@IOBJPACO@?$AAc?$AAh?$AAi?$AAn?$AAe?$AAs?$AAe?$AA?9?$AAs?$AAi?$AAm?$AAp?$AAl?$AAi?$AAf@ 000000018006b248     libucrt:get_qualified_locale.obj
 0002:0000a270       ??_C@_1CE@GAJNDCKG@?$AAc?$AAh?$AAi?$AAn?$AAe?$AAs?$AAe?$AA?9?$AAs?$AAi?$AAn?$AAg?$AAa?$AAp?$AAo@ 000000018006b270     libucrt:get_qualified_locale.obj
 0002:0000a298       ??_C@_1CI@PAJPIOOD@?$AAc?$AAh?$AAi?$AAn?$AAe?$AAs?$AAe?$AA?9?$AAt?$AAr?$AAa?$AAd?$AAi?$AAt?$AAi@ 000000018006b298     libucrt:get_qualified_locale.obj
 0002:0000a2c0       ??_C@_1BM@NILJBMMD@?$AAd?$AAu?$AAt?$AAc?$AAh?$AA?9?$AAb?$AAe?$AAl?$AAg?$AAi?$AAa?$AAn@ 000000018006b2c0     libucrt:get_qualified_locale.obj
 0002:0000a2e0       ??_C@_1CC@OOJPJNEJ@?$AAe?$AAn?$AAg?$AAl?$AAi?$AAs?$AAh?$AA?9?$AAa?$AAm?$AAe?$AAr?$AAi?$AAc?$AAa@ 000000018006b2e0     libucrt:get_qualified_locale.obj
 0002:0000a308       ??_C@_1BI@IOLFEEM@?$AAe?$AAn?$AAg?$AAl?$AAi?$AAs?$AAh?$AA?9?$AAa?$AAu?$AAs@ 000000018006b308     libucrt:get_qualified_locale.obj
 0002:0000a320       ??_C@_1BO@HFFNLENJ@?$AAe?$AAn?$AAg?$AAl?$AAi?$AAs?$AAh?$AA?9?$AAb?$AAe?$AAl?$AAi?$AAz?$AAe@ 000000018006b320     libucrt:get_qualified_locale.obj
 0002:0000a340       ??_C@_1BI@HAPKJMPO@?$AAe?$AAn?$AAg?$AAl?$AAi?$AAs?$AAh?$AA?9?$AAc?$AAa?$AAn@ 000000018006b340     libucrt:get_qualified_locale.obj
 0002:0000a358       ??_C@_1CE@HLNDMIOJ@?$AAe?$AAn?$AAg?$AAl?$AAi?$AAs?$AAh?$AA?9?$AAc?$AAa?$AAr?$AAi?$AAb?$AAb?$AAe@ 000000018006b358     libucrt:get_qualified_locale.obj
 0002:0000a380       ??_C@_1BI@LDHJHHAC@?$AAe?$AAn?$AAg?$AAl?$AAi?$AAs?$AAh?$AA?9?$AAi?$AAr?$AAe@ 000000018006b380     libucrt:get_qualified_locale.obj
 0002:0000a398       ??_C@_1CA@NJMMCFOC@?$AAe?$AAn?$AAg?$AAl?$AAi?$AAs?$AAh?$AA?9?$AAj?$AAa?$AAm?$AAa?$AAi?$AAc?$AAa@ 000000018006b398     libucrt:get_qualified_locale.obj
 0002:0000a3b8       ??_C@_1BG@BHJEBBGG@?$AAe?$AAn?$AAg?$AAl?$AAi?$AAs?$AAh?$AA?9?$AAn?$AAz@ 000000018006b3b8     libucrt:get_qualified_locale.obj
 0002:0000a3d0       ??_C@_1CK@FGOEJJCO@?$AAe?$AAn?$AAg?$AAl?$AAi?$AAs?$AAh?$AA?9?$AAs?$AAo?$AAu?$AAt?$AAh?$AA?5?$AAa@ 000000018006b3d0     libucrt:get_qualified_locale.obj
 0002:0000a400       ??_C@_1DE@PDBJPCJ@?$AAe?$AAn?$AAg?$AAl?$AAi?$AAs?$AAh?$AA?9?$AAt?$AAr?$AAi?$AAn?$AAi?$AAd?$AAa@ 000000018006b400     libucrt:get_qualified_locale.obj
 0002:0000a438       ??_C@_1BG@JGCANDME@?$AAe?$AAn?$AAg?$AAl?$AAi?$AAs?$AAh?$AA?9?$AAu?$AAk@ 000000018006b438     libucrt:get_qualified_locale.obj
 0002:0000a450       ??_C@_1BG@DINKMLE@?$AAe?$AAn?$AAg?$AAl?$AAi?$AAs?$AAh?$AA?9?$AAu?$AAs@ 000000018006b450     libucrt:get_qualified_locale.obj
 0002:0000a468       ??_C@_1BI@NMFDBHJE@?$AAe?$AAn?$AAg?$AAl?$AAi?$AAs?$AAh?$AA?9?$AAu?$AAs?$AAa@ 000000018006b468     libucrt:get_qualified_locale.obj
 0002:0000a480       ??_C@_1BO@OIHKJKII@?$AAf?$AAr?$AAe?$AAn?$AAc?$AAh?$AA?9?$AAb?$AAe?$AAl?$AAg?$AAi?$AAa?$AAn@ 000000018006b480     libucrt:get_qualified_locale.obj
 0002:0000a4a0       ??_C@_1CA@NKAELJKI@?$AAf?$AAr?$AAe?$AAn?$AAc?$AAh?$AA?9?$AAc?$AAa?$AAn?$AAa?$AAd?$AAi?$AAa?$AAn@ 000000018006b4a0     libucrt:get_qualified_locale.obj
 0002:0000a4c0       ??_C@_1CE@MGKCNLGN@?$AAf?$AAr?$AAe?$AAn?$AAc?$AAh?$AA?9?$AAl?$AAu?$AAx?$AAe?$AAm?$AAb?$AAo?$AAu@ 000000018006b4c0     libucrt:get_qualified_locale.obj
 0002:0000a4e8       ??_C@_1BK@CEGEAILM@?$AAf?$AAr?$AAe?$AAn?$AAc?$AAh?$AA?9?$AAs?$AAw?$AAi?$AAs?$AAs@ 000000018006b4e8     libucrt:get_qualified_locale.obj
 0002:0000a508       ??_C@_1CA@PAFKEOCC@?$AAg?$AAe?$AAr?$AAm?$AAa?$AAn?$AA?9?$AAa?$AAu?$AAs?$AAt?$AAr?$AAi?$AAa?$AAn@ 000000018006b508     libucrt:get_qualified_locale.obj
 0002:0000a528       ??_C@_1CI@HCFHGOFD@?$AAg?$AAe?$AAr?$AAm?$AAa?$AAn?$AA?9?$AAl?$AAi?$AAc?$AAh?$AAt?$AAe?$AAn?$AAs@ 000000018006b528     libucrt:get_qualified_locale.obj
 0002:0000a550       ??_C@_1CE@FEDDNPDG@?$AAg?$AAe?$AAr?$AAm?$AAa?$AAn?$AA?9?$AAl?$AAu?$AAx?$AAe?$AAm?$AAb?$AAo?$AAu@ 000000018006b550     libucrt:get_qualified_locale.obj
 0002:0000a578       ??_C@_1BK@LIMINNMN@?$AAg?$AAe?$AAr?$AAm?$AAa?$AAn?$AA?9?$AAs?$AAw?$AAi?$AAs?$AAs@ 000000018006b578     libucrt:get_qualified_locale.obj
 0002:0000a598       ??_C@_1BM@LGMDBEPD@?$AAi?$AAr?$AAi?$AAs?$AAh?$AA?9?$AAe?$AAn?$AAg?$AAl?$AAi?$AAs?$AAh@ 000000018006b598     libucrt:get_qualified_locale.obj
 0002:0000a5b8       ??_C@_1BM@NNCFBAEE@?$AAi?$AAt?$AAa?$AAl?$AAi?$AAa?$AAn?$AA?9?$AAs?$AAw?$AAi?$AAs?$AAs@ 000000018006b5b8     libucrt:get_qualified_locale.obj
 0002:0000a5d8       ??_C@_1BE@FEDJNPIB@?$AAn?$AAo?$AAr?$AAw?$AAe?$AAg?$AAi?$AAa?$AAn@ 000000018006b5d8     libucrt:get_qualified_locale.obj
 0002:0000a5f0       ??_C@_1CC@CILKDEIE@?$AAn?$AAo?$AAr?$AAw?$AAe?$AAg?$AAi?$AAa?$AAn?$AA?9?$AAb?$AAo?$AAk?$AAm?$AAa@ 000000018006b5f0     libucrt:get_qualified_locale.obj
 0002:0000a618       ??_C@_1CE@DHMMHEPL@?$AAn?$AAo?$AAr?$AAw?$AAe?$AAg?$AAi?$AAa?$AAn?$AA?9?$AAn?$AAy?$AAn?$AAo?$AAr@ 000000018006b618     libucrt:get_qualified_locale.obj
 0002:0000a640       ??_C@_1CK@OPNMHECD@?$AAp?$AAo?$AAr?$AAt?$AAu?$AAg?$AAu?$AAe?$AAs?$AAe?$AA?9?$AAb?$AAr?$AAa?$AAz@ 000000018006b640     libucrt:get_qualified_locale.obj
 0002:0000a670       ??_C@_1CE@KEEHCDB@?$AAs?$AAp?$AAa?$AAn?$AAi?$AAs?$AAh?$AA?9?$AAa?$AAr?$AAg?$AAe?$AAn?$AAt?$AAi@ 000000018006b670     libucrt:get_qualified_locale.obj
 0002:0000a698       ??_C@_1CA@GIAOLHJD@?$AAs?$AAp?$AAa?$AAn?$AAi?$AAs?$AAh?$AA?9?$AAb?$AAo?$AAl?$AAi?$AAv?$AAi?$AAa@ 000000018006b698     libucrt:get_qualified_locale.obj
 0002:0000a6b8       ??_C@_1BM@OJNDFNPD@?$AAs?$AAp?$AAa?$AAn?$AAi?$AAs?$AAh?$AA?9?$AAc?$AAh?$AAi?$AAl?$AAe@ 000000018006b6b8     libucrt:get_qualified_locale.obj
 0002:0000a6d8       ??_C@_1CC@OCOLPALL@?$AAs?$AAp?$AAa?$AAn?$AAi?$AAs?$AAh?$AA?9?$AAc?$AAo?$AAl?$AAo?$AAm?$AAb?$AAi@ 000000018006b6d8     libucrt:get_qualified_locale.obj
 0002:0000a700       ??_C@_1CG@BPOFMKBB@?$AAs?$AAp?$AAa?$AAn?$AAi?$AAs?$AAh?$AA?9?$AAc?$AAo?$AAs?$AAt?$AAa?$AA?5?$AAr@ 000000018006b700     libucrt:get_qualified_locale.obj
 0002:0000a728       ??_C@_1DG@IGOBAPBB@?$AAs?$AAp?$AAa?$AAn?$AAi?$AAs?$AAh?$AA?9?$AAd?$AAo?$AAm?$AAi?$AAn?$AAi?$AAc@ 000000018006b728     libucrt:get_qualified_locale.obj
 0002:0000a760       ??_C@_1CA@JHAPGEGI@?$AAs?$AAp?$AAa?$AAn?$AAi?$AAs?$AAh?$AA?9?$AAe?$AAc?$AAu?$AAa?$AAd?$AAo?$AAr@ 000000018006b760     libucrt:get_qualified_locale.obj
 0002:0000a780       ??_C@_1CI@LAPALJPP@?$AAs?$AAp?$AAa?$AAn?$AAi?$AAs?$AAh?$AA?9?$AAe?$AAl?$AA?5?$AAs?$AAa?$AAl?$AAv@ 000000018006b780     libucrt:get_qualified_locale.obj
 0002:0000a7a8       ??_C@_1CE@PDGBOFOM@?$AAs?$AAp?$AAa?$AAn?$AAi?$AAs?$AAh?$AA?9?$AAg?$AAu?$AAa?$AAt?$AAe?$AAm?$AAa@ 000000018006b7a8     libucrt:get_qualified_locale.obj
 0002:0000a7d0       ??_C@_1CC@NBEBAODI@?$AAs?$AAp?$AAa?$AAn?$AAi?$AAs?$AAh?$AA?9?$AAh?$AAo?$AAn?$AAd?$AAu?$AAr?$AAa@ 000000018006b7d0     libucrt:get_qualified_locale.obj
 0002:0000a7f8       ??_C@_1CA@LLKGHBMF@?$AAs?$AAp?$AAa?$AAn?$AAi?$AAs?$AAh?$AA?9?$AAm?$AAe?$AAx?$AAi?$AAc?$AAa?$AAn@ 000000018006b7f8     libucrt:get_qualified_locale.obj
 0002:0000a818       ??_C@_1BO@LKNDOIGD@?$AAs?$AAp?$AAa?$AAn?$AAi?$AAs?$AAh?$AA?9?$AAm?$AAo?$AAd?$AAe?$AAr?$AAn@ 000000018006b818     libucrt:get_qualified_locale.obj
 0002:0000a838       ??_C@_1CE@NMDMOEEB@?$AAs?$AAp?$AAa?$AAn?$AAi?$AAs?$AAh?$AA?9?$AAn?$AAi?$AAc?$AAa?$AAr?$AAa?$AAg@ 000000018006b838     libucrt:get_qualified_locale.obj
 0002:0000a860       ??_C@_1BO@LLCBEJGB@?$AAs?$AAp?$AAa?$AAn?$AAi?$AAs?$AAh?$AA?9?$AAp?$AAa?$AAn?$AAa?$AAm?$AAa@ 000000018006b860     libucrt:get_qualified_locale.obj
 0002:0000a880       ??_C@_1CC@FKPGGIHO@?$AAs?$AAp?$AAa?$AAn?$AAi?$AAs?$AAh?$AA?9?$AAp?$AAa?$AAr?$AAa?$AAg?$AAu?$AAa@ 000000018006b880     libucrt:get_qualified_locale.obj
 0002:0000a8a8       ??_C@_1BK@CDEIHOOP@?$AAs?$AAp?$AAa?$AAn?$AAi?$AAs?$AAh?$AA?9?$AAp?$AAe?$AAr?$AAu@ 000000018006b8a8     libucrt:get_qualified_locale.obj
 0002:0000a8c8       ??_C@_1CI@GAHAKKGP@?$AAs?$AAp?$AAa?$AAn?$AAi?$AAs?$AAh?$AA?9?$AAp?$AAu?$AAe?$AAr?$AAt?$AAo?$AA?5@ 000000018006b8c8     libucrt:get_qualified_locale.obj
 0002:0000a8f0       ??_C@_1CA@NKJBCAGP@?$AAs?$AAp?$AAa?$AAn?$AAi?$AAs?$AAh?$AA?9?$AAu?$AAr?$AAu?$AAg?$AAu?$AAa?$AAy@ 000000018006b8f0     libucrt:get_qualified_locale.obj
 0002:0000a910       ??_C@_1CE@ODILCONM@?$AAs?$AAp?$AAa?$AAn?$AAi?$AAs?$AAh?$AA?9?$AAv?$AAe?$AAn?$AAe?$AAz?$AAu?$AAe@ 000000018006b910     libucrt:get_qualified_locale.obj
 0002:0000a938       ??_C@_1CA@OBNMCGFO@?$AAs?$AAw?$AAe?$AAd?$AAi?$AAs?$AAh?$AA?9?$AAf?$AAi?$AAn?$AAl?$AAa?$AAn?$AAd@ 000000018006b938     libucrt:get_qualified_locale.obj
 0002:0000a958       ??_C@_1M@PIPDDPPI@?$AAs?$AAw?$AAi?$AAs?$AAs@ 000000018006b958     libucrt:get_qualified_locale.obj
 0002:0000a964       ??_C@_15PJPFLCCM@?$AAu?$AAk@ 000000018006b964     libucrt:get_qualified_locale.obj
 0002:0000a96c       ??_C@_15GMFIMNFM@?$AAu?$AAs@ 000000018006b96c     libucrt:get_qualified_locale.obj
 0002:0000a978       ??_C@_17HAEBFAGL@?$AAu?$AAs?$AAa@ 000000018006b978     libucrt:get_qualified_locale.obj
 0002:0000a980       ??_C@_1BA@DPFJEPHB@?$AAa?$AAm?$AAe?$AAr?$AAi?$AAc?$AAa@ 000000018006b980     libucrt:get_qualified_locale.obj
 0002:0000a990       ??_C@_1BA@ELOGGFK@?$AAb?$AAr?$AAi?$AAt?$AAa?$AAi?$AAn@ 000000018006b990     libucrt:get_qualified_locale.obj
 0002:0000a9a0       ??_C@_1M@GHBGIGDA@?$AAc?$AAh?$AAi?$AAn?$AAa@ 000000018006b9a0     libucrt:get_qualified_locale.obj
 0002:0000a9b0       ??_C@_1M@NCHEJOPO@?$AAc?$AAz?$AAe?$AAc?$AAh@ 000000018006b9b0     libucrt:get_qualified_locale.obj
 0002:0000a9c0       ??_C@_1BA@BKPAPBLA@?$AAe?$AAn?$AAg?$AAl?$AAa?$AAn?$AAd@ 000000018006b9c0     libucrt:get_qualified_locale.obj
 0002:0000a9d0       ??_C@_1BM@HKBCKIPC@?$AAg?$AAr?$AAe?$AAa?$AAt?$AA?5?$AAb?$AAr?$AAi?$AAt?$AAa?$AAi?$AAn@ 000000018006b9d0     libucrt:get_qualified_locale.obj
 0002:0000a9f0       ??_C@_1BA@PPCHPGJB@?$AAh?$AAo?$AAl?$AAl?$AAa?$AAn?$AAd@ 000000018006b9f0     libucrt:get_qualified_locale.obj
 0002:0000aa00       ??_C@_1BE@JBMPEGDG@?$AAh?$AAo?$AAn?$AAg?$AA?9?$AAk?$AAo?$AAn?$AAg@ 000000018006ba00     libucrt:get_qualified_locale.obj
 0002:0000aa18       ??_C@_1BI@KOELBBPJ@?$AAn?$AAe?$AAw?$AA?9?$AAz?$AAe?$AAa?$AAl?$AAa?$AAn?$AAd@ 000000018006ba18     libucrt:get_qualified_locale.obj
 0002:0000aa30       ??_C@_15HIEBHAIO@?$AAn?$AAz@ 000000018006ba30     libucrt:get_qualified_locale.obj
 0002:0000aa38       ??_C@_1BC@CHBCPFPI@?$AAp?$AAr?$AA?5?$AAc?$AAh?$AAi?$AAn?$AAa@ 000000018006ba38     libucrt:get_qualified_locale.obj
 0002:0000aa50       ??_C@_1BC@JAOIIFKD@?$AAp?$AAr?$AA?9?$AAc?$AAh?$AAi?$AAn?$AAa@ 000000018006ba50     libucrt:get_qualified_locale.obj
 0002:0000aa68       ??_C@_1BI@BEHPPHKC@?$AAp?$AAu?$AAe?$AAr?$AAt?$AAo?$AA?9?$AAr?$AAi?$AAc?$AAo@ 000000018006ba68     libucrt:get_qualified_locale.obj
 0002:0000aa80       ??_C@_1O@PAEOFKDI@?$AAs?$AAl?$AAo?$AAv?$AAa?$AAk@ 000000018006ba80     libucrt:get_qualified_locale.obj
 0002:0000aa90       ??_C@_1BK@FIHMCKAM@?$AAs?$AAo?$AAu?$AAt?$AAh?$AA?5?$AAa?$AAf?$AAr?$AAi?$AAc?$AAa@ 000000018006ba90     libucrt:get_qualified_locale.obj
 0002:0000aab0       ??_C@_1BI@NAEOODKB@?$AAs?$AAo?$AAu?$AAt?$AAh?$AA?5?$AAk?$AAo?$AAr?$AAe?$AAa@ 000000018006bab0     libucrt:get_qualified_locale.obj
 0002:0000aac8       ??_C@_1BK@FBDGGIFF@?$AAs?$AAo?$AAu?$AAt?$AAh?$AA?9?$AAa?$AAf?$AAr?$AAi?$AAc?$AAa@ 000000018006bac8     libucrt:get_qualified_locale.obj
 0002:0000aae8       ??_C@_1BI@GHLEJDPK@?$AAs?$AAo?$AAu?$AAt?$AAh?$AA?9?$AAk?$AAo?$AAr?$AAe?$AAa@ 000000018006bae8     libucrt:get_qualified_locale.obj
 0002:0000ab00       ??_C@_1CE@PLHLOMJF@?$AAt?$AAr?$AAi?$AAn?$AAi?$AAd?$AAa?$AAd?$AA?5?$AA?$CG?$AA?5?$AAt?$AAo?$AAb?$AAa@ 000000018006bb00     libucrt:get_qualified_locale.obj
 0002:0000ab28       ??_C@_1BO@MODIMHHI@?$AAu?$AAn?$AAi?$AAt?$AAe?$AAd?$AA?9?$AAk?$AAi?$AAn?$AAg?$AAd?$AAo?$AAm@ 000000018006bb28     libucrt:get_qualified_locale.obj
 0002:0000ab48       ??_C@_1BM@FFHJONBJ@?$AAu?$AAn?$AAi?$AAt?$AAe?$AAd?$AA?9?$AAs?$AAt?$AAa?$AAt?$AAe?$AAs@ 000000018006bb48     libucrt:get_qualified_locale.obj
 0002:0000ab68       ??_C@_19MPDNHKDG@?$AAu?$AAt?$AAf?$AA8@ 000000018006bb68     libucrt:get_qualified_locale.obj
 0002:0000ab78       ??_C@_17DNCLJFIF@?$AAA?$AAC?$AAP@ 000000018006bb78     libucrt:get_qualified_locale.obj
 0002:0000ab80       ??_C@_1M@FPEIIFAM@?$AAu?$AAt?$AAf?$AA?9?$AA8@ 000000018006bb80     libucrt:get_qualified_locale.obj
 0002:0000ab90       ??_C@_17CIKBIHLH@?$AAO?$AAC?$AAP@ 000000018006bb90     libucrt:get_qualified_locale.obj
 0002:0000ab98       __rglangidNotDefault       000000018006bb98     libucrt:getqloc_downlevel.obj
 0002:0000ba00       ??_C@_15EMKDOKLE@?$AAa?$AAr@ 000000018006ca00     libucrt:lcidtoname_downlevel.obj
 0002:0000ba08       ??_C@_15KNPADPLH@?$AAb?$AAg@ 000000018006ca08     libucrt:lcidtoname_downlevel.obj
 0002:0000ba10       ??_C@_15EDMHLDMO@?$AAc?$AAa@ 000000018006ca10     libucrt:lcidtoname_downlevel.obj
 0002:0000ba18       ??_C@_1O@BPEAJADD@?$AAz?$AAh?$AA?9?$AAC?$AAH?$AAS@ 000000018006ca18     libucrt:lcidtoname_downlevel.obj
 0002:0000ba28       ??_C@_15LJNHCMNK@?$AAc?$AAs@ 000000018006ca28     libucrt:lcidtoname_downlevel.obj
 0002:0000ba30       ??_C@_15FOMCIDHG@?$AAd?$AAa@ 000000018006ca30     libucrt:lcidtoname_downlevel.obj
 0002:0000ba38       ??_C@_15NBKABECB@?$AAd?$AAe@ 000000018006ca38     libucrt:lcidtoname_downlevel.obj
 0002:0000ba40       ??_C@_15GHPEIIAO@?$AAe?$AAl@ 000000018006ca40     libucrt:lcidtoname_downlevel.obj
 0002:0000ba48       ??_C@_15MNPNEAIF@?$AAe?$AAn@ 000000018006ca48     libucrt:lcidtoname_downlevel.obj
 0002:0000ba50       ??_C@_15GPIOMPMH@?$AAe?$AAs@ 000000018006ca50     libucrt:lcidtoname_downlevel.obj
 0002:0000ba58       ??_C@_15NGLOAKJC@?$AAf?$AAi@ 000000018006ca58     libucrt:lcidtoname_downlevel.obj
 0002:0000ba60       ??_C@_15FBKGNKAM@?$AAf?$AAr@ 000000018006ca60     libucrt:lcidtoname_downlevel.obj
 0002:0000ba68       ??_C@_15KGGCNEFK@?$AAh?$AAe@ 000000018006ca68     libucrt:lcidtoname_downlevel.obj
 0002:0000ba70       ??_C@_15PGHLIDMF@?$AAh?$AAu@ 000000018006ca70     libucrt:lcidtoname_downlevel.obj
 0002:0000ba78       ??_C@_15BIEMAPLM@?$AAi?$AAs@ 000000018006ca78     libucrt:lcidtoname_downlevel.obj
 0002:0000ba80       ??_C@_15IFJLDHAF@?$AAi?$AAt@ 000000018006ca80     libucrt:lcidtoname_downlevel.obj
 0002:0000ba88       ??_C@_15GEMIOCAG@?$AAj?$AAa@ 000000018006ca88     libucrt:lcidtoname_downlevel.obj
 0002:0000ba90       ??_C@_15EPELEGJA@?$AAk?$AAo@ 000000018006ca90     libucrt:lcidtoname_downlevel.obj
 0002:0000ba98       ??_C@_15NDDHIMN@?$AAn?$AAl@ 000000018006ca98     libucrt:lcidtoname_downlevel.obj
 0002:0000baa0       ??_C@_15BPIGNHCD@?$AAn?$AAo@ 000000018006caa0     libucrt:lcidtoname_downlevel.obj
 0002:0000baa8       ??_C@_15DEOPBLCG@?$AAp?$AAl@ 000000018006caa8     libucrt:lcidtoname_downlevel.obj
 0002:0000bab0       ??_C@_15KBECGEFG@?$AAp?$AAt@ 000000018006cab0     libucrt:lcidtoname_downlevel.obj
 0002:0000bab8       ??_C@_15GLJCBFMD@?$AAr?$AAo@ 000000018006cab8     libucrt:lcidtoname_downlevel.obj
 0002:0000bac0       ??_C@_15FEDGKCDI@?$AAr?$AAu@ 000000018006cac0     libucrt:lcidtoname_downlevel.obj
 0002:0000bac8       ??_C@_15GLKMLLHM@?$AAh?$AAr@ 000000018006cac8     libucrt:lcidtoname_downlevel.obj
 0002:0000bad0       ??_C@_15CPKMFBDB@?$AAs?$AAk@ 000000018006cad0     libucrt:lcidtoname_downlevel.obj
 0002:0000bad8       ??_C@_15BAAIOGMK@?$AAs?$AAq@ 000000018006cad8     libucrt:lcidtoname_downlevel.obj
 0002:0000bae0       ??_C@_15INNPNOHD@?$AAs?$AAv@ 000000018006cae0     libucrt:lcidtoname_downlevel.obj
 0002:0000bae8       ??_C@_15CABMMOGH@?$AAt?$AAh@ 000000018006cae8     libucrt:lcidtoname_downlevel.obj
 0002:0000baf0       ??_C@_15BPLIHJJM@?$AAt?$AAr@ 000000018006caf0     libucrt:lcidtoname_downlevel.obj
 0002:0000baf8       ??_C@_15NEOEKKDJ@?$AAu?$AAr@ 000000018006caf8     libucrt:lcidtoname_downlevel.obj
 0002:0000bb00       ??_C@_15NFICGAJK@?$AAi?$AAd@ 000000018006cb00     libucrt:lcidtoname_downlevel.obj
 0002:0000bb08       ??_C@_15HPJPHDM@?$AAb?$AAe@ 000000018006cb08     libucrt:lcidtoname_downlevel.obj
 0002:0000bb10       ??_C@_15LCHLGJII@?$AAs?$AAl@ 000000018006cb10     libucrt:lcidtoname_downlevel.obj
 0002:0000bb18       ??_C@_15PCFJPHHO@?$AAe?$AAt@ 000000018006cb18     libucrt:lcidtoname_downlevel.obj
 0002:0000bb20       ??_C@_15HPFPGODN@?$AAl?$AAv@ 000000018006cb20     libucrt:lcidtoname_downlevel.obj
 0002:0000bb28       ??_C@_15NFFGKGLG@?$AAl?$AAt@ 000000018006cb28     libucrt:lcidtoname_downlevel.obj
 0002:0000bb30       ??_C@_15BDAKCCHN@?$AAf?$AAa@ 000000018006cb30     libucrt:lcidtoname_downlevel.obj
 0002:0000bb38       ??_C@_15NFGIAIAJ@?$AAv?$AAi@ 000000018006cb38     libucrt:lcidtoname_downlevel.obj
 0002:0000bb40       ??_C@_15LMKNDMHN@?$AAh?$AAy@ 000000018006cb40     libucrt:lcidtoname_downlevel.obj
 0002:0000bb48       ??_C@_15IJBHMCFL@?$AAa?$AAz@ 000000018006cb48     libucrt:lcidtoname_downlevel.obj
 0002:0000bb50       ??_C@_15EKOFJABL@?$AAe?$AAu@ 000000018006cb50     libucrt:lcidtoname_downlevel.obj
 0002:0000bb58       ??_C@_15BGHADCNK@?$AAm?$AAk@ 000000018006cb58     libucrt:lcidtoname_downlevel.obj
 0002:0000bb60       ??_C@_15JDNICKHM@?$AAa?$AAf@ 000000018006cb60     libucrt:lcidtoname_downlevel.obj
 0002:0000bb68       ??_C@_15KPJEDBKD@?$AAk?$AAa@ 000000018006cb68     libucrt:lcidtoname_downlevel.obj
 0002:0000bb70       ??_C@_15PDNFFFEO@?$AAf?$AAo@ 000000018006cb70     libucrt:lcidtoname_downlevel.obj
 0002:0000bb78       ??_C@_15OMLEGLOC@?$AAh?$AAi@ 000000018006cb78     libucrt:lcidtoname_downlevel.obj
 0002:0000bb80       ??_C@_15IDNNENKK@?$AAm?$AAs@ 000000018006cb80     libucrt:lcidtoname_downlevel.obj
 0002:0000bb88       ??_C@_15MACJNBMH@?$AAk?$AAk@ 000000018006cb88     libucrt:lcidtoname_downlevel.obj
 0002:0000bb90       ??_C@_15DKDJEOND@?$AAk?$AAy@ 000000018006cb90     libucrt:lcidtoname_downlevel.obj
 0002:0000bb98       ??_C@_15DFGDLJBG@?$AAs?$AAw@ 000000018006cb98     libucrt:lcidtoname_downlevel.obj
 0002:0000bba0       ??_C@_15BBFAICNG@?$AAu?$AAz@ 000000018006cba0     libucrt:lcidtoname_downlevel.obj
 0002:0000bba8       ??_C@_15DKNDCGEA@?$AAt?$AAt@ 000000018006cba8     libucrt:lcidtoname_downlevel.obj
 0002:0000bbb0       ??_C@_15MGIFMDPL@?$AAp?$AAa@ 000000018006cbb0     libucrt:lcidtoname_downlevel.obj
 0002:0000bbb8       ??_C@_15HCNDBBA@?$AAg?$AAu@ 000000018006cbb8     libucrt:lcidtoname_downlevel.obj
 0002:0000bbc0       ??_C@_15FNBEIBON@?$AAt?$AAa@ 000000018006cbc0     libucrt:lcidtoname_downlevel.obj
 0002:0000bbc8       ??_C@_15NCHGBGLK@?$AAt?$AAe@ 000000018006cbc8     libucrt:lcidtoname_downlevel.obj
 0002:0000bbd0       ??_C@_15PHPHCBPF@?$AAk?$AAn@ 000000018006cbd0     libucrt:lcidtoname_downlevel.obj
 0002:0000bbd8       ??_C@_15DLGBCKMP@?$AAm?$AAr@ 000000018006cbd8     libucrt:lcidtoname_downlevel.obj
 0002:0000bbe0       ??_C@_15EABBLBFF@?$AAs?$AAa@ 000000018006cbe0     libucrt:lcidtoname_downlevel.obj
 0002:0000bbe8       ??_C@_15CBKOMCOI@?$AAm?$AAn@ 000000018006cbe8     libucrt:lcidtoname_downlevel.obj
 0002:0000bbf0       ??_C@_15CKDMCJAF@?$AAg?$AAl@ 000000018006cbf0     libucrt:lcidtoname_downlevel.obj
 0002:0000bbf8       ??_C@_17CNJFBPG@?$AAk?$AAo?$AAk@ 000000018006cbf8     libucrt:lcidtoname_downlevel.obj
 0002:0000bc00       ??_C@_17FFBJICPL@?$AAs?$AAy?$AAr@ 000000018006cc00     libucrt:lcidtoname_downlevel.obj
 0002:0000bc08       ??_C@_17KPNDCPAF@?$AAd?$AAi?$AAv@ 000000018006cc08     libucrt:lcidtoname_downlevel.obj
 0002:0000bc10       ??_C@_1M@OKAHONE@?$AAa?$AAr?$AA?9?$AAS?$AAA@ 000000018006cc10     libucrt:lcidtoname_downlevel.obj
 0002:0000bc20       ??_C@_1M@FFFIGIGK@?$AAb?$AAg?$AA?9?$AAB?$AAG@ 000000018006cc20     libucrt:lcidtoname_downlevel.obj
 0002:0000bc30       ??_C@_1M@BJNKEDC@?$AAc?$AAa?$AA?9?$AAE?$AAS@ 000000018006cc30     libucrt:lcidtoname_downlevel.obj
 0002:0000bc40       ??_C@_1M@IJJHFJHA@?$AAc?$AAs?$AA?9?$AAC?$AAZ@ 000000018006cc40     libucrt:lcidtoname_downlevel.obj
 0002:0000bc50       ??_C@_1M@CLPEOBGI@?$AAd?$AAa?$AA?9?$AAD?$AAK@ 000000018006cc50     libucrt:lcidtoname_downlevel.obj
 0002:0000bc60       ??_C@_1M@MCMADGCB@?$AAd?$AAe?$AA?9?$AAD?$AAE@ 000000018006cc60     libucrt:lcidtoname_downlevel.obj
 0002:0000bc70       ??_C@_1M@OOCKEMAM@?$AAe?$AAl?$AA?9?$AAG?$AAR@ 000000018006cc70     libucrt:lcidtoname_downlevel.obj
 0002:0000bc80       ??_C@_1M@DDNJFGID@?$AAf?$AAi?$AA?9?$AAF?$AAI@ 000000018006cc80     libucrt:lcidtoname_downlevel.obj
 0002:0000bc90       ??_C@_1M@GLIPPMAC@?$AAf?$AAr?$AA?9?$AAF?$AAR@ 000000018006cc90     libucrt:lcidtoname_downlevel.obj
 0002:0000bca0       ??_C@_1M@GFMCHPE@?$AAh?$AAe?$AA?9?$AAI?$AAL@ 000000018006cca0     libucrt:lcidtoname_downlevel.obj
 0002:0000bcb0       ??_C@_1M@MHLPGNKM@?$AAh?$AAu?$AA?9?$AAH?$AAU@ 000000018006ccb0     libucrt:lcidtoname_downlevel.obj
 0002:0000bcc0       ??_C@_1M@LPDDNNPN@?$AAi?$AAs?$AA?9?$AAI?$AAS@ 000000018006ccc0     libucrt:lcidtoname_downlevel.obj
 0002:0000bcd0       ??_C@_1M@MADIPODN@?$AAi?$AAt?$AA?9?$AAI?$AAT@ 000000018006ccd0     libucrt:lcidtoname_downlevel.obj
 0002:0000bce0       ??_C@_1M@IHBJJGG@?$AAn?$AAl?$AA?9?$AAN?$AAL@ 000000018006cce0     libucrt:lcidtoname_downlevel.obj
 0002:0000bcf0       ??_C@_1M@EANAGDL@?$AAn?$AAb?$AA?9?$AAN?$AAO@ 000000018006ccf0     libucrt:lcidtoname_downlevel.obj
 0002:0000bd00       ??_C@_1M@NEIEMEGP@?$AAp?$AAl?$AA?9?$AAP?$AAL@ 000000018006cd00     libucrt:lcidtoname_downlevel.obj
 0002:0000bd10       ??_C@_1M@BOCFIGEP@?$AAp?$AAt?$AA?9?$AAB?$AAR@ 000000018006cd10     libucrt:lcidtoname_downlevel.obj
 0002:0000bd20       ??_C@_1M@IMPFOPBG@?$AAr?$AAo?$AA?9?$AAR?$AAO@ 000000018006cd20     libucrt:lcidtoname_downlevel.obj
 0002:0000bd30       ??_C@_1M@IDNNEJMM@?$AAr?$AAu?$AA?9?$AAR?$AAU@ 000000018006cd30     libucrt:lcidtoname_downlevel.obj
 0002:0000bd40       ??_C@_1M@LILEEOGM@?$AAh?$AAr?$AA?9?$AAH?$AAR@ 000000018006cd40     libucrt:lcidtoname_downlevel.obj
 0002:0000bd50       ??_C@_1M@FKIFEHPB@?$AAs?$AAk?$AA?9?$AAS?$AAK@ 000000018006cd50     libucrt:lcidtoname_downlevel.obj
 0002:0000bd60       ??_C@_1M@LJMAMNPJ@?$AAs?$AAq?$AA?9?$AAA?$AAL@ 000000018006cd60     libucrt:lcidtoname_downlevel.obj
 0002:0000bd70       ??_C@_1M@GIAKDKJK@?$AAs?$AAv?$AA?9?$AAS?$AAE@ 000000018006cd70     libucrt:lcidtoname_downlevel.obj
 0002:0000bd80       ??_C@_1M@MKJKIKCL@?$AAt?$AAh?$AA?9?$AAT?$AAH@ 000000018006cd80     libucrt:lcidtoname_downlevel.obj
 0002:0000bd90       ??_C@_1M@MFLCCMPB@?$AAt?$AAr?$AA?9?$AAT?$AAR@ 000000018006cd90     libucrt:lcidtoname_downlevel.obj
 0002:0000bda0       ??_C@_1M@OIJHDKJN@?$AAu?$AAr?$AA?9?$AAP?$AAK@ 000000018006cda0     libucrt:lcidtoname_downlevel.obj
 0002:0000bdb0       ??_C@_1M@LHIPCIEK@?$AAi?$AAd?$AA?9?$AAI?$AAD@ 000000018006cdb0     libucrt:lcidtoname_downlevel.obj
 0002:0000bdc0       ??_C@_1M@MFMOBGI@?$AAu?$AAk?$AA?9?$AAU?$AAA@ 000000018006cdc0     libucrt:lcidtoname_downlevel.obj
 0002:0000bdd0       ??_C@_1M@OBGLJIPL@?$AAb?$AAe?$AA?9?$AAB?$AAY@ 000000018006cdd0     libucrt:lcidtoname_downlevel.obj
 0002:0000bde0       ??_C@_1M@BCFAJEAD@?$AAs?$AAl?$AA?9?$AAS?$AAI@ 000000018006cde0     libucrt:lcidtoname_downlevel.obj
 0002:0000bdf0       ??_C@_1M@FKFFEDDN@?$AAe?$AAt?$AA?9?$AAE?$AAE@ 000000018006cdf0     libucrt:lcidtoname_downlevel.obj
 0002:0000be00       ??_C@_1M@KGKKAACI@?$AAl?$AAv?$AA?9?$AAL?$AAV@ 000000018006ce00     libucrt:lcidtoname_downlevel.obj
 0002:0000be10       ??_C@_1M@IFGBIJO@?$AAl?$AAt?$AA?9?$AAL?$AAT@ 000000018006ce10     libucrt:lcidtoname_downlevel.obj
 0002:0000be20       ??_C@_1M@FGEAHEDM@?$AAf?$AAa?$AA?9?$AAI?$AAR@ 000000018006ce20     libucrt:lcidtoname_downlevel.obj
 0002:0000be30       ??_C@_1M@KBMAIBFN@?$AAv?$AAi?$AA?9?$AAV?$AAN@ 000000018006ce30     libucrt:lcidtoname_downlevel.obj
 0002:0000be40       ??_C@_1M@GPCBKDJK@?$AAh?$AAy?$AA?9?$AAA?$AAM@ 000000018006ce40     libucrt:lcidtoname_downlevel.obj
 0002:0000be50       ??_C@_1BG@BECMDDJB@?$AAa?$AAz?$AA?9?$AAA?$AAZ?$AA?9?$AAL?$AAa?$AAt?$AAn@ 000000018006ce50     libucrt:lcidtoname_downlevel.obj
 0002:0000be68       ??_C@_1M@MAOFCAEA@?$AAe?$AAu?$AA?9?$AAE?$AAS@ 000000018006ce68     libucrt:lcidtoname_downlevel.obj
 0002:0000be78       ??_C@_1M@IGHABKPI@?$AAm?$AAk?$AA?9?$AAM?$AAK@ 000000018006ce78     libucrt:lcidtoname_downlevel.obj
 0002:0000be88       ??_C@_1M@IAIGNEJG@?$AAt?$AAn?$AA?9?$AAZ?$AAA@ 000000018006ce88     libucrt:lcidtoname_downlevel.obj
 0002:0000be98       ??_C@_1M@IIJCOJFA@?$AAx?$AAh?$AA?9?$AAZ?$AAA@ 000000018006ce98     libucrt:lcidtoname_downlevel.obj
 0002:0000bea8       ??_C@_1M@LGPJHNJH@?$AAz?$AAu?$AA?9?$AAZ?$AAA@ 000000018006cea8     libucrt:lcidtoname_downlevel.obj
 0002:0000beb8       ??_C@_1M@HOKAOIO@?$AAa?$AAf?$AA?9?$AAZ?$AAA@ 000000018006ceb8     libucrt:lcidtoname_downlevel.obj
 0002:0000bec8       ??_C@_1M@DPCLHLIE@?$AAk?$AAa?$AA?9?$AAG?$AAE@ 000000018006cec8     libucrt:lcidtoname_downlevel.obj
 0002:0000bed8       ??_C@_1M@BLKMHJBI@?$AAf?$AAo?$AA?9?$AAF?$AAO@ 000000018006ced8     libucrt:lcidtoname_downlevel.obj
 0002:0000bee8       ??_C@_1M@LGGJAPPB@?$AAh?$AAi?$AA?9?$AAI?$AAN@ 000000018006cee8     libucrt:lcidtoname_downlevel.obj
 0002:0000bef8       ??_C@_1M@FIKPIHFE@?$AAm?$AAt?$AA?9?$AAM?$AAT@ 000000018006cef8     libucrt:lcidtoname_downlevel.obj
 0002:0000bf08       ??_C@_1M@HEGGPBFA@?$AAs?$AAe?$AA?9?$AAN?$AAO@ 000000018006cf08     libucrt:lcidtoname_downlevel.obj
 0002:0000bf18       ??_C@_1M@EIBJEEPA@?$AAm?$AAs?$AA?9?$AAM?$AAY@ 000000018006cf18     libucrt:lcidtoname_downlevel.obj
 0002:0000bf28       ??_C@_1M@FHLBGMPP@?$AAk?$AAk?$AA?9?$AAK?$AAZ@ 000000018006cf28     libucrt:lcidtoname_downlevel.obj
 0002:0000bf38       ??_C@_1M@NGJJLCGI@?$AAk?$AAy?$AA?9?$AAK?$AAG@ 000000018006cf38     libucrt:lcidtoname_downlevel.obj
 0002:0000bf48       ??_C@_1M@GIENNBFC@?$AAs?$AAw?$AA?9?$AAK?$AAE@ 000000018006cf48     libucrt:lcidtoname_downlevel.obj
 0002:0000bf58       ??_C@_1BG@NDGMJIMJ@?$AAu?$AAz?$AA?9?$AAU?$AAZ?$AA?9?$AAL?$AAa?$AAt?$AAn@ 000000018006cf58     libucrt:lcidtoname_downlevel.obj
 0002:0000bf70       ??_C@_1M@IDCCIHBC@?$AAt?$AAt?$AA?9?$AAR?$AAU@ 000000018006cf70     libucrt:lcidtoname_downlevel.obj
 0002:0000bf80       ??_C@_1M@LOICPMOJ@?$AAb?$AAn?$AA?9?$AAI?$AAN@ 000000018006cf80     libucrt:lcidtoname_downlevel.obj
 0002:0000bf90       ??_C@_1M@KPKKNEAH@?$AAp?$AAa?$AA?9?$AAI?$AAN@ 000000018006cf90     libucrt:lcidtoname_downlevel.obj
 0002:0000bfa0       ??_C@_1M@PJGPPBOG@?$AAg?$AAu?$AA?9?$AAI?$AAN@ 000000018006cfa0     libucrt:lcidtoname_downlevel.obj
 0002:0000bfb0       ??_C@_1M@KMKMOPHI@?$AAt?$AAa?$AA?9?$AAI?$AAN@ 000000018006cfb0     libucrt:lcidtoname_downlevel.obj
 0002:0000bfc0       ??_C@_1M@KFEHEPAC@?$AAt?$AAe?$AA?9?$AAI?$AAN@ 000000018006cfc0     libucrt:lcidtoname_downlevel.obj
 0002:0000bfd0       ??_C@_1M@CDCLMGHI@?$AAk?$AAn?$AA?9?$AAI?$AAN@ 000000018006cfd0     libucrt:lcidtoname_downlevel.obj
 0002:0000bfe0       ??_C@_1M@MIODLDKF@?$AAm?$AAl?$AA?9?$AAI?$AAN@ 000000018006cfe0     libucrt:lcidtoname_downlevel.obj
 0002:0000bff0       ??_C@_1M@PBIEACPO@?$AAm?$AAr?$AA?9?$AAI?$AAN@ 000000018006cff0     libucrt:lcidtoname_downlevel.obj
 0002:0000c000       ??_C@_1M@NIDEAGPH@?$AAs?$AAa?$AA?9?$AAI?$AAN@ 000000018006d000     libucrt:lcidtoname_downlevel.obj
 0002:0000c010       ??_C@_1M@FHIHCBIO@?$AAm?$AAn?$AA?9?$AAM?$AAN@ 000000018006d010     libucrt:lcidtoname_downlevel.obj
 0002:0000c020       ??_C@_1M@JAIJPENP@?$AAc?$AAy?$AA?9?$AAG?$AAB@ 000000018006d020     libucrt:lcidtoname_downlevel.obj
 0002:0000c030       ??_C@_1M@PHGFBEPN@?$AAg?$AAl?$AA?9?$AAE?$AAS@ 000000018006d030     libucrt:lcidtoname_downlevel.obj
 0002:0000c040       ??_C@_1O@KPIPDNCP@?$AAk?$AAo?$AAk?$AA?9?$AAI?$AAN@ 000000018006d040     libucrt:lcidtoname_downlevel.obj
 0002:0000c050       ??_C@_1O@KNHJLDJA@?$AAs?$AAy?$AAr?$AA?9?$AAS?$AAY@ 000000018006d050     libucrt:lcidtoname_downlevel.obj
 0002:0000c060       ??_C@_1O@MKEKBLAH@?$AAd?$AAi?$AAv?$AA?9?$AAM?$AAV@ 000000018006d060     libucrt:lcidtoname_downlevel.obj
 0002:0000c070       ??_C@_1O@OHDCKDDF@?$AAq?$AAu?$AAz?$AA?9?$AAB?$AAO@ 000000018006d070     libucrt:lcidtoname_downlevel.obj
 0002:0000c080       ??_C@_1M@LEPJNLFD@?$AAn?$AAs?$AA?9?$AAZ?$AAA@ 000000018006d080     libucrt:lcidtoname_downlevel.obj
 0002:0000c090       ??_C@_1M@OMLEIIJB@?$AAm?$AAi?$AA?9?$AAN?$AAZ@ 000000018006d090     libucrt:lcidtoname_downlevel.obj
 0002:0000c0a0       ??_C@_1M@PMPEAILG@?$AAa?$AAr?$AA?9?$AAI?$AAQ@ 000000018006d0a0     libucrt:lcidtoname_downlevel.obj
 0002:0000c0b0       ??_C@_1M@CNKPNOEE@?$AAd?$AAe?$AA?9?$AAC?$AAH@ 000000018006d0b0     libucrt:lcidtoname_downlevel.obj
 0002:0000c0c0       ??_C@_1M@LKMGMLKO@?$AAe?$AAn?$AA?9?$AAG?$AAB@ 000000018006d0c0     libucrt:lcidtoname_downlevel.obj
 0002:0000c0d0       ??_C@_1M@PGKJFFGL@?$AAe?$AAs?$AA?9?$AAM?$AAX@ 000000018006d0d0     libucrt:lcidtoname_downlevel.obj
 0002:0000c0e0       ??_C@_1M@DNNANBDC@?$AAf?$AAr?$AA?9?$AAB?$AAE@ 000000018006d0e0     libucrt:lcidtoname_downlevel.obj
 0002:0000c0f0       ??_C@_1M@HLGMDFHM@?$AAi?$AAt?$AA?9?$AAC?$AAH@ 000000018006d0f0     libucrt:lcidtoname_downlevel.obj
 0002:0000c100       ??_C@_1M@CLLBGJH@?$AAn?$AAl?$AA?9?$AAB?$AAE@ 000000018006d100     libucrt:lcidtoname_downlevel.obj
 0002:0000c110       ??_C@_1M@BODBOGLF@?$AAn?$AAn?$AA?9?$AAN?$AAO@ 000000018006d110     libucrt:lcidtoname_downlevel.obj
 0002:0000c120       ??_C@_1M@HFFAHKAD@?$AAp?$AAt?$AA?9?$AAP?$AAT@ 000000018006d120     libucrt:lcidtoname_downlevel.obj
 0002:0000c130       ??_C@_1BG@LNOAKHIE@?$AAs?$AAr?$AA?9?$AAS?$AAP?$AA?9?$AAL?$AAa?$AAt?$AAn@ 000000018006d130     libucrt:lcidtoname_downlevel.obj
 0002:0000c148       ??_C@_1M@HBMHBGAK@?$AAs?$AAv?$AA?9?$AAF?$AAI@ 000000018006d148     libucrt:lcidtoname_downlevel.obj
 0002:0000c158       ??_C@_1BG@DGCJGJBE@?$AAa?$AAz?$AA?9?$AAA?$AAZ?$AA?9?$AAC?$AAy?$AAr?$AAl@ 000000018006d158     libucrt:lcidtoname_downlevel.obj
 0002:0000c170       ??_C@_1M@KEJDAAHB@?$AAs?$AAe?$AA?9?$AAS?$AAE@ 000000018006d170     libucrt:lcidtoname_downlevel.obj
 0002:0000c180       ??_C@_1M@HEIBJJAD@?$AAm?$AAs?$AA?9?$AAB?$AAN@ 000000018006d180     libucrt:lcidtoname_downlevel.obj
 0002:0000c190       ??_C@_1BG@PBGJMCEM@?$AAu?$AAz?$AA?9?$AAU?$AAZ?$AA?9?$AAC?$AAy?$AAr?$AAl@ 000000018006d190     libucrt:lcidtoname_downlevel.obj
 0002:0000c1a8       ??_C@_1O@LAOBCMDF@?$AAq?$AAu?$AAz?$AA?9?$AAE?$AAC@ 000000018006d1a8     libucrt:lcidtoname_downlevel.obj
 0002:0000c1b8       ??_C@_1M@POEEMAIO@?$AAa?$AAr?$AA?9?$AAE?$AAG@ 000000018006d1b8     libucrt:lcidtoname_downlevel.obj
 0002:0000c1c8       ??_C@_1M@EFAKDEDL@?$AAz?$AAh?$AA?9?$AAH?$AAK@ 000000018006d1c8     libucrt:lcidtoname_downlevel.obj
 0002:0000c1d8       ??_C@_1M@HKKIJHGI@?$AAd?$AAe?$AA?9?$AAA?$AAT@ 000000018006d1d8     libucrt:lcidtoname_downlevel.obj
 0002:0000c1e8       ??_C@_1M@KBFBEHJF@?$AAe?$AAn?$AA?9?$AAA?$AAU@ 000000018006d1e8     libucrt:lcidtoname_downlevel.obj
 0002:0000c1f8       ??_C@_1M@MNPLFAAH@?$AAe?$AAs?$AA?9?$AAE?$AAS@ 000000018006d1f8     libucrt:lcidtoname_downlevel.obj
 0002:0000c208       ??_C@_1M@HJOOJFMA@?$AAf?$AAr?$AA?9?$AAC?$AAA@ 000000018006d208     libucrt:lcidtoname_downlevel.obj
 0002:0000c218       ??_C@_1BG@JPOFPNAB@?$AAs?$AAr?$AA?9?$AAS?$AAP?$AA?9?$AAC?$AAy?$AAr?$AAl@ 000000018006d218     libucrt:lcidtoname_downlevel.obj
 0002:0000c230       ??_C@_1M@LNFOCMOB@?$AAs?$AAe?$AA?9?$AAF?$AAI@ 000000018006d230     libucrt:lcidtoname_downlevel.obj
 0002:0000c240       ??_C@_1O@MGJBOAMB@?$AAq?$AAu?$AAz?$AA?9?$AAP?$AAE@ 000000018006d240     libucrt:lcidtoname_downlevel.obj
 0002:0000c250       ??_C@_1M@GJINLBOK@?$AAa?$AAr?$AA?9?$AAL?$AAY@ 000000018006d250     libucrt:lcidtoname_downlevel.obj
 0002:0000c260       ??_C@_1M@GGMNHJNL@?$AAz?$AAh?$AA?9?$AAS?$AAG@ 000000018006d260     libucrt:lcidtoname_downlevel.obj
 0002:0000c270       ??_C@_1M@HOIKODND@?$AAd?$AAe?$AA?9?$AAL?$AAU@ 000000018006d270     libucrt:lcidtoname_downlevel.obj
 0002:0000c280       ??_C@_1M@DDOCCGFG@?$AAe?$AAn?$AA?9?$AAC?$AAA@ 000000018006d280     libucrt:lcidtoname_downlevel.obj
 0002:0000c290       ??_C@_1M@BNOEMJLF@?$AAe?$AAs?$AA?9?$AAG?$AAT@ 000000018006d290     libucrt:lcidtoname_downlevel.obj
 0002:0000c2a0       ??_C@_1M@EOGNKEK@?$AAf?$AAr?$AA?9?$AAC?$AAH@ 000000018006d2a0     libucrt:lcidtoname_downlevel.obj
 0002:0000c2b0       ??_C@_1M@FLIDJFHL@?$AAh?$AAr?$AA?9?$AAB?$AAA@ 000000018006d2b0     libucrt:lcidtoname_downlevel.obj
 0002:0000c2c0       ??_C@_1O@FMCELNAJ@?$AAs?$AAm?$AAj?$AA?9?$AAN?$AAO@ 000000018006d2c0     libucrt:lcidtoname_downlevel.obj
 0002:0000c2d0       ??_C@_1M@JHGLJMGJ@?$AAa?$AAr?$AA?9?$AAD?$AAZ@ 000000018006d2d0     libucrt:lcidtoname_downlevel.obj
 0002:0000c2e0       ??_C@_1M@JKKFDCNP@?$AAz?$AAh?$AA?9?$AAM?$AAO@ 000000018006d2e0     libucrt:lcidtoname_downlevel.obj
 0002:0000c2f0       ??_C@_1M@GEEFALPE@?$AAd?$AAe?$AA?9?$AAL?$AAI@ 000000018006d2f0     libucrt:lcidtoname_downlevel.obj
 0002:0000c300       ??_C@_1M@IGEOFBG@?$AAe?$AAn?$AA?9?$AAN?$AAZ@ 000000018006d300     libucrt:lcidtoname_downlevel.obj
 0002:0000c310       ??_C@_1M@KDBONEHP@?$AAe?$AAs?$AA?9?$AAC?$AAR@ 000000018006d310     libucrt:lcidtoname_downlevel.obj
 0002:0000c320       ??_C@_1M@FHMDOHNN@?$AAf?$AAr?$AA?9?$AAL?$AAU@ 000000018006d320     libucrt:lcidtoname_downlevel.obj
 0002:0000c330       ??_C@_1BG@NFKKMAFG@?$AAb?$AAs?$AA?9?$AAB?$AAA?$AA?9?$AAL?$AAa?$AAt?$AAn@ 000000018006d330     libucrt:lcidtoname_downlevel.obj
 0002:0000c348       ??_C@_1O@IMNBEMCI@?$AAs?$AAm?$AAj?$AA?9?$AAS?$AAE@ 000000018006d348     libucrt:lcidtoname_downlevel.obj
 0002:0000c358       ??_C@_1M@DHHMBNDP@?$AAa?$AAr?$AA?9?$AAM?$AAA@ 000000018006d358     libucrt:lcidtoname_downlevel.obj
 0002:0000c368       ??_C@_1M@BNBLJCGH@?$AAe?$AAn?$AA?9?$AAI?$AAE@ 000000018006d368     libucrt:lcidtoname_downlevel.obj
 0002:0000c378       ??_C@_1M@GEPAFMDL@?$AAe?$AAs?$AA?9?$AAP?$AAA@ 000000018006d378     libucrt:lcidtoname_downlevel.obj
 0002:0000c388       ??_C@_1M@OJONDMDL@?$AAf?$AAr?$AA?9?$AAM?$AAC@ 000000018006d388     libucrt:lcidtoname_downlevel.obj
 0002:0000c398       ??_C@_1BG@OBCNFJB@?$AAs?$AAr?$AA?9?$AAB?$AAA?$AA?9?$AAL?$AAa?$AAt?$AAn@ 000000018006d398     libucrt:lcidtoname_downlevel.obj
 0002:0000c3b0       ??_C@_1O@KEMEEGPO@?$AAs?$AAm?$AAa?$AA?9?$AAN?$AAO@ 000000018006d3b0     libucrt:lcidtoname_downlevel.obj
 0002:0000c3c0       ??_C@_1M@ELMGFODK@?$AAa?$AAr?$AA?9?$AAT?$AAN@ 000000018006d3c0     libucrt:lcidtoname_downlevel.obj
 0002:0000c3d0       ??_C@_1M@BHDLHFAF@?$AAe?$AAn?$AA?9?$AAZ?$AAA@ 000000018006d3d0     libucrt:lcidtoname_downlevel.obj
 0002:0000c3e0       ??_C@_1M@BMGIGLIF@?$AAe?$AAs?$AA?9?$AAD?$AAO@ 000000018006d3e0     libucrt:lcidtoname_downlevel.obj
 0002:0000c3f0       ??_C@_1BG@CMBHIPBE@?$AAs?$AAr?$AA?9?$AAB?$AAA?$AA?9?$AAC?$AAy?$AAr?$AAl@ 000000018006d3f0     libucrt:lcidtoname_downlevel.obj
 0002:0000c408       ??_C@_1O@HEDBLHNP@?$AAs?$AAm?$AAa?$AA?9?$AAS?$AAE@ 000000018006d408     libucrt:lcidtoname_downlevel.obj
 0002:0000c418       ??_C@_1M@DAGCADIM@?$AAa?$AAr?$AA?9?$AAO?$AAM@ 000000018006d418     libucrt:lcidtoname_downlevel.obj
 0002:0000c428       ??_C@_1M@FODLMICG@?$AAe?$AAn?$AA?9?$AAJ?$AAM@ 000000018006d428     libucrt:lcidtoname_downlevel.obj
 0002:0000c438       ??_C@_1M@DNMLCIHB@?$AAe?$AAs?$AA?9?$AAV?$AAE@ 000000018006d438     libucrt:lcidtoname_downlevel.obj
 0002:0000c448       ??_C@_1O@EOKHMKJK@?$AAs?$AAm?$AAs?$AA?9?$AAF?$AAI@ 000000018006d448     libucrt:lcidtoname_downlevel.obj
 0002:0000c458       ??_C@_1M@CAFJMKOF@?$AAa?$AAr?$AA?9?$AAY?$AAE@ 000000018006d458     libucrt:lcidtoname_downlevel.obj
 0002:0000c468       ??_C@_1M@CBFHIJLI@?$AAe?$AAn?$AA?9?$AAC?$AAB@ 000000018006d468     libucrt:lcidtoname_downlevel.obj
 0002:0000c478       ??_C@_1M@BGNFLDN@?$AAe?$AAs?$AA?9?$AAC?$AAO@ 000000018006d478     libucrt:lcidtoname_downlevel.obj
 0002:0000c488       ??_C@_1O@JMPHMAMC@?$AAs?$AAm?$AAn?$AA?9?$AAF?$AAI@ 000000018006d488     libucrt:lcidtoname_downlevel.obj
 0002:0000c498       ??_C@_1M@JLANABKE@?$AAa?$AAr?$AA?9?$AAS?$AAY@ 000000018006d498     libucrt:lcidtoname_downlevel.obj
 0002:0000c4a8       ??_C@_1M@HPKGCFGN@?$AAe?$AAn?$AA?9?$AAB?$AAZ@ 000000018006d4a8     libucrt:lcidtoname_downlevel.obj
 0002:0000c4b8       ??_C@_1M@OLJCMLGM@?$AAe?$AAs?$AA?9?$AAP?$AAE@ 000000018006d4b8     libucrt:lcidtoname_downlevel.obj
 0002:0000c4c8       ??_C@_1M@MKKGFKLE@?$AAa?$AAr?$AA?9?$AAJ?$AAO@ 000000018006d4c8     libucrt:lcidtoname_downlevel.obj
 0002:0000c4d8       ??_C@_1M@EKPGLDNI@?$AAe?$AAn?$AA?9?$AAT?$AAT@ 000000018006d4d8     libucrt:lcidtoname_downlevel.obj
 0002:0000c4e8       ??_C@_1M@OONGHFHE@?$AAe?$AAs?$AA?9?$AAA?$AAR@ 000000018006d4e8     libucrt:lcidtoname_downlevel.obj
 0002:0000c4f8       ??_C@_1M@OOJFGBHE@?$AAa?$AAr?$AA?9?$AAL?$AAB@ 000000018006d4f8     libucrt:lcidtoname_downlevel.obj
 0002:0000c508       ??_C@_1M@GCEJHNEG@?$AAe?$AAn?$AA?9?$AAZ?$AAW@ 000000018006d508     libucrt:lcidtoname_downlevel.obj
 0002:0000c518       ??_C@_1M@JNOCAHJI@?$AAe?$AAs?$AA?9?$AAE?$AAC@ 000000018006d518     libucrt:lcidtoname_downlevel.obj
 0002:0000c528       ??_C@_1M@JEFHPGGB@?$AAa?$AAr?$AA?9?$AAK?$AAW@ 000000018006d528     libucrt:lcidtoname_downlevel.obj
 0002:0000c538       ??_C@_1M@MLKIBJOJ@?$AAe?$AAn?$AA?9?$AAP?$AAH@ 000000018006d538     libucrt:lcidtoname_downlevel.obj
 0002:0000c548       ??_C@_1M@BDNIPEND@?$AAe?$AAs?$AA?9?$AAC?$AAL@ 000000018006d548     libucrt:lcidtoname_downlevel.obj
 0002:0000c558       ??_C@_1M@MPNMEKBD@?$AAa?$AAr?$AA?9?$AAA?$AAE@ 000000018006d558     libucrt:lcidtoname_downlevel.obj
 0002:0000c568       ??_C@_1M@KBJALCPI@?$AAe?$AAs?$AA?9?$AAU?$AAY@ 000000018006d568     libucrt:lcidtoname_downlevel.obj
 0002:0000c578       ??_C@_1M@LLCCOAGA@?$AAa?$AAr?$AA?9?$AAB?$AAH@ 000000018006d578     libucrt:lcidtoname_downlevel.obj
 0002:0000c588       ??_C@_1M@PBFNCDEL@?$AAe?$AAs?$AA?9?$AAP?$AAY@ 000000018006d588     libucrt:lcidtoname_downlevel.obj
 0002:0000c598       ??_C@_1M@EDGINPNP@?$AAa?$AAr?$AA?9?$AAQ?$AAA@ 000000018006d598     libucrt:lcidtoname_downlevel.obj
 0002:0000c5a8       ??_C@_1M@MKDBIIJI@?$AAe?$AAs?$AA?9?$AAB?$AAO@ 000000018006d5a8     libucrt:lcidtoname_downlevel.obj
 0002:0000c5b8       ??_C@_1M@CPKKEBLD@?$AAe?$AAs?$AA?9?$AAS?$AAV@ 000000018006d5b8     libucrt:lcidtoname_downlevel.obj
 0002:0000c5c8       ??_C@_1M@NDBGMMJL@?$AAe?$AAs?$AA?9?$AAH?$AAN@ 000000018006d5c8     libucrt:lcidtoname_downlevel.obj
 0002:0000c5d8       ??_C@_1M@JIJIBHDP@?$AAe?$AAs?$AA?9?$AAN?$AAI@ 000000018006d5d8     libucrt:lcidtoname_downlevel.obj
 0002:0000c5e8       ??_C@_1M@CGFMKEEK@?$AAe?$AAs?$AA?9?$AAP?$AAR@ 000000018006d5e8     libucrt:lcidtoname_downlevel.obj
 0002:0000c5f8       ??_C@_1O@ICJHKIIK@?$AAz?$AAh?$AA?9?$AAC?$AAH?$AAT@ 000000018006d5f8     libucrt:lcidtoname_downlevel.obj
 0002:0000c608       ??_C@_15CLNEJCE@?$AAs?$AAr@ 000000018006d608     libucrt:lcidtoname_downlevel.obj
 0002:0000d450       ??_C@_1M@KAHEKEIG@?$AAa?$AAf?$AA?9?$AAz?$AAa@ 000000018006e450     libucrt:lcidtoname_downlevel.obj
 0002:0000d460       ??_C@_1M@GIECOABL@?$AAa?$AAr?$AA?9?$AAa?$AAe@ 000000018006e460     libucrt:lcidtoname_downlevel.obj
 0002:0000d470       ??_C@_1M@BMLMEKGI@?$AAa?$AAr?$AA?9?$AAb?$AAh@ 000000018006e470     libucrt:lcidtoname_downlevel.obj
 0002:0000d480       ??_C@_1M@DAPFDGGB@?$AAa?$AAr?$AA?9?$AAd?$AAz@ 000000018006e480     libucrt:lcidtoname_downlevel.obj
 0002:0000d490       ??_C@_1M@FJNKGKIG@?$AAa?$AAr?$AA?9?$AAe?$AAg@ 000000018006e490     libucrt:lcidtoname_downlevel.obj
 0002:0000d4a0       ??_C@_1M@FLGKKCLO@?$AAa?$AAr?$AA?9?$AAi?$AAq@ 000000018006e4a0     libucrt:lcidtoname_downlevel.obj
 0002:0000d4b0       ??_C@_1M@GNDIPALM@?$AAa?$AAr?$AA?9?$AAj?$AAo@ 000000018006e4b0     libucrt:lcidtoname_downlevel.obj
 0002:0000d4c0       ??_C@_1M@DDMJFMGJ@?$AAa?$AAr?$AA?9?$AAk?$AAw@ 000000018006e4c0     libucrt:lcidtoname_downlevel.obj
 0002:0000d4d0       ??_C@_1M@EJALMLHM@?$AAa?$AAr?$AA?9?$AAl?$AAb@ 000000018006e4d0     libucrt:lcidtoname_downlevel.obj
 0002:0000d4e0       ??_C@_1M@MOBDBLOC@?$AAa?$AAr?$AA?9?$AAl?$AAy@ 000000018006e4e0     libucrt:lcidtoname_downlevel.obj
 0002:0000d4f0       ??_C@_1M@JAOCLHDH@?$AAa?$AAr?$AA?9?$AAm?$AAa@ 000000018006e4f0     libucrt:lcidtoname_downlevel.obj
 0002:0000d500       ??_C@_1M@JHPMKJIE@?$AAa?$AAr?$AA?9?$AAo?$AAm@ 000000018006e500     libucrt:lcidtoname_downlevel.obj
 0002:0000d510       ??_C@_1M@OEPGHFNH@?$AAa?$AAr?$AA?9?$AAq?$AAa@ 000000018006e510     libucrt:lcidtoname_downlevel.obj
 0002:0000d520       ??_C@_1M@KJDONENM@?$AAa?$AAr?$AA?9?$AAs?$AAa@ 000000018006e520     libucrt:lcidtoname_downlevel.obj
 0002:0000d530       ??_C@_1M@DMJDKLKM@?$AAa?$AAr?$AA?9?$AAs?$AAy@ 000000018006e530     libucrt:lcidtoname_downlevel.obj
 0002:0000d540       ??_C@_1M@OMFIPEDC@?$AAa?$AAr?$AA?9?$AAt?$AAn@ 000000018006e540     libucrt:lcidtoname_downlevel.obj
 0002:0000d550       ??_C@_1M@IHMHGAON@?$AAa?$AAr?$AA?9?$AAy?$AAe@ 000000018006e550     libucrt:lcidtoname_downlevel.obj
 0002:0000d560       ??_C@_1BG@KDCPGJGB@?$AAa?$AAz?$AA?9?$AAa?$AAz?$AA?9?$AAc?$AAy?$AAr?$AAl@ 000000018006e560     libucrt:lcidtoname_downlevel.obj
 0002:0000d578       ??_C@_1BG@IBCKDDOE@?$AAa?$AAz?$AA?9?$AAa?$AAz?$AA?9?$AAl?$AAa?$AAt?$AAn@ 000000018006e578     libucrt:lcidtoname_downlevel.obj
 0002:0000d590       ??_C@_1M@EGPFDCPD@?$AAb?$AAe?$AA?9?$AAb?$AAy@ 000000018006e590     libucrt:lcidtoname_downlevel.obj
 0002:0000d5a0       ??_C@_1M@PCMGMCGC@?$AAb?$AAg?$AA?9?$AAb?$AAg@ 000000018006e5a0     libucrt:lcidtoname_downlevel.obj
 0002:0000d5b0       ??_C@_1M@BJBMFGOB@?$AAb?$AAn?$AA?9?$AAi?$AAn@ 000000018006e5b0     libucrt:lcidtoname_downlevel.obj
 0002:0000d5c0       ??_C@_1BG@EAKMMACD@?$AAb?$AAs?$AA?9?$AAb?$AAa?$AA?9?$AAl?$AAa?$AAt?$AAn@ 000000018006e5c0     libucrt:lcidtoname_downlevel.obj
 0002:0000d5d8       ??_C@_1M@KGADAODK@?$AAc?$AAa?$AA?9?$AAe?$AAs@ 000000018006e5d8     libucrt:lcidtoname_downlevel.obj
 0002:0000d5e8       ??_C@_1M@COAJPDHI@?$AAc?$AAs?$AA?9?$AAc?$AAz@ 000000018006e5e8     libucrt:lcidtoname_downlevel.obj
 0002:0000d5f8       ??_C@_1M@DHBHFONH@?$AAc?$AAy?$AA?9?$AAg?$AAb@ 000000018006e5f8     libucrt:lcidtoname_downlevel.obj
 0002:0000d608       ??_C@_1M@IMGKELGA@?$AAd?$AAa?$AA?9?$AAd?$AAk@ 000000018006e608     libucrt:lcidtoname_downlevel.obj
 0002:0000d618       ??_C@_1M@NNDGDNGA@?$AAd?$AAe?$AA?9?$AAa?$AAt@ 000000018006e618     libucrt:lcidtoname_downlevel.obj
 0002:0000d628       ??_C@_1M@IKDBHEEM@?$AAd?$AAe?$AA?9?$AAc?$AAh@ 000000018006e628     libucrt:lcidtoname_downlevel.obj
 0002:0000d638       ??_C@_1M@GFFOJMCJ@?$AAd?$AAe?$AA?9?$AAd?$AAe@ 000000018006e638     libucrt:lcidtoname_downlevel.obj
 0002:0000d648       ??_C@_1M@MDNLKBPM@?$AAd?$AAe?$AA?9?$AAl?$AAi@ 000000018006e648     libucrt:lcidtoname_downlevel.obj
 0002:0000d658       ??_C@_1M@NJBEEJNL@?$AAd?$AAe?$AA?9?$AAl?$AAu@ 000000018006e658     libucrt:lcidtoname_downlevel.obj
 0002:0000d668       ??_C@_1O@GNNELBAP@?$AAd?$AAi?$AAv?$AA?9?$AAm?$AAv@ 000000018006e668     libucrt:lcidtoname_downlevel.obj
 0002:0000d678       ??_C@_1M@EJLEOGAE@?$AAe?$AAl?$AA?9?$AAg?$AAr@ 000000018006e678     libucrt:lcidtoname_downlevel.obj
 0002:0000d688       ??_C@_1M@GMPONJN@?$AAe?$AAn?$AA?9?$AAa?$AAu@ 000000018006e688     libucrt:lcidtoname_downlevel.obj
 0002:0000d698       ??_C@_1M@NIDIIPGF@?$AAe?$AAn?$AA?9?$AAb?$AAz@ 000000018006e698     libucrt:lcidtoname_downlevel.obj
 0002:0000d6a8       ??_C@_1M@JEHMIMFO@?$AAe?$AAn?$AA?9?$AAc?$AAa@ 000000018006e6a8     libucrt:lcidtoname_downlevel.obj
 0002:0000d6b8       ??_C@_1M@IGMJCDLA@?$AAe?$AAn?$AA?9?$AAc?$AAb@ 000000018006e6b8     libucrt:lcidtoname_downlevel.obj
 0002:0000d6c8       ??_C@_1M@BNFIGBKG@?$AAe?$AAn?$AA?9?$AAg?$AAb@ 000000018006e6c8     libucrt:lcidtoname_downlevel.obj
 0002:0000d6d8       ??_C@_1M@LKIFDIGP@?$AAe?$AAn?$AA?9?$AAi?$AAe@ 000000018006e6d8     libucrt:lcidtoname_downlevel.obj
 0002:0000d6e8       ??_C@_1M@PJKFGCCO@?$AAe?$AAn?$AA?9?$AAj?$AAm@ 000000018006e6e8     libucrt:lcidtoname_downlevel.obj
 0002:0000d6f8       ??_C@_1M@KPPKEPBO@?$AAe?$AAn?$AA?9?$AAn?$AAz@ 000000018006e6f8     libucrt:lcidtoname_downlevel.obj
 0002:0000d708       ??_C@_1M@GMDGLDOB@?$AAe?$AAn?$AA?9?$AAp?$AAh@ 000000018006e708     libucrt:lcidtoname_downlevel.obj
 0002:0000d718       ??_C@_1M@ONGIBJNA@?$AAe?$AAn?$AA?9?$AAt?$AAt@ 000000018006e718     libucrt:lcidtoname_downlevel.obj
 0002:0000d728       ??_C@_1M@LLODPCMM@?$AAe?$AAn?$AA?9?$AAu?$AAs@ 000000018006e728     libucrt:lcidtoname_downlevel.obj
 0002:0000d738       ??_C@_1M@LAKFNPAN@?$AAe?$AAn?$AA?9?$AAz?$AAa@ 000000018006e738     libucrt:lcidtoname_downlevel.obj
 0002:0000d748       ??_C@_1M@MFNHNHEO@?$AAe?$AAn?$AA?9?$AAz?$AAw@ 000000018006e748     libucrt:lcidtoname_downlevel.obj
 0002:0000d758       ??_C@_1M@EJEINPHM@?$AAe?$AAs?$AA?9?$AAa?$AAr@ 000000018006e758     libucrt:lcidtoname_downlevel.obj
 0002:0000d768       ??_C@_1M@GNKPCCJA@?$AAe?$AAs?$AA?9?$AAb?$AAo@ 000000018006e768     libucrt:lcidtoname_downlevel.obj
 0002:0000d778       ??_C@_1M@LEEGFONL@?$AAe?$AAs?$AA?9?$AAc?$AAl@ 000000018006e778     libucrt:lcidtoname_downlevel.obj
 0002:0000d788       ??_C@_1M@KGPDPBDF@?$AAe?$AAs?$AA?9?$AAc?$AAo@ 000000018006e788     libucrt:lcidtoname_downlevel.obj
 0002:0000d798       ??_C@_1M@EIAHOHH@?$AAe?$AAs?$AA?9?$AAc?$AAr@ 000000018006e798     libucrt:lcidtoname_downlevel.obj
 0002:0000d7a8       ??_C@_1M@LLPGMBIN@?$AAe?$AAs?$AA?9?$AAd?$AAo@ 000000018006e7a8     libucrt:lcidtoname_downlevel.obj
 0002:0000d7b8       ??_C@_1M@DKHMKNJA@?$AAe?$AAs?$AA?9?$AAe?$AAc@ 000000018006e7b8     libucrt:lcidtoname_downlevel.obj
 0002:0000d7c8       ??_C@_1M@GKGFPKAP@?$AAe?$AAs?$AA?9?$AAe?$AAs@ 000000018006e7c8     libucrt:lcidtoname_downlevel.obj
 0002:0000d7d8       ??_C@_1M@LKHKGDLN@?$AAe?$AAs?$AA?9?$AAg?$AAt@ 000000018006e7d8     libucrt:lcidtoname_downlevel.obj
 0002:0000d7e8       ??_C@_1M@HEIIGGJD@?$AAe?$AAs?$AA?9?$AAh?$AAn@ 000000018006e7e8     libucrt:lcidtoname_downlevel.obj
 0002:0000d7f8       ??_C@_1M@FBDHPPGD@?$AAe?$AAs?$AA?9?$AAm?$AAx@ 000000018006e7f8     libucrt:lcidtoname_downlevel.obj
 0002:0000d808       ??_C@_1M@DPAGLNDH@?$AAe?$AAs?$AA?9?$AAn?$AAi@ 000000018006e808     libucrt:lcidtoname_downlevel.obj
 0002:0000d818       ??_C@_1M@MDGOPGDD@?$AAe?$AAs?$AA?9?$AAp?$AAa@ 000000018006e818     libucrt:lcidtoname_downlevel.obj
 0002:0000d828       ??_C@_1M@EMAMGBGE@?$AAe?$AAs?$AA?9?$AAp?$AAe@ 000000018006e828     libucrt:lcidtoname_downlevel.obj
 0002:0000d838       ??_C@_1M@IBMCAOEC@?$AAe?$AAs?$AA?9?$AAp?$AAr@ 000000018006e838     libucrt:lcidtoname_downlevel.obj
 0002:0000d848       ??_C@_1M@FGMDIJED@?$AAe?$AAs?$AA?9?$AAp?$AAy@ 000000018006e848     libucrt:lcidtoname_downlevel.obj
 0002:0000d858       ??_C@_1M@IIDEOLLL@?$AAe?$AAs?$AA?9?$AAs?$AAv@ 000000018006e858     libucrt:lcidtoname_downlevel.obj
 0002:0000d868       ??_C@_1M@GAOBIPA@?$AAe?$AAs?$AA?9?$AAu?$AAy@ 000000018006e868     libucrt:lcidtoname_downlevel.obj
 0002:0000d878       ??_C@_1M@JKFFICHJ@?$AAe?$AAs?$AA?9?$AAv?$AAe@ 000000018006e878     libucrt:lcidtoname_downlevel.obj
 0002:0000d888       ??_C@_1M@PNMLOJDF@?$AAe?$AAt?$AA?9?$AAe?$AAe@ 000000018006e888     libucrt:lcidtoname_downlevel.obj
 0002:0000d898       ??_C@_1M@GHHLIKEI@?$AAe?$AAu?$AA?9?$AAe?$AAs@ 000000018006e898     libucrt:lcidtoname_downlevel.obj
 0002:0000d8a8       ??_C@_1M@PBNONODE@?$AAf?$AAa?$AA?9?$AAi?$AAr@ 000000018006e8a8     libucrt:lcidtoname_downlevel.obj
 0002:0000d8b8       ??_C@_1M@JEEHPMIL@?$AAf?$AAi?$AA?9?$AAf?$AAi@ 000000018006e8b8     libucrt:lcidtoname_downlevel.obj
 0002:0000d8c8       ??_C@_1M@LMDCNDBA@?$AAf?$AAo?$AA?9?$AAf?$AAo@ 000000018006e8c8     libucrt:lcidtoname_downlevel.obj
 0002:0000d8d8       ??_C@_1M@JKEOHLDK@?$AAf?$AAr?$AA?9?$AAb?$AAe@ 000000018006e8d8     libucrt:lcidtoname_downlevel.obj
 0002:0000d8e8       ??_C@_1M@NOHADPMI@?$AAf?$AAr?$AA?9?$AAc?$AAa@ 000000018006e8e8     libucrt:lcidtoname_downlevel.obj
 0002:0000d8f8       ??_C@_1M@KDHIHAEC@?$AAf?$AAr?$AA?9?$AAc?$AAh@ 000000018006e8f8     libucrt:lcidtoname_downlevel.obj
 0002:0000d908       ??_C@_1M@MMBBFGAK@?$AAf?$AAr?$AA?9?$AAf?$AAr@ 000000018006e908     libucrt:lcidtoname_downlevel.obj
 0002:0000d918       ??_C@_1M@PAFNENNF@?$AAf?$AAr?$AA?9?$AAl?$AAu@ 000000018006e918     libucrt:lcidtoname_downlevel.obj
 0002:0000d928       ??_C@_1M@EOHDJGDD@?$AAf?$AAr?$AA?9?$AAm?$AAc@ 000000018006e928     libucrt:lcidtoname_downlevel.obj
 0002:0000d938       ??_C@_1M@FAPLLOPF@?$AAg?$AAl?$AA?9?$AAe?$AAs@ 000000018006e938     libucrt:lcidtoname_downlevel.obj
 0002:0000d948       ??_C@_1M@FOPBFLOO@?$AAg?$AAu?$AA?9?$AAi?$AAn@ 000000018006e948     libucrt:lcidtoname_downlevel.obj
 0002:0000d958       ??_C@_1M@KBMCINPM@?$AAh?$AAe?$AA?9?$AAi?$AAl@ 000000018006e958     libucrt:lcidtoname_downlevel.obj
 0002:0000d968       ??_C@_1M@BBPHKFPJ@?$AAh?$AAi?$AA?9?$AAi?$AAn@ 000000018006e968     libucrt:lcidtoname_downlevel.obj
 0002:0000d978       ??_C@_1M@PMBNDPHD@?$AAh?$AAr?$AA?9?$AAb?$AAa@ 000000018006e978     libucrt:lcidtoname_downlevel.obj
 0002:0000d988       ??_C@_1M@BPCKOEGE@?$AAh?$AAr?$AA?9?$AAh?$AAr@ 000000018006e988     libucrt:lcidtoname_downlevel.obj
 0002:0000d998       ??_C@_1M@GACBMHKE@?$AAh?$AAu?$AA?9?$AAh?$AAu@ 000000018006e998     libucrt:lcidtoname_downlevel.obj
 0002:0000d9a8       ??_C@_1M@MILPAJJC@?$AAh?$AAy?$AA?9?$AAa?$AAm@ 000000018006e9a8     libucrt:lcidtoname_downlevel.obj
 0002:0000d9b8       ??_C@_1M@BABBICEC@?$AAi?$AAd?$AA?9?$AAi?$AAd@ 000000018006e9b8     libucrt:lcidtoname_downlevel.obj
 0002:0000d9c8       ??_C@_1M@BIKNHHPF@?$AAi?$AAs?$AA?9?$AAi?$AAs@ 000000018006e9c8     libucrt:lcidtoname_downlevel.obj
 0002:0000d9d8       ??_C@_1M@NMPCJPHE@?$AAi?$AAt?$AA?9?$AAc?$AAh@ 000000018006e9d8     libucrt:lcidtoname_downlevel.obj
 0002:0000d9e8       ??_C@_1M@GHKGFEDF@?$AAi?$AAt?$AA?9?$AAi?$AAt@ 000000018006e9e8     libucrt:lcidtoname_downlevel.obj
 0002:0000d9f8       ??_C@_1M@NIEJCJJA@?$AAj?$AAa?$AA?9?$AAj?$AAp@ 000000018006e9f8     libucrt:lcidtoname_downlevel.obj
 0002:0000da08       ??_C@_1M@JILFNBIM@?$AAk?$AAa?$AA?9?$AAg?$AAe@ 000000018006ea08     libucrt:lcidtoname_downlevel.obj
 0002:0000da18       ??_C@_1M@PACPMGPH@?$AAk?$AAk?$AA?9?$AAk?$AAz@ 000000018006ea18     libucrt:lcidtoname_downlevel.obj
 0002:0000da28       ??_C@_1M@IELFGMHA@?$AAk?$AAn?$AA?9?$AAi?$AAn@ 000000018006ea28     libucrt:lcidtoname_downlevel.obj
 0002:0000da38       ??_C@_1O@IBBJHCH@?$AAk?$AAo?$AAk?$AA?9?$AAi?$AAn@ 000000018006ea38     libucrt:lcidtoname_downlevel.obj
 0002:0000da48       ??_C@_1M@DMHAEOGC@?$AAk?$AAo?$AA?9?$AAk?$AAr@ 000000018006ea48     libucrt:lcidtoname_downlevel.obj
 0002:0000da58       ??_C@_1M@HBAHBIGA@?$AAk?$AAy?$AA?9?$AAk?$AAg@ 000000018006ea58     libucrt:lcidtoname_downlevel.obj
 0002:0000da68       ??_C@_1M@KPMILCJG@?$AAl?$AAt?$AA?9?$AAl?$AAt@ 000000018006ea68     libucrt:lcidtoname_downlevel.obj
 0002:0000da78       ??_C@_1M@BDEKKCA@?$AAl?$AAv?$AA?9?$AAl?$AAv@ 000000018006ea78     libucrt:lcidtoname_downlevel.obj
 0002:0000da88       ??_C@_1M@ELCKCCJJ@?$AAm?$AAi?$AA?9?$AAn?$AAz@ 000000018006ea88     libucrt:lcidtoname_downlevel.obj
 0002:0000da98       ??_C@_1M@CBOOLAPA@?$AAm?$AAk?$AA?9?$AAm?$AAk@ 000000018006ea98     libucrt:lcidtoname_downlevel.obj
 0002:0000daa8       ??_C@_1M@GPHNBJKN@?$AAm?$AAl?$AA?9?$AAi?$AAn@ 000000018006eaa8     libucrt:lcidtoname_downlevel.obj
 0002:0000dab8       ??_C@_1M@PABJILIG@?$AAm?$AAn?$AA?9?$AAm?$AAn@ 000000018006eab8     libucrt:lcidtoname_downlevel.obj
 0002:0000dac8       ??_C@_1M@FGBKKIPG@?$AAm?$AAr?$AA?9?$AAi?$AAn@ 000000018006eac8     libucrt:lcidtoname_downlevel.obj
 0002:0000dad8       ??_C@_1M@NDBPDDAL@?$AAm?$AAs?$AA?9?$AAb?$AAn@ 000000018006ead8     libucrt:lcidtoname_downlevel.obj
 0002:0000dae8       ??_C@_1M@OPIHOOPI@?$AAm?$AAs?$AA?9?$AAm?$AAy@ 000000018006eae8     libucrt:lcidtoname_downlevel.obj
 0002:0000daf8       ??_C@_1M@PPDBCNFM@?$AAm?$AAt?$AA?9?$AAm?$AAt@ 000000018006eaf8     libucrt:lcidtoname_downlevel.obj
 0002:0000db08       ??_C@_1M@KDJDKMDD@?$AAn?$AAb?$AA?9?$AAn?$AAo@ 000000018006eb08     libucrt:lcidtoname_downlevel.obj
 0002:0000db18       ??_C@_1M@KFCFLMJP@?$AAn?$AAl?$AA?9?$AAb?$AAe@ 000000018006eb18     libucrt:lcidtoname_downlevel.obj
 0002:0000db28       ??_C@_1M@KPOPDDGO@?$AAn?$AAl?$AA?9?$AAn?$AAl@ 000000018006eb28     libucrt:lcidtoname_downlevel.obj
 0002:0000db38       ??_C@_1M@LJKPEMLN@?$AAn?$AAn?$AA?9?$AAn?$AAo@ 000000018006eb38     libucrt:lcidtoname_downlevel.obj
 0002:0000db48       ??_C@_1M@BDGHHBFL@?$AAn?$AAs?$AA?9?$AAz?$AAa@ 000000018006eb48     libucrt:lcidtoname_downlevel.obj
 0002:0000db58       ??_C@_1M@IDEHOAP@?$AAp?$AAa?$AA?9?$AAi?$AAn@ 000000018006eb58     libucrt:lcidtoname_downlevel.obj
 0002:0000db68       ??_C@_1M@HDBKGOGH@?$AAp?$AAl?$AA?9?$AAp?$AAl@ 000000018006eb68     libucrt:lcidtoname_downlevel.obj
 0002:0000db78       ??_C@_1M@LJLLCMEH@?$AAp?$AAt?$AA?9?$AAb?$AAr@ 000000018006eb78     libucrt:lcidtoname_downlevel.obj
 0002:0000db88       ??_C@_1M@NCMONAAL@?$AAp?$AAt?$AA?9?$AAp?$AAt@ 000000018006eb88     libucrt:lcidtoname_downlevel.obj
 0002:0000db98       ??_C@_1O@EAKMAJDN@?$AAq?$AAu?$AAz?$AA?9?$AAb?$AAo@ 000000018006eb98     libucrt:lcidtoname_downlevel.obj
 0002:0000dba8       ??_C@_1O@BHHPIGDN@?$AAq?$AAu?$AAz?$AA?9?$AAe?$AAc@ 000000018006eba8     libucrt:lcidtoname_downlevel.obj
 0002:0000dbb8       ??_C@_1O@GBAPEKMJ@?$AAq?$AAu?$AAz?$AA?9?$AAp?$AAe@ 000000018006ebb8     libucrt:lcidtoname_downlevel.obj
 0002:0000dbc8       ??_C@_1M@CLGLEFBO@?$AAr?$AAo?$AA?9?$AAr?$AAo@ 000000018006ebc8     libucrt:lcidtoname_downlevel.obj
 0002:0000dbd8       ??_C@_1M@CEEDODME@?$AAr?$AAu?$AA?9?$AAr?$AAu@ 000000018006ebd8     libucrt:lcidtoname_downlevel.obj
 0002:0000dbe8       ??_C@_1M@HPKKKMPP@?$AAs?$AAa?$AA?9?$AAi?$AAn@ 000000018006ebe8     libucrt:lcidtoname_downlevel.obj
 0002:0000dbf8       ??_C@_1M@BKMAIGOJ@?$AAs?$AAe?$AA?9?$AAf?$AAi@ 000000018006ebf8     libucrt:lcidtoname_downlevel.obj
 0002:0000dc08       ??_C@_1M@NDPIFLFI@?$AAs?$AAe?$AA?9?$AAn?$AAo@ 000000018006ec08     libucrt:lcidtoname_downlevel.obj
 0002:0000dc18       ??_C@_1M@DANKKHJ@?$AAs?$AAe?$AA?9?$AAs?$AAe@ 000000018006ec18     libucrt:lcidtoname_downlevel.obj
 0002:0000dc28       ??_C@_1M@PNBLONPJ@?$AAs?$AAk?$AA?9?$AAs?$AAk@ 000000018006ec28     libucrt:lcidtoname_downlevel.obj
 0002:0000dc38       ??_C@_1M@LFMODOAL@?$AAs?$AAl?$AA?9?$AAs?$AAi@ 000000018006ec38     libucrt:lcidtoname_downlevel.obj
 0002:0000dc48       ??_C@_1O@DFKOMPG@?$AAs?$AAm?$AAa?$AA?9?$AAn?$AAo@ 000000018006ec48     libucrt:lcidtoname_downlevel.obj
 0002:0000dc58       ??_C@_1O@NDKPBNNH@?$AAs?$AAm?$AAa?$AA?9?$AAs?$AAe@ 000000018006ec58     libucrt:lcidtoname_downlevel.obj
 0002:0000dc68       ??_C@_1O@PLLKBHAB@?$AAs?$AAm?$AAj?$AA?9?$AAn?$AAo@ 000000018006ec68     libucrt:lcidtoname_downlevel.obj
 0002:0000dc78       ??_C@_1O@CLEPOGCA@?$AAs?$AAm?$AAj?$AA?9?$AAs?$AAe@ 000000018006ec78     libucrt:lcidtoname_downlevel.obj
 0002:0000dc88       ??_C@_1O@DLGJGKMK@?$AAs?$AAm?$AAn?$AA?9?$AAf?$AAi@ 000000018006ec88     libucrt:lcidtoname_downlevel.obj
 0002:0000dc98       ??_C@_1O@OJDJGAJC@?$AAs?$AAm?$AAs?$AA?9?$AAf?$AAi@ 000000018006ec98     libucrt:lcidtoname_downlevel.obj
 0002:0000dca8       ??_C@_1M@BOFOGHPB@?$AAs?$AAq?$AA?9?$AAa?$AAl@ 000000018006eca8     libucrt:lcidtoname_downlevel.obj
 0002:0000dcb8       ??_C@_1BG@LJBBIPGB@?$AAs?$AAr?$AA?9?$AAb?$AAa?$AA?9?$AAc?$AAy?$AAr?$AAl@ 000000018006ecb8     libucrt:lcidtoname_downlevel.obj
 0002:0000dcd0       ??_C@_1BG@JLBENFOE@?$AAs?$AAr?$AA?9?$AAb?$AAa?$AA?9?$AAl?$AAa?$AAt?$AAn@ 000000018006ecd0     libucrt:lcidtoname_downlevel.obj
 0002:0000dce8       ??_C@_1BG@KODPNHE@?$AAs?$AAr?$AA?9?$AAs?$AAp?$AA?9?$AAc?$AAy?$AAr?$AAl@ 000000018006ece8     libucrt:lcidtoname_downlevel.obj
 0002:0000dd00       ??_C@_1BG@CIOGKHPB@?$AAs?$AAr?$AA?9?$AAs?$AAp?$AA?9?$AAl?$AAa?$AAt?$AAn@ 000000018006ed00     libucrt:lcidtoname_downlevel.obj
 0002:0000dd18       ??_C@_1M@NGFJLMAC@?$AAs?$AAv?$AA?9?$AAf?$AAi@ 000000018006ed18     libucrt:lcidtoname_downlevel.obj
 0002:0000dd28       ??_C@_1M@MPJEJAJC@?$AAs?$AAv?$AA?9?$AAs?$AAe@ 000000018006ed28     libucrt:lcidtoname_downlevel.obj
 0002:0000dd38       ??_C@_1M@MPNDHLFK@?$AAs?$AAw?$AA?9?$AAk?$AAe@ 000000018006ed38     libucrt:lcidtoname_downlevel.obj
 0002:0000dd48       ??_C@_1O@KOHBJJI@?$AAs?$AAy?$AAr?$AA?9?$AAs?$AAy@ 000000018006ed48     libucrt:lcidtoname_downlevel.obj
 0002:0000dd58       ??_C@_1M@LDCEFHA@?$AAt?$AAa?$AA?9?$AAi?$AAn@ 000000018006ed58     libucrt:lcidtoname_downlevel.obj
 0002:0000dd68       ??_C@_1M@CNJOFAK@?$AAt?$AAe?$AA?9?$AAi?$AAn@ 000000018006ed68     libucrt:lcidtoname_downlevel.obj
 0002:0000dd78       ??_C@_1M@GNAECACD@?$AAt?$AAh?$AA?9?$AAt?$AAh@ 000000018006ed78     libucrt:lcidtoname_downlevel.obj
 0002:0000dd88       ??_C@_1M@CHBIHOJO@?$AAt?$AAn?$AA?9?$AAz?$AAa@ 000000018006ed88     libucrt:lcidtoname_downlevel.obj
 0002:0000dd98       ??_C@_1M@GCCMIGPJ@?$AAt?$AAr?$AA?9?$AAt?$AAr@ 000000018006ed98     libucrt:lcidtoname_downlevel.obj
 0002:0000dda8       ??_C@_1M@CELMCNBK@?$AAt?$AAt?$AA?9?$AAr?$AAu@ 000000018006eda8     libucrt:lcidtoname_downlevel.obj
 0002:0000ddb8       ??_C@_1M@KLMCELGA@?$AAu?$AAk?$AA?9?$AAu?$AAa@ 000000018006edb8     libucrt:lcidtoname_downlevel.obj
 0002:0000ddc8       ??_C@_1M@EPAJJAJF@?$AAu?$AAr?$AA?9?$AAp?$AAk@ 000000018006edc8     libucrt:lcidtoname_downlevel.obj
 0002:0000ddd8       ??_C@_1BG@GEGPMCDJ@?$AAu?$AAz?$AA?9?$AAu?$AAz?$AA?9?$AAc?$AAy?$AAr?$AAl@ 000000018006edd8     libucrt:lcidtoname_downlevel.obj
 0002:0000ddf0       ??_C@_1BG@EGGKJILM@?$AAu?$AAz?$AA?9?$AAu?$AAz?$AA?9?$AAl?$AAa?$AAt?$AAn@ 000000018006edf0     libucrt:lcidtoname_downlevel.obj
 0002:0000de08       ??_C@_1M@GFOCLFF@?$AAv?$AAi?$AA?9?$AAv?$AAn@ 000000018006ee08     libucrt:lcidtoname_downlevel.obj
 0002:0000de18       ??_C@_1M@CPAMEDFI@?$AAx?$AAh?$AA?9?$AAz?$AAa@ 000000018006ee18     libucrt:lcidtoname_downlevel.obj
 0002:0000de28       ??_C@_1O@EBKIFIGN@?$AAz?$AAh?$AA?9?$AAc?$AAh?$AAs@ 000000018006ee28     libucrt:lcidtoname_downlevel.obj
 0002:0000de38       ??_C@_1O@NMHPGANE@?$AAz?$AAh?$AA?9?$AAc?$AAh?$AAt@ 000000018006ee38     libucrt:lcidtoname_downlevel.obj
 0002:0000de48       ??_C@_1M@LPINJOMC@?$AAz?$AAh?$AA?9?$AAc?$AAn@ 000000018006ee48     libucrt:lcidtoname_downlevel.obj
 0002:0000de58       ??_C@_1M@OCJEJODD@?$AAz?$AAh?$AA?9?$AAh?$AAk@ 000000018006ee58     libucrt:lcidtoname_downlevel.obj
 0002:0000de68       ??_C@_1M@DNDLJINH@?$AAz?$AAh?$AA?9?$AAm?$AAo@ 000000018006ee68     libucrt:lcidtoname_downlevel.obj
 0002:0000de78       ??_C@_1M@MBFDNDND@?$AAz?$AAh?$AA?9?$AAs?$AAg@ 000000018006ee78     libucrt:lcidtoname_downlevel.obj
 0002:0000de88       ??_C@_1M@IMEPLEPE@?$AAz?$AAh?$AA?9?$AAt?$AAw@ 000000018006ee88     libucrt:lcidtoname_downlevel.obj
 0002:0000de98       ??_C@_1M@BBGHNHJP@?$AAz?$AAu?$AA?9?$AAz?$AAa@ 000000018006ee98     libucrt:lcidtoname_downlevel.obj
 0002:0000e100       ??_C@_1BA@BALFACEM@?$AAC?$AAO?$AAN?$AAO?$AAU?$AAT?$AA$@ 000000018006f100     libucrt:initcon.obj
 0002:0000e110       __log10_256_lead           000000018006f110     libucrt:log10_256_lead_tail_table.obj
 0002:0000e920       __log10_256_tail           000000018006f920     libucrt:log10_256_lead_tail_table.obj
 0002:0000f128       ??_C@_0BC@EOODALEL@Unknown?5exception@ 0000000180070128     ActionProcessor.obj
 0002:0000f140       ??_C@_0BF@KINCDENJ@bad?5array?5new?5length@ 0000000180070140     ActionProcessor.obj
 0002:0000f158       ??_C@_0BA@JFNIOLAK@string?5too?5long@ 0000000180070158     ActionProcessor.obj
 0002:0000f168       ??_C@_02LMMGGCAJ@?3?5@     0000000180070168     ActionProcessor.obj
 0002:0000f16b       ??_C@_00CNPNBAHC@@         000000018007016b     ActionProcessor.obj
 0002:0000f170       ??_C@_08LLGCOLLL@iostream@ 0000000180070170     ActionProcessor.obj
 0002:0000f180       ??_C@_08EPJLHIJG@bad?5cast@ 0000000180070180     ActionProcessor.obj
 0002:0000f190       ??_C@_0BA@ELKIONDK@bad?5locale?5name@ 0000000180070190     ActionProcessor.obj
 0002:0000f1a0       ??_C@_05LAPONLG@false@     00000001800701a0     ActionProcessor.obj
 0002:0000f1a8       ??_C@_04LOAJBDKD@true@     00000001800701a8     ActionProcessor.obj
 0002:0000f1b0       ??_C@_0BF@PHHKMMFD@ios_base?3?3badbit?5set@ 00000001800701b0     ActionProcessor.obj
 0002:0000f1c8       ??_C@_0BG@FMKFHCIL@ios_base?3?3failbit?5set@ 00000001800701c8     ActionProcessor.obj
 0002:0000f1e0       ??_C@_0BF@OOHOMBOF@ios_base?3?3eofbit?5set@ 00000001800701e0     ActionProcessor.obj
 0002:0000f1f8       ??_C@_0BJ@MECOOJMF@RGB?2?$CI?$CI?2d?$CL?$CJ?0?$CI?2d?$CL?$CJ?0?$CI?2d?$CL?$CJ?2?$CJ@ 00000001800701f8     ActionProcessor.obj
 0002:0000f214       ??_C@_01EEMJAFIK@?6@       0000000180070214     ActionProcessor.obj
 0002:0000f218       ??_C@_01CLKCMJKC@?5@       0000000180070218     ActionProcessor.obj
 0002:0000f21c       ??_C@_06LGNCCACI@select@   000000018007021c     ActionProcessor.obj
 0002:0000f224       ??_C@_01IDAFKMJL@_@        0000000180070224     ActionProcessor.obj
 0002:0000f228       ??_C@_0P@BKAFLOHK@?1action?1select@ 0000000180070228     ActionProcessor.obj
 0002:0000f238       ??_C@_02BBAHNLBA@?$CFp@    0000000180070238     ActionProcessor.obj
 0002:0000f240       ??_C@_0BL@KOKKEGGO@invalid?5deque?$DMT?$DO?5subscript@ 0000000180070240     ActionProcessor.obj
 0002:0000f25c       ??_C@_02MDKMJEGG@eE@       000000018007025c     ActionProcessor.obj
 0002:0000f260       ??_C@_02OOPEBDOJ@pP@       0000000180070260     ActionProcessor.obj
 0002:0000f268       ??_C@_0BI@CFPLBAOH@invalid?5string?5position@ 0000000180070268     ActionProcessor.obj
 0002:0000f280       ??_C@_0BA@FOIKENOD@vector?5too?5long@ 0000000180070280     ActionProcessor.obj
 0002:0000f290       ??_C@_0BG@EOMJEIFA@vector?$DMbool?$DO?5too?5long@ 0000000180070290     ActionProcessor.obj
 0002:0000f2a8       ??_C@_05IIMHCHIO@alnum@    00000001800702a8     ActionProcessor.obj
 0002:0000f2b0       ??_C@_1M@KLMEPMCM@?$AAa?$AAl?$AAn?$AAu?$AAm@ 00000001800702b0     ActionProcessor.obj
 0002:0000f2bc       ??_C@_05IAEKHIAN@alpha@    00000001800702bc     ActionProcessor.obj
 0002:0000f2c8       ??_C@_1M@DHGLHBMI@?$AAa?$AAl?$AAp?$AAh?$AAa@ 00000001800702c8     ActionProcessor.obj
 0002:0000f2d4       ??_C@_05BABJKOGB@blank@    00000001800702d4     ActionProcessor.obj
 0002:0000f2e0       ??_C@_1M@EJAAJBPE@?$AAb?$AAl?$AAa?$AAn?$AAk@ 00000001800702e0     ActionProcessor.obj
 0002:0000f2ec       ??_C@_05JMDPEFNK@cntrl@    00000001800702ec     ActionProcessor.obj
 0002:0000f2f8       ??_C@_1M@LMIMILA@?$AAc?$AAn?$AAt?$AAr?$AAl@ 00000001800702f8     ActionProcessor.obj
 0002:0000f304       ??_C@_01LPLHEDKD@d@        0000000180070304     ActionProcessor.obj
 0002:0000f308       ??_C@_13GKPPEALH@?$AAd@    0000000180070308     ActionProcessor.obj
 0002:0000f30c       ??_C@_05ODNOIFML@digit@    000000018007030c     ActionProcessor.obj
 0002:0000f318       ??_C@_1M@JDAEIBKG@?$AAd?$AAi?$AAg?$AAi?$AAt@ 0000000180070318     ActionProcessor.obj
 0002:0000f324       ??_C@_05KCJBMLII@graph@    0000000180070324     ActionProcessor.obj
 0002:0000f330       ??_C@_1M@MDKNJLLK@?$AAg?$AAr?$AAa?$AAp?$AAh@ 0000000180070330     ActionProcessor.obj
 0002:0000f33c       ??_C@_05IPJEPLHL@lower@    000000018007033c     ActionProcessor.obj
 0002:0000f348       ??_C@_1M@LGAECJJD@?$AAl?$AAo?$AAw?$AAe?$AAr@ 0000000180070348     ActionProcessor.obj
 0002:0000f354       ??_C@_05IJDJACGD@print@    0000000180070354     ActionProcessor.obj
 0002:0000f360       ??_C@_1M@ELNLAPLA@?$AAp?$AAr?$AAi?$AAn?$AAt@ 0000000180070360     ActionProcessor.obj
 0002:0000f36c       ??_C@_05KOBGHFJJ@punct@    000000018007036c     ActionProcessor.obj
 0002:0000f378       ??_C@_1M@BPFMAOAO@?$AAp?$AAu?$AAn?$AAc?$AAt@ 0000000180070378     ActionProcessor.obj
 0002:0000f384       ??_C@_05OLNILLAB@space@    0000000180070384     ActionProcessor.obj
 0002:0000f390       ??_C@_1M@LPGODFOM@?$AAs?$AAp?$AAa?$AAc?$AAe@ 0000000180070390     ActionProcessor.obj
 0002:0000f39c       ??_C@_01LKDEMHDF@s@        000000018007039c     ActionProcessor.obj
 0002:0000f3a0       ??_C@_13KHDBCPJB@?$AAs@    00000001800703a0     ActionProcessor.obj
 0002:0000f3a4       ??_C@_05NECKJAMC@upper@    00000001800703a4     ActionProcessor.obj
 0002:0000f3b0       ??_C@_1M@PLNFCNIC@?$AAu?$AAp?$AAp?$AAe?$AAr@ 00000001800703b0     ActionProcessor.obj
 0002:0000f3bc       ??_C@_01NOFIACDB@w@        00000001800703bc     ActionProcessor.obj
 0002:0000f3c0       ??_C@_13CIFDLIMG@?$AAw@    00000001800703c0     ActionProcessor.obj
 0002:0000f3c4       ??_C@_06BAPHGFFK@xdigit@   00000001800703c4     ActionProcessor.obj
 0002:0000f3d0       ??_C@_1O@OAFMJDHN@?$AAx?$AAd?$AAi?$AAg?$AAi?$AAt@ 00000001800703d0     ActionProcessor.obj
 0002:0000f3e8       ??_7_Node_assert@std@@6B@  00000001800703e8     ActionProcessor.obj
 0002:0000f3f8       ??_7_Node_rep@std@@6B@     00000001800703f8     ActionProcessor.obj
 0002:0000f408       ??_7OscProcessor@@6B@      0000000180070408     ActionProcessor.obj
 0002:0000f440       ?_Names@?1???$lookup_classname@PEBD@?$_Regex_traits@D@std@@QEBAFPEBD0_N@Z@4QBU_Cl_names@2@B 0000000180070440     ActionProcessor.obj
 0002:0000f5c8       ??_7_Node_endif@std@@6B@   00000001800705c8     ActionProcessor.obj
 0002:0000f5d8       ??_7_Node_back@std@@6B@    00000001800705d8     ActionProcessor.obj
 0002:0000f5e8       ??_7?$_Node_class@DV?$regex_traits@D@std@@@std@@6B@ 00000001800705e8     ActionProcessor.obj
 0002:0000f5f8       ??_7_Node_if@std@@6B@      00000001800705f8     ActionProcessor.obj
 0002:0000f600       ?_Meta_map@?1??_Trans@?$_Parser@PEBDDV?$regex_traits@D@std@@@std@@AEAAXXZ@4QBDB 0000000180070600     ActionProcessor.obj
 0002:0000f620       ??_7_Iostream_error_category2@std@@6B@ 0000000180070620     ActionProcessor.obj
 0002:0000f658       ??_7_Node_end_group@std@@6B@ 0000000180070658     ActionProcessor.obj
 0002:0000f668       ??_7_Root_node@std@@6B@    0000000180070668     ActionProcessor.obj
 0002:0000f6a0       ??_7_Node_capture@std@@6B@ 00000001800706a0     ActionProcessor.obj
 0002:0000f6b0       ??_7_Node_base@std@@6B@    00000001800706b0     ActionProcessor.obj
 0002:0000f6b8       ?_Iostream_error@?4??message@_Iostream_error_category2@std@@UEBA?AV?$basic_string@DU?$char_traits@D@std@@V?$allocator@D@2@@3@H@Z@4QBDB 00000001800706b8     ActionProcessor.obj
 0002:0000f6d8       ??_7?$_Node_str@D@std@@6B@ 00000001800706d8     ActionProcessor.obj
 0002:0000f6e8       ??_7ActionProcessor@@6B@   00000001800706e8     ActionProcessor.obj
 0002:0000f728       ??_7_Node_end_rep@std@@6B@ 0000000180070728     ActionProcessor.obj
 0002:0000f738       ??_7failure@ios_base@std@@6B@ 0000000180070738     ActionProcessor.obj
 0002:0000f748       ??_C@_05MEHLAELG@clear@    0000000180070748     ClipProcessor.obj
 0002:0000f750       ??_C@_09KHIKJOBP@duplicate@ 0000000180070750     ClipProcessor.obj
 0002:0000f760       ??_C@_0BB@HMLCJOFF@duplicateContent@ 0000000180070760     ClipProcessor.obj
 0002:0000f778       ??_C@_07NOHNDAEK@B_UISEL@  0000000180070778     ClipProcessor.obj
 0002:0000f780       ??_C@_0BK@MEGAIBPL@Duplicate?5content?5of?5clip@ 0000000180070780     ClipProcessor.obj
 0002:0000f79c       ??_C@_04DHOIHJPF@note@     000000018007079c     ClipProcessor.obj
 0002:0000f7a4       ??_C@_05FAGFPHJG@start@    00000001800707a4     ClipProcessor.obj
 0002:0000f7b0       ??_C@_0L@DMMABGMI@D_POSITION@ 00000001800707b0     ClipProcessor.obj
 0002:0000f7bc       ??_C@_03JBJLGPFL@end@      00000001800707bc     ClipProcessor.obj
 0002:0000f7c0       ??_C@_08HIKFBJCP@D_LENGTH@ 00000001800707c0     ClipProcessor.obj
 0002:0000f7d0       ??_C@_09KDFGPPLL@transpose@ 00000001800707d0     ClipProcessor.obj
 0002:0000f7dc       ??_C@_04GKOOIABA@loop@     00000001800707dc     ClipProcessor.obj
 0002:0000f7e8       ??_C@_09EMGJCNKH@B_LOOPSRC@ 00000001800707e8     ClipProcessor.obj
 0002:0000f7f4       ??_C@_05PEENBMOG@color@    00000001800707f4     ClipProcessor.obj
 0002:0000f7fc       ??_C@_06FHLCKAHH@toggle@   00000001800707fc     ClipProcessor.obj
 0002:0000f808       ??_C@_0M@NPADOFEL@Insert?5note@ 0000000180070808     ClipProcessor.obj
 0002:0000f814       ??_C@_03KCHOJKKI@set@      0000000180070814     ClipProcessor.obj
 0002:0000f818       ??_C@_06HDLLMMEJ@update@   0000000180070818     ClipProcessor.obj
 0002:0000f820       ??_C@_0M@IJHNKAFE@Change?5note@ 0000000180070820     ClipProcessor.obj
 0002:0000f830       ??_C@_0O@HIFPDEJG@I_CUSTOMCOLOR@ 0000000180070830     ClipProcessor.obj
 0002:0000f840       ??_C@_0P@PGHKJHHD@Set?5clip?5color@ 0000000180070840     ClipProcessor.obj
 0002:0000f850       ??_C@_0CD@MFMPPAMB@Transpose?5selected?5midi?5item?5no@ 0000000180070850     ClipProcessor.obj
 0002:0000f878       ??_C@_0N@CNHIANIK@Delete?5notes@ 0000000180070878     ClipProcessor.obj
 0002:0000f888       ??_C@_0M@LDOOCHHJ@Delete?5note@ 0000000180070888     ClipProcessor.obj
 0002:0000f898       ??_C@_0BJ@DHFDPMIM@invalid?5vector?5subscript@ 0000000180070898     ClipProcessor.obj
 0002:0000f8c0       ?_Is_word_table@?1??_Is_word@std@@YA_NE@Z@4QB_NB 00000001800708c0     ClipProcessor.obj
 0002:0000f9c8       ??_7ClipProcessor@@6B@     00000001800709c8     ClipProcessor.obj
 0002:0000fa00       ??_C@_01GFHCPBMG@C@        0000000180070a00     DataCollector.obj
 0002:0000fa08       ??_C@_0BB@GCADKGJO@map?1set?5too?5long@ 0000000180070a08     DataCollector.obj
 0002:0000fa20       ??_C@_0BF@KCFMKLOH@Out?5of?5Range?5error?3?5@ 0000000180070a20     DataCollector.obj
 0002:0000fa38       ??_C@_07OPKPFDKF@?9inf?5dB@ 0000000180070a38     DataCollector.obj
 0002:0000fa40       ??_C@_01MIFGBAGJ@?$CL@     0000000180070a40     DataCollector.obj
 0002:0000fa44       ??_C@_03PDBIMBKG@?5dB@     0000000180070a44     DataCollector.obj
 0002:0000fa48       ??_C@_01OCOKONAJ@L@        0000000180070a48     DataCollector.obj
 0002:0000fa4c       ??_C@_01DGKLNCNG@R@        0000000180070a4c     DataCollector.obj
 0002:0000fa50       ??_C@_08GKOPANOC@midi_arp@ 0000000180070a50     DataCollector.obj
 0002:0000fa60       ??_C@_0L@KJMILCNM@LOCK?5?$CI?2d?$CL?$CJ@ 0000000180070a60     DataCollector.obj
 0002:0000fa70       ??_C@_0P@LFJHAGKF@?2?$FLPreset?$CI?4?$CK?$CJ?2?$FN@ 0000000180070a70     DataCollector.obj
 0002:0000fa80       ??_C@_09DNFKBHDD@Name?$DN?$CI?4?$CK?$CJ@ 0000000180070a80     DataCollector.obj
 0002:0000fa90       ??_C@_0BE@HPAHJBEL@?1master?1user?1param?1@ 0000000180070a90     DataCollector.obj
 0002:0000faa8       ??_C@_0BA@NKLMOOND@?1primary?1param?1@ 0000000180070aa8     DataCollector.obj
 0002:0000fab8       ??_C@_02PGHGPEOM@?91@      0000000180070ab8     DataCollector.obj
 0002:0000fac0       ??_C@_09PBENLGJM@transport@ 0000000180070ac0     DataCollector.obj
 0002:0000fad0       ??_C@_07GKGAGMNN@project@  0000000180070ad0     DataCollector.obj
 0002:0000fad8       ??_C@_05BCJOPFFH@track@    0000000180070ad8     DataCollector.obj
 0002:0000fae0       ??_C@_06CHPEJBOD@device@   0000000180070ae0     DataCollector.obj
 0002:0000fae8       ??_C@_06ECGAGODA@master@   0000000180070ae8     DataCollector.obj
 0002:0000faf0       ??_C@_07OLCLNKMP@browser@  0000000180070af0     DataCollector.obj
 0002:0000faf8       ??_C@_06HHHKAAEJ@marker@   0000000180070af8     DataCollector.obj
 0002:0000fb00       ??_C@_04POIGMEJN@clip@     0000000180070b00     DataCollector.obj
 0002:0000fb08       ??_C@_07KMJDECGK@session@  0000000180070b08     DataCollector.obj
 0002:0000fb10       ??_C@_0L@FHNADFCG@noterepeat@ 0000000180070b10     DataCollector.obj
 0002:0000fb1c       ??_C@_06FKLJHCOJ@groove@   0000000180070b1c     DataCollector.obj
 0002:0000fb24       ??_C@_05IHANCCGD@?1play@   0000000180070b24     DataCollector.obj
 0002:0000fb30       ??_C@_07HCHGPHNC@?1record@ 0000000180070b30     DataCollector.obj
 0002:0000fb38       ??_C@_07GOCJPFJM@?1repeat@ 0000000180070b38     DataCollector.obj
 0002:0000fb40       ??_C@_06OFNPOOPI@?1tempo@  0000000180070b40     DataCollector.obj
 0002:0000fb48       ??_C@_06DHCPBNA@?1click@   0000000180070b48     DataCollector.obj
 0002:0000fb50       ??_C@_0P@HPFKFAHH@?1click?1preroll@ 0000000180070b50     DataCollector.obj
 0002:0000fb60       ??_C@_0M@JLCKNJME@projmetrov1@ 0000000180070b60     DataCollector.obj
 0002:0000fb70       ??_C@_0O@OKEAPAKP@?1click?1volume@ 0000000180070b70     DataCollector.obj
 0002:0000fb80       ??_C@_0BB@CHANMBCO@?1click?1volumeStr@ 0000000180070b80     DataCollector.obj
 0002:0000fb98       ??_C@_0L@DOABADOG@?1numerator@ 0000000180070b98     DataCollector.obj
 0002:0000fba8       ??_C@_0N@FLBFBMCP@?1denominator@ 0000000180070ba8     DataCollector.obj
 0002:0000fbb8       ??_C@_05KKDONAKI@?1time@   0000000180070bb8     DataCollector.obj
 0002:0000fbc0       ??_C@_09GHKDJAO@?1time?1str@ 0000000180070bc0     DataCollector.obj
 0002:0000fbcc       ??_C@_05FFILNHEG@?1beat@   0000000180070bcc     DataCollector.obj
 0002:0000fbd8       ??_C@_0BA@GLOCAJE@?1followPlayback@ 0000000180070bd8     DataCollector.obj
 0002:0000fbe8       ??_C@_0O@JJIIGBAN@?1project?1name@ 0000000180070be8     DataCollector.obj
 0002:0000fbf8       ??_C@_0BA@CGOPIOPF@?1project?1engine@ 0000000180070bf8     DataCollector.obj
 0002:0000fc08       ??_C@_0O@PEIDJLBJ@?1device?1count@ 0000000180070c08     DataCollector.obj
 0002:0000fc18       ??_C@_0P@BKONPDLG@?1device?1exists@ 0000000180070c18     DataCollector.obj
 0002:0000fc28       ??_C@_0BB@OALABAML@?1device?1position@ 0000000180070c28     DataCollector.obj
 0002:0000fc40       ??_C@_0P@CJNHJFMM@?1device?1window@ 0000000180070c40     DataCollector.obj
 0002:0000fc50       ??_C@_0P@JJDPDLGB@?1device?1expand@ 0000000180070c50     DataCollector.obj
 0002:0000fc60       ??_C@_0N@OJMIGFLC@?1device?1name@ 0000000180070c60     DataCollector.obj
 0002:0000fc70       ??_C@_0P@IGLJGCPP@?1device?1bypass@ 0000000180070c70     DataCollector.obj
 0002:0000fc80       ??_C@_05EFNKHHGE@?1name@   0000000180070c80     DataCollector.obj
 0002:0000fc88       ??_C@_0BB@GMOAGHDG@?1device?1sibling?1@ 0000000180070c88     DataCollector.obj
 0002:0000fca0       ??_C@_0BE@EBEDLDEC@?1device?1param?1count@ 0000000180070ca0     DataCollector.obj
 0002:0000fcb8       ??_C@_0BA@CDFKLNMJ@?1primary?1exists@ 0000000180070cb8     DataCollector.obj
 0002:0000fcc8       ??_C@_0BC@NJHDCANC@?1primary?1position@ 0000000180070cc8     DataCollector.obj
 0002:0000fce0       ??_C@_0O@BPMLLBEO@?1primary?1name@ 0000000180070ce0     DataCollector.obj
 0002:0000fcf0       ??_C@_0BF@IPJPIOHN@?1primary?1param?1count@ 0000000180070cf0     DataCollector.obj
 0002:0000fd08       ??_C@_0L@PFOBEBED@?1eq?1exists@ 0000000180070d08     DataCollector.obj
 0002:0000fd18       ??_C@_0BA@KGBAPMDJ@?1eq?1param?1count@ 0000000180070d18     DataCollector.obj
 0002:0000fd28       ??_C@_08BGHMPICO@BANDTYPE@ 0000000180070d28     DataCollector.obj
 0002:0000fd38       ??_C@_0M@OMEBIBCK@BANDENABLED@ 0000000180070d38     DataCollector.obj
 0002:0000fd48       ??_C@_09IKINPIEJ@?1eq?1band?1@ 0000000180070d48     DataCollector.obj
 0002:0000fd58       ??_C@_0BC@FIJHIPB@?1user?1param?1count@ 0000000180070d58     DataCollector.obj
 0002:0000fd70       ??_C@_0N@FOGOEE@playingnotes@ 0000000180070d70     DataCollector.obj
 0002:0000fd80       ??_C@_0O@EFGBJNCP@?1playingnotes@ 0000000180070d80     DataCollector.obj
 0002:0000fd90       ??_C@_07DPBJBCCC@?1track?1@ 0000000180070d90     DataCollector.obj
 0002:0000fd98       ??_C@_0N@MKMBMGKN@?1track?1count@ 0000000180070d98     DataCollector.obj
 0002:0000fda8       ??_C@_01ICJEACDI@?$DL@     0000000180070da8     DataCollector.obj
 0002:0000fdac       ??_C@_01JLIPDDHJ@?3@       0000000180070dac     DataCollector.obj
 0002:0000fdb0       ??_C@_0P@BMIANLPD@?1master?1select@ 0000000180070db0     DataCollector.obj
 0002:0000fdc0       ??_C@_0N@JACEMLOD@?1master?1mute@ 0000000180070dc0     DataCollector.obj
 0002:0000fdd0       ??_C@_0N@JIIKEPLJ@?1master?1solo@ 0000000180070dd0     DataCollector.obj
 0002:0000fde0       ??_C@_05KJNLNELG@D_VOL@    0000000180070de0     DataCollector.obj
 0002:0000fde8       ??_C@_0P@OGHNIOLH@?1master?1volume@ 0000000180070de8     DataCollector.obj
 0002:0000fdf8       ??_C@_0BD@MMBMGMAA@?1master?1volume?1str@ 0000000180070df8     DataCollector.obj
 0002:0000fe0c       ??_C@_05LEBIMEOC@D_PAN@    0000000180070e0c     DataCollector.obj
 0002:0000fe18       ??_C@_0M@KPHPJJON@?1master?1pan@ 0000000180070e18     DataCollector.obj
 0002:0000fe28       ??_C@_0BA@EMPDKNIF@?1master?1pan?1str@ 0000000180070e28     DataCollector.obj
 0002:0000fe38       ??_C@_0L@PFKLEGBB@?1master?1vu@ 0000000180070e38     DataCollector.obj
 0002:0000fe48       ??_C@_0P@ELKFDECE@?1master?1vuleft@ 0000000180070e48     DataCollector.obj
 0002:0000fe58       ??_C@_0BA@CGLHEOIM@?1master?1vuright@ 0000000180070e58     DataCollector.obj
 0002:0000fe68       ??_C@_0O@KMPKJIII@?1master?1color@ 0000000180070e68     DataCollector.obj
 0002:0000fe78       ??_C@_0L@BFFAGBII@I_AUTOMODE@ 0000000180070e78     DataCollector.obj
 0002:0000fe88       ??_C@_0BB@EKMLJNFA@?1master?1automode@ 0000000180070e88     DataCollector.obj
 0002:0000fea0       ??_C@_0N@BIDNBNDG@?1clip?1exists@ 0000000180070ea0     DataCollector.obj
 0002:0000feb0       ??_C@_0M@OMIBMEH@?1clip?1notes@ 0000000180070eb0     DataCollector.obj
 0002:0000fec0       ??_C@_0M@JHFPCPAO@?1clip?1start@ 0000000180070ec0     DataCollector.obj
 0002:0000fed0       ??_C@_09FJDEDENL@?1clip?1end@ 0000000180070ed0     DataCollector.obj
 0002:0000fee0       ??_C@_0BD@CHPKACAP@?1clip?1playposition@ 0000000180070ee0     DataCollector.obj
 0002:0000fef8       ??_C@_0L@IHJOKMGL@?1clip?1loop@ 0000000180070ef8     DataCollector.obj
 0002:0000ff08       ??_C@_0M@DDHHMEHO@?1clip?1color@ 0000000180070f08     DataCollector.obj
 0002:0000ff18       ??_C@_0BH@OKPEBKJM@?1browser?1selected?1name@ 0000000180070f18     DataCollector.obj
 0002:0000ff30       ??_C@_0BI@PMOIDAGI@?1browser?1selected?1index@ 0000000180070f30     DataCollector.obj
 0002:0000ff48       ??_C@_0O@MBFIEIIJ@?1marker?1count@ 0000000180070f48     DataCollector.obj
 0002:0000ff58       ??_C@_06INLJAPLH@P_NAME@   0000000180070f58     DataCollector.obj
 0002:0000ff60       ??_C@_0CG@MAOMPJNO@ERROR?3?5Could?5not?5read?5name?5from@ 0000000180070f60     DataCollector.obj
 0002:0000ff88       ??_C@_0L@FNNFPINI@?5on?5track?5@ 0000000180070f88     DataCollector.obj
 0002:0000ff98       ??_C@_07NBCGADJA@Unknown@  0000000180070f98     DataCollector.obj
 0002:0000ffa0       ??_C@_09BNALPNOK@?1clip?1all@ 0000000180070fa0     DataCollector.obj
 0002:0000ffb0       ??_C@_0N@DMAPGBDG@?1scene?1count@ 0000000180070fb0     DataCollector.obj
 0002:0000ffc0       ??_C@_05ELCCFCFH@scene@    0000000180070fc0     DataCollector.obj
 0002:0000ffc8       ??_C@_0BD@HOIAALNL@?1noterepeat?1active@ 0000000180070fc8     DataCollector.obj
 0002:0000ffe0       ??_C@_0BD@OMNMCDKC@?1noterepeat?1period@ 0000000180070fe0     DataCollector.obj
 0002:0000fff8       ??_C@_0BH@BCNEPADL@?1noterepeat?1notelength@ 0000000180070ff8     DataCollector.obj
 0002:00010010       ??_C@_0BB@JPDLIIAH@?1noterepeat?1mode@ 0000000180071010     DataCollector.obj
 0002:00010028       ??_C@_0BF@DGGLAJCO@?1noterepeat?1velocity@ 0000000180071028     DataCollector.obj
 0002:00010040       ??_C@_0P@DCONHCFH@?1groove?1active@ 0000000180071040     DataCollector.obj
 0002:00010050       ??_C@_0P@EEPEIMEL@?1groove?1amount@ 0000000180071050     DataCollector.obj
 0002:00010060       ??_C@_06PGNEKALH@B_MUTE@   0000000180071060     DataCollector.obj
 0002:00010068       ??_C@_0BB@LFAMKJDL@?1browser?1result?1@ 0000000180071068     DataCollector.obj
 0002:00010088       ??_7?$basic_streambuf@DU?$char_traits@D@std@@@std@@6B@ 0000000180071088     DataCollector.obj
 0002:00010108       ??_7?$basic_ostringstream@DU?$char_traits@D@std@@V?$allocator@D@2@@std@@6B@ 0000000180071108     DataCollector.obj
 0002:00010118       ??_7ios_base@std@@6B@      0000000180071118     DataCollector.obj
 0002:00010128       ??_7?$basic_filebuf@DU?$char_traits@D@std@@@std@@6B@ 0000000180071128     DataCollector.obj
 0002:000101a8       ??_7?$basic_ios@DU?$char_traits@D@std@@@std@@6B@ 00000001800711a8     DataCollector.obj
 0002:000101b8       ??_7?$basic_stringbuf@DU?$char_traits@D@std@@V?$allocator@D@2@@std@@6B@ 00000001800711b8     DataCollector.obj
 0002:00010230       ??_8?$basic_ifstream@DU?$char_traits@D@std@@@std@@7B@ 0000000180071230     DataCollector.obj
 0002:00010240       ??_7?$basic_istream@DU?$char_traits@D@std@@@std@@6B@ 0000000180071240     DataCollector.obj
 0002:00010248       ??_8?$basic_ostringstream@DU?$char_traits@D@std@@V?$allocator@D@2@@std@@7B@ 0000000180071248     DataCollector.obj
 0002:00010258       ??_7?$basic_ifstream@DU?$char_traits@D@std@@@std@@6B@ 0000000180071258     DataCollector.obj
 0002:00010268       ??_7?$basic_ostream@DU?$char_traits@D@std@@@std@@6B@ 0000000180071268     DataCollector.obj
 0002:00010278       ??_7DataCollector@@6B@     0000000180071278     DataCollector.obj
 0002:00010280       ??_C@_04BGIHDKAM@page@     0000000180071280     DeviceProcessor.obj
 0002:00010288       ??_C@_01JOAMLHOP@?9@       0000000180071288     DeviceProcessor.obj
 0002:0001028c       ??_C@_06IPOHCLCL@eq?9add@  000000018007128c     DeviceProcessor.obj
 0002:00010294       ??_C@_06LEMKAMD@remove@    0000000180071294     DeviceProcessor.obj
 0002:000102a0       ??_C@_0O@DMBBLOFB@Delete?5device@ 00000001800712a0     DeviceProcessor.obj
 0002:000102b0       ??_C@_08CJLOJPNI@selected@ 00000001800712b0     DeviceProcessor.obj
 0002:000102bc       ??_C@_06HKHKKNNB@bypass@   00000001800712bc     DeviceProcessor.obj
 0002:000102c4       ??_C@_06NFBEFKOC@window@   00000001800712c4     DeviceProcessor.obj
 0002:000102cc       ??_C@_06GFPMPEEP@expand@   00000001800712cc     DeviceProcessor.obj
 0002:000102d4       ??_C@_06OFAGBOBG@preset@   00000001800712d4     DeviceProcessor.obj
 0002:000102dc       ??_C@_05LJDNNBIK@param@    00000001800712dc     DeviceProcessor.obj
 0002:000102e4       ??_C@_05MFEJDJP@value@     00000001800712e4     DeviceProcessor.obj
 0002:000102ec       ??_C@_03BDGOHNNK@add@      00000001800712ec     DeviceProcessor.obj
 0002:000102f0       ??_C@_07NAELLPPM@eq?9band@ 00000001800712f0     DeviceProcessor.obj
 0002:000102f8       ??_C@_01GBGANLPD@0@        00000001800712f8     DeviceProcessor.obj
 0002:000102fc       ??_C@_01HIHLOKLC@1@        00000001800712fc     DeviceProcessor.obj
 0002:00010308       ??_7DeviceProcessor@@6B@   0000000180071308     DeviceProcessor.obj
 0002:000135d0       ?tab@?8??parseDestroyBuffer@LineParserInt@@QEAAHPEAD_N11@Z@4QBDB 00000001800745d0     dllmain.obj
 0002:000135d8       ??_C@_0M@CKCCJJMN@__mergesort@ 00000001800745d8     dllmain.obj
 0002:000135e8       ??_C@_0BE@KFNMAODG@AddCustomizableMenu@ 00000001800745e8     dllmain.obj
 0002:00013600       ??_C@_0BG@DFHPCEGO@AddExtensionsMainMenu@ 0000000180074600     dllmain.obj
 0002:00013618       ??_C@_0BE@HFDANIDF@AddMediaItemToTrack@ 0000000180074618     dllmain.obj
 0002:00013630       ??_C@_0BB@HMLCIKIJ@AddProjectMarker@ 0000000180074630     dllmain.obj
 0002:00013648       ??_C@_0BC@HJGINNHP@AddProjectMarker2@ 0000000180074648     dllmain.obj
 0002:00013660       ??_C@_0BD@GEBEKOIO@AddRemoveReaScript@ 0000000180074660     dllmain.obj
 0002:00013678       ??_C@_0BD@EDDANDDK@AddTakeToMediaItem@ 0000000180074678     dllmain.obj
 0002:00013690       ??_C@_0BG@EDHLFCM@AddTempoTimeSigMarker@ 0000000180074690     dllmain.obj
 0002:000136a8       ??_C@_0L@DPNOBLIG@adjustZoom@ 00000001800746a8     dllmain.obj
 0002:000136b8       ??_C@_0N@MBEEPBPE@AnyTrackSolo@ 00000001800746b8     dllmain.obj
 0002:000136c8       ??_C@_09GCINEGCC@APIExists@ 00000001800746c8     dllmain.obj
 0002:000136d8       ??_C@_07KIOHFEDH@APITest@  00000001800746d8     dllmain.obj
 0002:000136e0       ??_C@_0L@JONGMIMN@ApplyNudge@ 00000001800746e0     dllmain.obj
 0002:000136f0       ??_C@_0L@BDEIDFPP@ArmCommand@ 00000001800746f0     dllmain.obj
 0002:00013700       ??_C@_0L@FPJMNNKD@Audio_Init@ 0000000180074700     dllmain.obj
 0002:00013710       ??_C@_0BC@JGLPCECD@Audio_IsPreBuffer@ 0000000180074710     dllmain.obj
 0002:00013728       ??_C@_0BA@DDOLGBHB@Audio_IsRunning@ 0000000180074728     dllmain.obj
 0002:00013738       ??_C@_0L@IIBENBHO@Audio_Quit@ 0000000180074738     dllmain.obj
 0002:00013748       ??_C@_0BG@PODLMOFI@Audio_RegHardwareHook@ 0000000180074748     dllmain.obj
 0002:00013760       ??_C@_0BK@MJIDHBBB@AudioAccessorStateChanged@ 0000000180074760     dllmain.obj
 0002:00013780       ??_C@_0BE@OGJKFFNM@AudioAccessorUpdate@ 0000000180074780     dllmain.obj
 0002:00013798       ??_C@_0BL@DEMLMDIN@AudioAccessorValidateState@ 0000000180074798     dllmain.obj
 0002:000137b8       ??_C@_0BC@BMNJKJMP@BypassFxAllTracks@ 00000001800747b8     dllmain.obj
 0002:000137d0       ??_C@_0P@EJIJEDMG@CalculatePeaks@ 00000001800747d0     dllmain.obj
 0002:000137e0       ??_C@_0BK@JHCPAPK@CalculatePeaksFloatSrcPtr@ 00000001800747e0     dllmain.obj
 0002:00013800       ??_C@_0BB@JJJJFKJM@ClearAllRecArmed@ 0000000180074800     dllmain.obj
 0002:00013818       ??_C@_0N@HAAFJMDC@ClearConsole@ 0000000180074818     dllmain.obj
 0002:00013828       ??_C@_0P@DDLENADB@ClearPeakCache@ 0000000180074828     dllmain.obj
 0002:00013838       ??_C@_0BA@JEPNKEJD@ColorFromNative@ 0000000180074838     dllmain.obj
 0002:00013848       ??_C@_0O@NFLEEIJL@ColorToNative@ 0000000180074848     dllmain.obj
 0002:00013858       ??_C@_0BF@LOJLBFFC@CountActionShortcuts@ 0000000180074858     dllmain.obj
 0002:00013870       ??_C@_0BF@DEGLIBLK@CountAutomationItems@ 0000000180074870     dllmain.obj
 0002:00013888       ??_C@_0BE@JCHKJKGO@CountEnvelopePoints@ 0000000180074888     dllmain.obj
 0002:000138a0       ??_C@_0BG@HKBDBCNM@CountEnvelopePointsEx@ 00000001800748a0     dllmain.obj
 0002:000138b8       ??_C@_0BA@BKMJBOPI@CountMediaItems@ 00000001800748b8     dllmain.obj
 0002:000138c8       ??_C@_0BE@OGMAMEDM@CountProjectMarkers@ 00000001800748c8     dllmain.obj
 0002:000138e0       ??_C@_0BI@KEGNBFHK@CountSelectedMediaItems@ 00000001800748e0     dllmain.obj
 0002:000138f8       ??_C@_0BE@MNKOOBLM@CountSelectedTracks@ 00000001800748f8     dllmain.obj
 0002:00013910       ??_C@_0BF@CPGKAFDH@CountSelectedTracks2@ 0000000180074910     dllmain.obj
 0002:00013928       ??_C@_0BD@FAIDKCEM@CountTakeEnvelopes@ 0000000180074928     dllmain.obj
 0002:00013940       ??_C@_0L@JCIOJML@CountTakes@ 0000000180074940     dllmain.obj
 0002:00013950       ??_C@_0BA@KCFGLCAD@CountTCPFXParms@ 0000000180074950     dllmain.obj
 0002:00013960       ??_C@_0BJ@MHECKPCP@CountTempoTimeSigMarkers@ 0000000180074960     dllmain.obj
 0002:00013980       ??_C@_0BE@LMDCLLEL@CountTrackEnvelopes@ 0000000180074980     dllmain.obj
 0002:00013998       ??_C@_0BF@CBAAEKMN@CountTrackMediaItems@ 0000000180074998     dllmain.obj
 0002:000139b0       ??_C@_0M@PAABNMGE@CountTracks@ 00000001800749b0     dllmain.obj
 0002:000139c0       ??_C@_0BG@JCNJEHBP@CreateLocalOscHandler@ 00000001800749c0     dllmain.obj
 0002:000139d8       ??_C@_0BA@HOMOBOFN@CreateMIDIInput@ 00000001800749d8     dllmain.obj
 0002:000139e8       ??_C@_0BB@JHKKKEAC@CreateMIDIOutput@ 00000001800749e8     dllmain.obj
 0002:00013a00       ??_C@_0BI@COEJEMCF@CreateNewMIDIItemInProj@ 0000000180074a00     dllmain.obj
 0002:00013a18       ??_C@_0BI@CGIPBFBE@CreateTakeAudioAccessor@ 0000000180074a18     dllmain.obj
 0002:00013a30       ??_C@_0BJ@KFKLNOPA@CreateTrackAudioAccessor@ 0000000180074a30     dllmain.obj
 0002:00013a50       ??_C@_0BA@PNOJMBPH@CreateTrackSend@ 0000000180074a50     dllmain.obj
 0002:00013a60       ??_C@_0BA@GBIOIFDJ@CSurf_FlushUndo@ 0000000180074a60     dllmain.obj
 0002:00013a70       ??_C@_0BE@FAHKBPEA@CSurf_GetTouchState@ 0000000180074a70     dllmain.obj
 0002:00013a88       ??_C@_0M@MJIKEIJG@CSurf_GoEnd@ 0000000180074a88     dllmain.obj
 0002:00013a98       ??_C@_0O@ILDLLDOP@CSurf_GoStart@ 0000000180074a98     dllmain.obj
 0002:00013aa8       ??_C@_0BA@DONDOBGN@CSurf_NumTracks@ 0000000180074aa8     dllmain.obj
 0002:00013ab8       ??_C@_0O@ECIIGOEP@CSurf_OnArrow@ 0000000180074ab8     dllmain.obj
 0002:00013ac8       ??_C@_0M@BJPLNEFK@CSurf_OnFwd@ 0000000180074ac8     dllmain.obj
 0002:00013ad8       ??_C@_0BB@BNFGKKNI@CSurf_OnFXChange@ 0000000180074ad8     dllmain.obj
 0002:00013af0       ??_C@_0BL@PMBHKCBN@CSurf_OnInputMonitorChange@ 0000000180074af0     dllmain.obj
 0002:00013b10       ??_C@_0BN@FGADOOBK@CSurf_OnInputMonitorChangeEx@ 0000000180074b10     dllmain.obj
 0002:00013b30       ??_C@_0BD@LEBNFEBH@CSurf_OnMuteChange@ 0000000180074b30     dllmain.obj
 0002:00013b48       ??_C@_0BF@PIDCBJLD@CSurf_OnMuteChangeEx@ 0000000180074b48     dllmain.obj
 0002:00013b60       ??_C@_0BK@GKAKBNBL@CSurf_OnOscControlMessage@ 0000000180074b60     dllmain.obj
 0002:00013b80       ??_C@_0BC@EMKHFDJE@CSurf_OnPanChange@ 0000000180074b80     dllmain.obj
 0002:00013b98       ??_C@_0BE@HGPILPCC@CSurf_OnPanChangeEx@ 0000000180074b98     dllmain.obj
 0002:00013bb0       ??_C@_0O@FNFNEAFN@CSurf_OnPause@ 0000000180074bb0     dllmain.obj
 0002:00013bc0       ??_C@_0N@BLCJPBNG@CSurf_OnPlay@ 0000000180074bc0     dllmain.obj
 0002:00013bd0       ??_C@_0BH@MACMNAGK@CSurf_OnPlayRateChange@ 0000000180074bd0     dllmain.obj
 0002:00013be8       ??_C@_0BF@MFBDGICM@CSurf_OnRecArmChange@ 0000000180074be8     dllmain.obj
 0002:00013c00       ??_C@_0BH@OLOPPLAC@CSurf_OnRecArmChangeEx@ 0000000180074c00     dllmain.obj
 0002:00013c18       ??_C@_0P@PEBOLCGF@CSurf_OnRecord@ 0000000180074c18     dllmain.obj
 0002:00013c28       ??_C@_0BG@PCEANJBD@CSurf_OnRecvPanChange@ 0000000180074c28     dllmain.obj
 0002:00013c40       ??_C@_0BJ@KGJJKAOL@CSurf_OnRecvVolumeChange@ 0000000180074c40     dllmain.obj
 0002:00013c60       ??_C@_0M@LIMNCCBO@CSurf_OnRew@ 0000000180074c60     dllmain.obj
 0002:00013c70       ??_C@_0P@LKIPKBHI@CSurf_OnRewFwd@ 0000000180074c70     dllmain.obj
 0002:00013c80       ??_C@_0P@HNBOAIM@CSurf_OnScroll@ 0000000180074c80     dllmain.obj
 0002:00013c90       ??_C@_0BH@GOELANIM@CSurf_OnSelectedChange@ 0000000180074c90     dllmain.obj
 0002:00013ca8       ??_C@_0BG@HHKEEIB@CSurf_OnSendPanChange@ 0000000180074ca8     dllmain.obj
 0002:00013cc0       ??_C@_0BJ@FKONOBGF@CSurf_OnSendVolumeChange@ 0000000180074cc0     dllmain.obj
 0002:00013ce0       ??_C@_0BD@POMJFGFK@CSurf_OnSoloChange@ 0000000180074ce0     dllmain.obj
 0002:00013cf8       ??_C@_0BF@FDOLADAD@CSurf_OnSoloChangeEx@ 0000000180074cf8     dllmain.obj
 0002:00013d10       ??_C@_0N@BCHIGCDF@CSurf_OnStop@ 0000000180074d10     dllmain.obj
 0002:00013d20       ??_C@_0BE@CBPGPOEJ@CSurf_OnTempoChange@ 0000000180074d20     dllmain.obj
 0002:00013d38       ??_C@_0BH@IEBJOHKA@CSurf_OnTrackSelection@ 0000000180074d38     dllmain.obj
 0002:00013d50       ??_C@_0BF@LNOBKKEK@CSurf_OnVolumeChange@ 0000000180074d50     dllmain.obj
 0002:00013d68       ??_C@_0BH@KNCCOMEN@CSurf_OnVolumeChangeEx@ 0000000180074d68     dllmain.obj
 0002:00013d80       ??_C@_0BE@PHEOMNKB@CSurf_OnWidthChange@ 0000000180074d80     dllmain.obj
 0002:00013d98       ??_C@_0BG@MDHOHIDO@CSurf_OnWidthChangeEx@ 0000000180074d98     dllmain.obj
 0002:00013db0       ??_C@_0N@GHBMLMMG@CSurf_OnZoom@ 0000000180074db0     dllmain.obj
 0002:00013dc0       ??_C@_0CB@DOCAEMEN@CSurf_ResetAllCachedVolPanState@ 0000000180074dc0     dllmain.obj
 0002:00013de8       ??_C@_0P@MJLBCKHH@CSurf_ScrubAmt@ 0000000180074de8     dllmain.obj
 0002:00013df8       ??_C@_0BC@ENAIMIIE@CSurf_SetAutoMode@ 0000000180074df8     dllmain.obj
 0002:00013e10       ??_C@_0BD@OJOKEFJ@CSurf_SetPlayState@ 0000000180074e10     dllmain.obj
 0002:00013e28       ??_C@_0BF@OFGGEOEE@CSurf_SetRepeatState@ 0000000180074e28     dllmain.obj
 0002:00013e40       ??_C@_0BF@OOFNHGNH@CSurf_SetSurfaceMute@ 0000000180074e40     dllmain.obj
 0002:00013e58       ??_C@_0BE@GHLOBAOA@CSurf_SetSurfacePan@ 0000000180074e58     dllmain.obj
 0002:00013e70       ??_C@_0BH@JPOJFNBP@CSurf_SetSurfaceRecArm@ 0000000180074e70     dllmain.obj
 0002:00013e88       ??_C@_0BJ@JKJCJOPL@CSurf_SetSurfaceSelected@ 0000000180074e88     dllmain.obj
 0002:00013ea8       ??_C@_0BF@OGPDPCIN@CSurf_SetSurfaceSolo@ 0000000180074ea8     dllmain.obj
 0002:00013ec0       ??_C@_0BH@OIIHMMAI@CSurf_SetSurfaceVolume@ 0000000180074ec0     dllmain.obj
 0002:00013ed8       ??_C@_0BJ@PGIJFIMH@CSurf_SetTrackListChange@ 0000000180074ed8     dllmain.obj
 0002:00013ef8       ??_C@_0BC@JHFKOCFC@CSurf_TrackFromID@ 0000000180074ef8     dllmain.obj
 0002:00013f10       ??_C@_0BA@PMFFPKLB@CSurf_TrackToID@ 0000000180074f10     dllmain.obj
 0002:00013f20       ??_C@_09GJEGPDEA@DB2SLIDER@ 0000000180074f20     dllmain.obj
 0002:00013f30       ??_C@_0BF@IPNIILPM@DeleteActionShortcut@ 0000000180074f30     dllmain.obj
 0002:00013f48       ??_C@_0BG@GDJFAFMC@DeleteEnvelopePointEx@ 0000000180074f48     dllmain.obj
 0002:00013f60       ??_C@_0BJ@JCPBNEGE@DeleteEnvelopePointRange@ 0000000180074f60     dllmain.obj
 0002:00013f80       ??_C@_0BL@BBJIJGEK@DeleteEnvelopePointRangeEx@ 0000000180074f80     dllmain.obj
 0002:00013fa0       ??_C@_0P@IAGPFOLB@DeleteExtState@ 0000000180074fa0     dllmain.obj
 0002:00013fb0       ??_C@_0BE@GNNOPNGJ@DeleteProjectMarker@ 0000000180074fb0     dllmain.obj
 0002:00013fc8       ??_C@_0BL@EJAILFJG@DeleteProjectMarkerByIndex@ 0000000180074fc8     dllmain.obj
 0002:00013fe8       ??_C@_0BB@PEGEHFLL@DeleteTakeMarker@ 0000000180074fe8     dllmain.obj
 0002:00014000       ??_C@_0BJ@JBENLBCJ@DeleteTakeStretchMarkers@ 0000000180075000     dllmain.obj
 0002:00014020       ??_C@_0BJ@MIBPPLIC@DeleteTempoTimeSigMarker@ 0000000180075020     dllmain.obj
 0002:00014040       ??_C@_0M@OBHIPNGF@DeleteTrack@ 0000000180075040     dllmain.obj
 0002:00014050       ??_C@_0BF@KLGDLBLK@DeleteTrackMediaItem@ 0000000180075050     dllmain.obj
 0002:00014068       ??_C@_0BF@IFOEENIJ@DestroyAudioAccessor@ 0000000180075068     dllmain.obj
 0002:00014080       ??_C@_0BH@EMPKNCFP@DestroyLocalOscHandler@ 0000000180075080     dllmain.obj
 0002:00014098       ??_C@_0BH@NLGDDKBP@DoActionShortcutDialog@ 0000000180075098     dllmain.obj
 0002:000140b0       ??_C@_0BC@CKPEEIFM@Dock_UpdateDockID@ 00000001800750b0     dllmain.obj
 0002:000140c8       ??_C@_0BA@HIKFFLG@DockGetPosition@ 00000001800750c8     dllmain.obj
 0002:000140d8       ??_C@_0BC@PIJKOHLE@DockIsChildOfDock@ 00000001800750d8     dllmain.obj
 0002:000140f0       ??_C@_0BD@PCAGDHME@DockWindowActivate@ 00000001800750f0     dllmain.obj
 0002:00014108       ??_C@_0O@LNMMFNNL@DockWindowAdd@ 0000000180075108     dllmain.obj
 0002:00014118       ??_C@_0BA@OGKBDAIE@DockWindowAddEx@ 0000000180075118     dllmain.obj
 0002:00014128       ??_C@_0BC@CKFMMLEH@DockWindowRefresh@ 0000000180075128     dllmain.obj
 0002:00014140       ??_C@_0BJ@MMEBJNOE@DockWindowRefreshForHWND@ 0000000180075140     dllmain.obj
 0002:00014160       ??_C@_0BB@KHNCCMDM@DockWindowRemove@ 0000000180075160     dllmain.obj
 0002:00014178       ??_C@_0BK@FEEDLKML@DuplicateCustomizableMenu@ 0000000180075178     dllmain.obj
 0002:00014198       ??_C@_0BH@MLFKDCIK@EditTempoTimeSigMarker@ 0000000180075198     dllmain.obj
 0002:000141b0       ??_C@_0BN@NPADHKOM@EnsureNotCompletelyOffscreen@ 00000001800751b0     dllmain.obj
 0002:000141d0       ??_C@_0P@JIFONACO@EnumerateFiles@ 00000001800751d0     dllmain.obj
 0002:000141e0       ??_C@_0BI@MNCCOIF@EnumerateSubdirectories@ 00000001800751e0     dllmain.obj
 0002:000141f8       ??_C@_0BE@EEDALMGM@EnumPitchShiftModes@ 00000001800751f8     dllmain.obj
 0002:00014210       ??_C@_0BH@HFGINMFA@EnumPitchShiftSubModes@ 0000000180075210     dllmain.obj
 0002:00014228       ??_C@_0BD@LICOIEDD@EnumProjectMarkers@ 0000000180075228     dllmain.obj
 0002:00014240       ??_C@_0BE@FCBIBLOD@EnumProjectMarkers2@ 0000000180075240     dllmain.obj
 0002:00014258       ??_C@_0BE@ELADCKKC@EnumProjectMarkers3@ 0000000180075258     dllmain.obj
 0002:00014270       ??_C@_0N@FNDLNIGA@EnumProjects@ 0000000180075270     dllmain.obj
 0002:00014280       ??_C@_0BB@PBOCHCBF@EnumProjExtState@ 0000000180075280     dllmain.obj
 0002:00014298       ??_C@_0BH@BJOIPEKI@EnumRegionRenderMatrix@ 0000000180075298     dllmain.obj
 0002:000142b0       ??_C@_0BK@LFJCGOAM@EnumTrackMIDIProgramNames@ 00000001800752b0     dllmain.obj
 0002:000142d0       ??_C@_0BM@JHAIAKBE@EnumTrackMIDIProgramNamesEx@ 00000001800752d0     dllmain.obj
 0002:000142f0       ??_C@_0BC@JOHGCOIE@Envelope_Evaluate@ 00000001800752f0     dllmain.obj
 0002:00014308       ??_C@_0BF@GECJJLFG@Envelope_FormatValue@ 0000000180075308     dllmain.obj
 0002:00014320       ??_C@_0BH@GOPBAHFH@Envelope_GetParentTake@ 0000000180075320     dllmain.obj
 0002:00014338       ??_C@_0BI@DPBIPGLI@Envelope_GetParentTrack@ 0000000180075338     dllmain.obj
 0002:00014350       ??_C@_0BE@JLMGHHLG@Envelope_SortPoints@ 0000000180075350     dllmain.obj
 0002:00014368       ??_C@_0BG@ONEJMKLC@Envelope_SortPointsEx@ 0000000180075368     dllmain.obj
 0002:00014380       ??_C@_0M@GNJHEBEI@ExecProcess@ 0000000180075380     dllmain.obj
 0002:00014390       ??_C@_0M@LNEIIFKD@file_exists@ 0000000180075390     dllmain.obj
 0002:000143a0       ??_C@_0BH@MGFEPHAK@FindTempoTimeSigMarker@ 00000001800753a0     dllmain.obj
 0002:000143b8       ??_C@_0P@NJBALGCN@format_timestr@ 00000001800753b8     dllmain.obj
 0002:000143c8       ??_C@_0BD@FIJHNCCD@format_timestr_len@ 00000001800753c8     dllmain.obj
 0002:000143e0       ??_C@_0BD@LAKDNDMO@format_timestr_pos@ 00000001800753e0     dllmain.obj
 0002:000143f8       ??_C@_0M@EAHAJJBN@FreeHeapPtr@ 00000001800753f8     dllmain.obj
 0002:00014408       ??_C@_07FLCGAOKH@genGuid@  0000000180075408     dllmain.obj
 0002:00014410       ??_C@_0P@NOEPDOJ@get_config_var@ 0000000180075410     dllmain.obj
 0002:00014420       ??_C@_0BG@EGPMEFNG@get_config_var_string@ 0000000180075420     dllmain.obj
 0002:00014438       ??_C@_0N@OKFCCDHH@get_ini_file@ 0000000180075438     dllmain.obj
 0002:00014448       ??_C@_0BE@LDKNFGOA@get_midi_config_var@ 0000000180075448     dllmain.obj
 0002:00014460       ??_C@_0BG@GNBPKHJI@GetActionShortcutDesc@ 0000000180075460     dllmain.obj
 0002:00014478       ??_C@_0O@LENNGBGM@GetActiveTake@ 0000000180075478     dllmain.obj
 0002:00014488       ??_C@_0BI@JFOLNKBN@GetAllProjectPlayStates@ 0000000180075488     dllmain.obj
 0002:000144a0       ??_C@_0O@GDAIFFMG@GetAppVersion@ 00000001800754a0     dllmain.obj
 0002:000144b0       ??_C@_0BA@IILEGAGA@GetArmedCommand@ 00000001800754b0     dllmain.obj
 0002:000144c0       ??_C@_0BI@MHHEFADP@GetAudioAccessorEndTime@ 00000001800754c0     dllmain.obj
 0002:000144d8       ??_C@_0BF@HBCFLFBA@GetAudioAccessorHash@ 00000001800754d8     dllmain.obj
 0002:000144f0       ??_C@_0BI@LNPDNECL@GetAudioAccessorSamples@ 00000001800754f0     dllmain.obj
 0002:00014508       ??_C@_0BK@MFEMDEKF@GetAudioAccessorStartTime@ 0000000180075508     dllmain.obj
 0002:00014528       ??_C@_0BD@BKFACHLM@GetAudioDeviceInfo@ 0000000180075528     dllmain.obj
 0002:00014540       ??_C@_0O@PDKNJPLE@GetColorTheme@ 0000000180075540     dllmain.obj
 0002:00014550       ??_C@_0BE@IGDBHLIE@GetColorThemeStruct@ 0000000180075550     dllmain.obj
 0002:00014568       ??_C@_0BD@EAIGDAEH@GetConfigWantsDock@ 0000000180075568     dllmain.obj
 0002:00014580       ??_C@_0P@IGPAFBNJ@GetContextMenu@ 0000000180075580     dllmain.obj
 0002:00014590       ??_C@_0BM@BJNCDENG@GetCurrentProjectInLoadSave@ 0000000180075590     dllmain.obj
 0002:000145b0       ??_C@_0BB@LGPOCJCF@GetCursorContext@ 00000001800755b0     dllmain.obj
 0002:000145c8       ??_C@_0BC@KGMCHOBP@GetCursorContext2@ 00000001800755c8     dllmain.obj
 0002:000145e0       ??_C@_0BC@DJJGDMOB@GetCursorPosition@ 00000001800755e0     dllmain.obj
 0002:000145f8       ??_C@_0BE@PJLNDLGJ@GetCursorPositionEx@ 00000001800755f8     dllmain.obj
 0002:00014610       ??_C@_0BL@FNEKPHCI@GetDisplayedMediaItemColor@ 0000000180075610     dllmain.obj
 0002:00014630       ??_C@_0BM@NIJILGHM@GetDisplayedMediaItemColor2@ 0000000180075630     dllmain.obj
 0002:00014650       ??_C@_0BG@JJNOCGCL@GetEnvelopeInfo_Value@ 0000000180075650     dllmain.obj
 0002:00014668       ??_C@_0BA@DJDAIIID@GetEnvelopeName@ 0000000180075668     dllmain.obj
 0002:00014678       ??_C@_0BB@DKAAPLNM@GetEnvelopePoint@ 0000000180075678     dllmain.obj
 0002:00014690       ??_C@_0BH@FPGFPDBE@GetEnvelopePointByTime@ 0000000180075690     dllmain.obj
 0002:000146a8       ??_C@_0BJ@JLKNJHED@GetEnvelopePointByTimeEx@ 00000001800756a8     dllmain.obj
 0002:000146c8       ??_C@_0BD@JGFFCHFC@GetEnvelopePointEx@ 00000001800756c8     dllmain.obj
 0002:000146e0       ??_C@_0BH@IOPFFOAI@GetEnvelopeScalingMode@ 00000001800756e0     dllmain.obj
 0002:000146f8       ??_C@_0BG@FBECJJLO@GetEnvelopeStateChunk@ 00000001800756f8     dllmain.obj
 0002:00014710       ??_C@_0L@FCBMKNDA@GetExePath@ 0000000180075710     dllmain.obj
 0002:00014720       ??_C@_0M@KDMHLDHM@GetExtState@ 0000000180075720     dllmain.obj
 0002:00014730       ??_C@_0N@FAGALEIJ@GetFocusedFX@ 0000000180075730     dllmain.obj
 0002:00014740       ??_C@_0BO@IHGALOLB@GetFreeDiskSpaceForRecordPath@ 0000000180075740     dllmain.obj
 0002:00014760       ??_C@_0O@FPIHBIEN@GetFXEnvelope@ 0000000180075760     dllmain.obj
 0002:00014770       ??_C@_0BM@NKIFEDLJ@GetGlobalAutomationOverride@ 0000000180075770     dllmain.obj
 0002:00014790       ??_C@_0O@HMCFNHKJ@GetHZoomLevel@ 0000000180075790     dllmain.obj
 0002:000147a0       ??_C@_0BE@KMLDPJPE@GetIconThemePointer@ 00000001800757a0     dllmain.obj
 0002:000147b8       ??_C@_0BK@BAJIHHKG@GetIconThemePointerForDPI@ 00000001800757b8     dllmain.obj
 0002:000147d8       ??_C@_0BD@DDGKKMBG@GetIconThemeStruct@ 00000001800757d8     dllmain.obj
 0002:000147f0       ??_C@_0BE@NMNFDFJM@GetInputChannelName@ 00000001800757f0     dllmain.obj
 0002:00014808       ??_C@_0BG@JONCBAGI@GetInputOutputLatency@ 0000000180075808     dllmain.obj
 0002:00014820       ??_C@_0BE@IDAJAOKG@GetItemEditingTime2@ 0000000180075820     dllmain.obj
 0002:00014838       ??_C@_0BB@MMGMCPJL@GetItemFromPoint@ 0000000180075838     dllmain.obj
 0002:00014850       ??_C@_0BG@FAMEBGBG@GetItemProjectContext@ 0000000180075850     dllmain.obj
 0002:00014868       ??_C@_0BC@LJGNONOD@GetItemStateChunk@ 0000000180075868     dllmain.obj
 0002:00014880       ??_C@_0BG@NCIGBFAM@GetLastColorThemeFile@ 0000000180075880     dllmain.obj
 0002:00014898       ??_C@_0BK@NHGBKGNK@GetLastMarkerAndCurRegion@ 0000000180075898     dllmain.obj
 0002:000148b8       ??_C@_0BB@ELHFHNGK@GetLastTouchedFX@ 00000001800758b8     dllmain.obj
 0002:000148d0       ??_C@_0BE@HFNDAPPD@GetLastTouchedTrack@ 00000001800758d0     dllmain.obj
 0002:000148e8       ??_C@_0M@NMAPJIDK@GetMainHwnd@ 00000001800758e8     dllmain.obj
 0002:000148f8       ??_C@_0BH@BINAGDLL@GetMasterMuteSoloFlags@ 00000001800758f8     dllmain.obj
 0002:00014910       ??_C@_0P@DMLBONGN@GetMasterTrack@ 0000000180075910     dllmain.obj
 0002:00014920       ??_C@_0BJ@KFLHKPJG@GetMasterTrackVisibility@ 0000000180075920     dllmain.obj
 0002:00014940       ??_C@_0BB@GMCNJPOK@GetMaxMidiInputs@ 0000000180075940     dllmain.obj
 0002:00014958       ??_C@_0BC@JJFHBPJ@GetMaxMidiOutputs@ 0000000180075958     dllmain.obj
 0002:00014970       ??_C@_0N@BFBJDGEG@GetMediaItem@ 0000000180075970     dllmain.obj
 0002:00014980       ??_C@_0BD@EOAOOKLK@GetMediaItem_Track@ 0000000180075980     dllmain.obj
 0002:00014998       ??_C@_0BH@EMFMFPON@GetMediaItemInfo_Value@ 0000000180075998     dllmain.obj
 0002:000149b0       ??_C@_0BF@CFHNDNAH@GetMediaItemNumTakes@ 00000001800759b0     dllmain.obj
 0002:000149c8       ??_C@_0BB@HKEFJBHO@GetMediaItemTake@ 00000001800759c8     dllmain.obj
 0002:000149e0       ??_C@_0BG@DCLGKNMI@GetMediaItemTake_Item@ 00000001800759e0     dllmain.obj
 0002:000149f8       ??_C@_0BH@GDCJNAJO@GetMediaItemTake_Peaks@ 00000001800759f8     dllmain.obj
 0002:00014a10       ??_C@_0BI@DLHKLLKN@GetMediaItemTake_Source@ 0000000180075a10     dllmain.obj
 0002:00014a28       ??_C@_0BH@KGHABAPL@GetMediaItemTake_Track@ 0000000180075a28     dllmain.obj
 0002:00014a40       ??_C@_0BH@CKAFFIEG@GetMediaItemTakeByGUID@ 0000000180075a40     dllmain.obj
 0002:00014a58       ??_C@_0BL@MIMKKIIB@GetMediaItemTakeInfo_Value@ 0000000180075a58     dllmain.obj
 0002:00014a78       ??_C@_0BC@HNLONKEC@GetMediaItemTrack@ 0000000180075a78     dllmain.obj
 0002:00014a90       ??_C@_0BH@OMNGJBOO@GetMediaSourceFileName@ 0000000180075a90     dllmain.obj
 0002:00014aa8       ??_C@_0BF@HLEBDCOM@GetMediaSourceLength@ 0000000180075aa8     dllmain.obj
 0002:00014ac0       ??_C@_0BK@JPCFLGDH@GetMediaSourceNumChannels@ 0000000180075ac0     dllmain.obj
 0002:00014ae0       ??_C@_0BF@LIHBEPLD@GetMediaSourceParent@ 0000000180075ae0     dllmain.obj
 0002:00014af8       ??_C@_0BJ@IMHBBPNK@GetMediaSourceSampleRate@ 0000000180075af8     dllmain.obj
 0002:00014b18       ??_C@_0BD@CPGIODEB@GetMediaSourceType@ 0000000180075b18     dllmain.obj
 0002:00014b30       ??_C@_0BI@MMPEABBF@GetMediaTrackInfo_Value@ 0000000180075b30     dllmain.obj
 0002:00014b48       ??_C@_0BB@JOKGKJOH@GetMIDIInputName@ 0000000180075b48     dllmain.obj
 0002:00014b60       ??_C@_0BC@EPNIAO@GetMIDIOutputName@ 0000000180075b60     dllmain.obj
 0002:00014b78       ??_C@_0P@GHCADKCL@GetMixerScroll@ 0000000180075b78     dllmain.obj
 0002:00014b88       ??_C@_0BB@MCIGDFLI@GetMouseModifier@ 0000000180075b88     dllmain.obj
 0002:00014ba0       ??_C@_0BB@MMLACOLH@GetMousePosition@ 0000000180075ba0     dllmain.obj
 0002:00014bb8       ??_C@_0BC@FLMACKDO@GetNumAudioInputs@ 0000000180075bb8     dllmain.obj
 0002:00014bd0       ??_C@_0BD@IIBMIKIB@GetNumAudioOutputs@ 0000000180075bd0     dllmain.obj
 0002:00014be8       ??_C@_0BB@MEJDAPLE@GetNumMIDIInputs@ 0000000180075be8     dllmain.obj
 0002:00014c00       ??_C@_0BC@IFOOLDJK@GetNumMIDIOutputs@ 0000000180075c00     dllmain.obj
 0002:00014c18       ??_C@_0BC@LGNKPCIM@GetNumTakeMarkers@ 0000000180075c18     dllmain.obj
 0002:00014c30       ??_C@_0N@ODPHHJIO@GetNumTracks@ 0000000180075c30     dllmain.obj
 0002:00014c40       ??_C@_05DLPGPBE@GetOS@     0000000180075c40     dllmain.obj
 0002:00014c48       ??_C@_0BF@CLNMONME@GetOutputChannelName@ 0000000180075c48     dllmain.obj
 0002:00014c60       ??_C@_0BB@KNEMFAKB@GetOutputLatency@ 0000000180075c60     dllmain.obj
 0002:00014c78       ??_C@_0P@MEMFBFBP@GetParentTrack@ 0000000180075c78     dllmain.obj
 0002:00014c88       ??_C@_0BA@JEACPLP@GetPeakFileName@ 0000000180075c88     dllmain.obj
 0002:00014c98       ??_C@_0BC@FJDLDKLL@GetPeakFileNameEx@ 0000000180075c98     dllmain.obj
 0002:00014cb0       ??_C@_0BD@LBJKAFEP@GetPeakFileNameEx2@ 0000000180075cb0     dllmain.obj
 0002:00014cc8       ??_C@_0P@ILIKHCOJ@GetPeaksBitmap@ 0000000180075cc8     dllmain.obj
 0002:00014cd8       ??_C@_0BA@IGAGNPLG@GetPlayPosition@ 0000000180075cd8     dllmain.obj
 0002:00014ce8       ??_C@_0BB@MPPEEEBH@GetPlayPosition2@ 0000000180075ce8     dllmain.obj
 0002:00014d00       ??_C@_0BD@OFIFHCDO@GetPlayPosition2Ex@ 0000000180075d00     dllmain.obj
 0002:00014d18       ??_C@_0BC@DFEEPMKI@GetPlayPositionEx@ 0000000180075d18     dllmain.obj
 0002:00014d30       ??_C@_0N@OGCNCGJM@GetPlayState@ 0000000180075d30     dllmain.obj
 0002:00014d40       ??_C@_0P@JOEOBKBD@GetPlayStateEx@ 0000000180075d40     dllmain.obj
 0002:00014d50       ??_C@_0BJ@GPMNEOIB@GetPreferredDiskReadMode@ 0000000180075d50     dllmain.obj
 0002:00014d70       ??_C@_0BN@HHEPHPNP@GetPreferredDiskReadModePeak@ 0000000180075d70     dllmain.obj
 0002:00014d90       ??_C@_0BK@JONEJEJE@GetPreferredDiskWriteMode@ 0000000180075d90     dllmain.obj
 0002:00014db0       ??_C@_0BB@EOGFIMFK@GetProjectLength@ 0000000180075db0     dllmain.obj
 0002:00014dc8       ??_C@_0P@PGELJMHP@GetProjectName@ 0000000180075dc8     dllmain.obj
 0002:00014dd8       ??_C@_0P@IPMCFDCO@GetProjectPath@ 0000000180075dd8     dllmain.obj
 0002:00014de8       ??_C@_0BB@GINCDKHF@GetProjectPathEx@ 0000000180075de8     dllmain.obj
 0002:00014e00       ??_C@_0BL@PBPLIAMI@GetProjectStateChangeCount@ 0000000180075e00     dllmain.obj
 0002:00014e20       ??_C@_0BF@EKAJKIJB@GetProjectTimeOffset@ 0000000180075e20     dllmain.obj
 0002:00014e38       ??_C@_0BI@EDNEDOIL@GetProjectTimeSignature@ 0000000180075e38     dllmain.obj
 0002:00014e50       ??_C@_0BJ@JHFJNKOH@GetProjectTimeSignature2@ 0000000180075e50     dllmain.obj
 0002:00014e70       ??_C@_0BA@DLJMGIEF@GetProjExtState@ 0000000180075e70     dllmain.obj
 0002:00014e80       ??_C@_0BA@CPMBCJFG@GetResourcePath@ 0000000180075e80     dllmain.obj
 0002:00014e90       ??_C@_0BE@HOJDFLBJ@GetSelectedEnvelope@ 0000000180075e90     dllmain.obj
 0002:00014ea8       ??_C@_0BF@KBIHPCFH@GetSelectedMediaItem@ 0000000180075ea8     dllmain.obj
 0002:00014ec0       ??_C@_0BB@OLPDCBOF@GetSelectedTrack@ 0000000180075ec0     dllmain.obj
 0002:00014ed8       ??_C@_0BC@DNPLLBKH@GetSelectedTrack2@ 0000000180075ed8     dllmain.obj
 0002:00014ef0       ??_C@_0BJ@JLOBIBMG@GetSelectedTrackEnvelope@ 0000000180075ef0     dllmain.obj
 0002:00014f10       ??_C@_0BE@ENLJJBKL@GetSet_ArrangeView2@ 0000000180075f10     dllmain.obj
 0002:00014f28       ??_C@_0BF@MBPLNFAM@GetSet_LoopTimeRange@ 0000000180075f28     dllmain.obj
 0002:00014f40       ??_C@_0BG@OEAHODIP@GetSet_LoopTimeRange2@ 0000000180075f40     dllmain.obj
 0002:00014f58       ??_C@_0BJ@MFCDKJA@GetSetAutomationItemInfo@ 0000000180075f58     dllmain.obj
 0002:00014f78       ??_C@_0CA@OBGNDMBP@GetSetAutomationItemInfo_String@ 0000000180075f78     dllmain.obj
 0002:00014f98       ??_C@_0BK@BFNJADHN@GetSetEnvelopeInfo_String@ 0000000180075f98     dllmain.obj
 0002:00014fb8       ??_C@_0BE@MNGBIEHH@GetSetEnvelopeState@ 0000000180075fb8     dllmain.obj
 0002:00014fd0       ??_C@_0BF@CDNMNBGK@GetSetEnvelopeState2@ 0000000180075fd0     dllmain.obj
 0002:00014fe8       ??_C@_0BA@PLNJNCNC@GetSetItemState@ 0000000180075fe8     dllmain.obj
 0002:00014ff8       ??_C@_0BB@IFFGDOFL@GetSetItemState2@ 0000000180075ff8     dllmain.obj
 0002:00015010       ??_C@_0BE@KJHICPAN@GetSetMediaItemInfo@ 0000000180076010     dllmain.obj
 0002:00015028       ??_C@_0BL@MNKNGGFJ@GetSetMediaItemInfo_String@ 0000000180076028     dllmain.obj
 0002:00015048       ??_C@_0BI@ONFBLOGM@GetSetMediaItemTakeInfo@ 0000000180076048     dllmain.obj
 0002:00015060       ??_C@_0BP@OOPBGGPB@GetSetMediaItemTakeInfo_String@ 0000000180076060     dllmain.obj
 0002:00015080       ??_C@_0BF@BKKCDBMG@GetSetMediaTrackInfo@ 0000000180076080     dllmain.obj
 0002:00015098       ??_C@_0BM@PGOJEIEP@GetSetMediaTrackInfo_String@ 0000000180076098     dllmain.obj
 0002:000150b8       ??_C@_0BC@DABBIAKD@GetSetObjectState@ 00000001800760b8     dllmain.obj
 0002:000150d0       ??_C@_0BD@KCJPLHKD@GetSetObjectState2@ 00000001800760d0     dllmain.obj
 0002:000150e8       ??_C@_0BE@BPBAEAPB@GetSetProjectAuthor@ 00000001800760e8     dllmain.obj
 0002:00015100       ??_C@_0BC@OIMJHHM@GetSetProjectGrid@ 0000000180076100     dllmain.obj
 0002:00015118       ??_C@_0BC@EDNLFPMM@GetSetProjectInfo@ 0000000180076118     dllmain.obj
 0002:00015130       ??_C@_0BJ@CCKALLLN@GetSetProjectInfo_String@ 0000000180076130     dllmain.obj
 0002:00015150       ??_C@_0BD@EBGBHMDL@GetSetProjectNotes@ 0000000180076150     dllmain.obj
 0002:00015168       ??_C@_0N@LJKNOOEB@GetSetRepeat@ 0000000180076168     dllmain.obj
 0002:00015178       ??_C@_0P@DPGHLEED@GetSetRepeatEx@ 0000000180076178     dllmain.obj
 0002:00015188       ??_C@_0BL@MIIGHGCL@GetSetTrackGroupMembership@ 0000000180076188     dllmain.obj
 0002:000151a8       ??_C@_0BP@BBDINOJJ@GetSetTrackGroupMembershipHigh@ 00000001800761a8     dllmain.obj
 0002:000151c8       ??_C@_0BL@FPNBLAPC@GetSetTrackMIDISupportFile@ 00000001800761c8     dllmain.obj
 0002:000151e8       ??_C@_0BE@GJDBAPJG@GetSetTrackSendInfo@ 00000001800761e8     dllmain.obj
 0002:00015200       ??_C@_0BL@EGAJFJH@GetSetTrackSendInfo_String@ 0000000180076200     dllmain.obj
 0002:00015220       ??_C@_0BB@DLAOHNO@GetSetTrackState@ 0000000180076220     dllmain.obj
 0002:00015238       ??_C@_0BC@IMBIBLEF@GetSetTrackState2@ 0000000180076238     dllmain.obj
 0002:00015250       ??_C@_0BI@DINEJHPI@GetSubProjectFromSource@ 0000000180076250     dllmain.obj
 0002:00015268       ??_C@_07OCLJIFLJ@GetTake@  0000000180076268     dllmain.obj
 0002:00015270       ??_C@_0BA@IJFPNLEJ@GetTakeEnvelope@ 0000000180076270     dllmain.obj
 0002:00015280       ??_C@_0BG@GIJNKDJB@GetTakeEnvelopeByName@ 0000000180076280     dllmain.obj
 0002:00015298       ??_C@_0O@FEILGBNF@GetTakeMarker@ 0000000180076298     dllmain.obj
 0002:000152a8       ??_C@_0M@MAFLPPAB@GetTakeName@ 00000001800762a8     dllmain.obj
 0002:000152b8       ??_C@_0BJ@CAGPIPEG@GetTakeNumStretchMarkers@ 00000001800762b8     dllmain.obj
 0002:000152d8       ??_C@_0BF@EEPAKAPG@GetTakeStretchMarker@ 00000001800762d8     dllmain.obj
 0002:000152f0       ??_C@_0BK@FCCILFNL@GetTakeStretchMarkerSlope@ 00000001800762f0     dllmain.obj
 0002:00015310       ??_C@_0N@DHBAMCHB@GetTCPFXParm@ 0000000180076310     dllmain.obj
 0002:00015320       ??_C@_0BG@PMFBIIMH@GetTempoMatchPlayRate@ 0000000180076320     dllmain.obj
 0002:00015338       ??_C@_0BG@JNKMHBH@GetTempoTimeSigMarker@ 0000000180076338     dllmain.obj
 0002:00015350       ??_C@_0O@NLPLHKC@GetThemeColor@ 0000000180076350     dllmain.obj
 0002:00015360       ??_C@_0BG@PDHAAPNM@GetToggleCommandState@ 0000000180076360     dllmain.obj
 0002:00015378       ??_C@_0BH@GCOGLKIB@GetToggleCommandState2@ 0000000180076378     dllmain.obj
 0002:00015390       ??_C@_0BI@CMIFNICH@GetToggleCommandStateEx@ 0000000180076390     dllmain.obj
 0002:000153a8       ??_C@_0CC@PBEMKJDE@GetToggleCommandStateThroughHoo@ 00000001800763a8     dllmain.obj
 0002:000153d0       ??_C@_0BB@EINIIELK@GetTooltipWindow@ 00000001800763d0     dllmain.obj
 0002:000153e8       ??_C@_08HICGHBEF@GetTrack@ 00000001800763e8     dllmain.obj
 0002:000153f8       ??_C@_0BH@DACOCBEI@GetTrackAutomationMode@ 00000001800763f8     dllmain.obj
 0002:00015410       ??_C@_0O@CFGKJOOA@GetTrackColor@ 0000000180076410     dllmain.obj
 0002:00015420       ??_C@_0O@MIEOOIJE@GetTrackDepth@ 0000000180076420     dllmain.obj
 0002:00015430       ??_C@_0BB@MGCMFPKB@GetTrackEnvelope@ 0000000180076430     dllmain.obj
 0002:00015448       ??_C@_0BM@KDHLLEG@GetTrackEnvelopeByChunkName@ 0000000180076448     dllmain.obj
 0002:00015468       ??_C@_0BH@NEKAOJKD@GetTrackEnvelopeByName@ 0000000180076468     dllmain.obj
 0002:00015480       ??_C@_0BC@EJGAFNPA@GetTrackFromPoint@ 0000000180076480     dllmain.obj
 0002:00015498       ??_C@_0N@JJKHJHMF@GetTrackGUID@ 0000000180076498     dllmain.obj
 0002:000154a8       ??_C@_0N@EENMKKLA@GetTrackInfo@ 00000001800764a8     dllmain.obj
 0002:000154b8       ??_C@_0BC@GEIFHGON@GetTrackMediaItem@ 00000001800764b8     dllmain.obj
 0002:000154d0       ??_C@_0BD@JBDDAKMO@GetTrackMIDILyrics@ 00000001800764d0     dllmain.obj
 0002:000154e8       ??_C@_0BF@KOFINELG@GetTrackMIDINoteName@ 00000001800764e8     dllmain.obj
 0002:00015500       ??_C@_0BH@KCJGANHO@GetTrackMIDINoteNameEx@ 0000000180076500     dllmain.obj
 0002:00015518       ??_C@_0BG@FPADGIOP@GetTrackMIDINoteRange@ 0000000180076518     dllmain.obj
 0002:00015530       ??_C@_0N@FICFGBJN@GetTrackName@ 0000000180076530     dllmain.obj
 0002:00015540       ??_C@_0BG@KKOGLALC@GetTrackNumMediaItems@ 0000000180076540     dllmain.obj
 0002:00015558       ??_C@_0BB@GAEJHLOK@GetTrackNumSends@ 0000000180076558     dllmain.obj
 0002:00015570       ??_C@_0BE@MJNENOMB@GetTrackReceiveName@ 0000000180076570     dllmain.obj
 0002:00015588       ??_C@_0BG@OHAGLIJC@GetTrackReceiveUIMute@ 0000000180076588     dllmain.obj
 0002:000155a0       ??_C@_0BI@GEFHOOAH@GetTrackReceiveUIVolPan@ 00000001800765a0     dllmain.obj
 0002:000155b8       ??_C@_0BH@INIPBHJO@GetTrackSendInfo_Value@ 00000001800765b8     dllmain.obj
 0002:000155d0       ??_C@_0BB@JENBECHE@GetTrackSendName@ 00000001800765d0     dllmain.obj
 0002:000155e8       ??_C@_0BD@IHANGAAF@GetTrackSendUIMute@ 00000001800765e8     dllmain.obj
 0002:00015600       ??_C@_0BF@NCFPMIDH@GetTrackSendUIVolPan@ 0000000180076600     dllmain.obj
 0002:00015618       ??_C@_0O@NGBGCKDC@GetTrackState@ 0000000180076618     dllmain.obj
 0002:00015628       ??_C@_0BD@GDIIFJEB@GetTrackStateChunk@ 0000000180076628     dllmain.obj
 0002:00015640       ??_C@_0P@KKNGJFCG@GetTrackUIMute@ 0000000180076640     dllmain.obj
 0002:00015650       ??_C@_0O@OIHAJCIM@GetTrackUIPan@ 0000000180076650     dllmain.obj
 0002:00015660       ??_C@_0BB@KBCBJEBO@GetTrackUIVolPan@ 0000000180076660     dllmain.obj
 0002:00015678       ??_C@_0BA@CPAKJGOC@GetUnderrunTime@ 0000000180076678     dllmain.obj
 0002:00015688       ??_C@_0BH@PCOHKEL@GetUserFileNameForRead@ 0000000180076688     dllmain.obj
 0002:000156a0       ??_C@_0O@MDACBBGM@GetUserInputs@ 00000001800766a0     dllmain.obj
 0002:000156b0       ??_C@_0L@LHMGKGLL@GoToMarker@ 00000001800766b0     dllmain.obj
 0002:000156c0       ??_C@_0L@FECIAAHI@GoToRegion@ 00000001800766c0     dllmain.obj
 0002:000156d0       ??_C@_0P@NNJPODHE@GR_SelectColor@ 00000001800766d0     dllmain.obj
 0002:000156e0       ??_C@_0M@CDANFLOH@GSC_mainwnd@ 00000001800766e0     dllmain.obj
 0002:000156f0       ??_C@_0N@MFEFJBNE@guidToString@ 00000001800766f0     dllmain.obj
 0002:00015700       ??_C@_0M@IDFGEEPG@HasExtState@ 0000000180076700     dllmain.obj
 0002:00015710       ??_C@_0BF@DFHKAPPM@HasTrackMIDIPrograms@ 0000000180076710     dllmain.obj
 0002:00015728       ??_C@_0BH@LJABDKIP@HasTrackMIDIProgramsEx@ 0000000180076728     dllmain.obj
 0002:00015740       ??_C@_08MFDHICKO@Help_Set@ 0000000180076740     dllmain.obj
 0002:00015750       ??_C@_0BF@NPBMENLH@HiresPeaksFromSource@ 0000000180076750     dllmain.obj
 0002:00015768       ??_C@_0BB@OODOLCKD@image_resolve_fn@ 0000000180076768     dllmain.obj
 0002:00015780       ??_C@_0BF@DPIACPAP@InsertAutomationItem@ 0000000180076780     dllmain.obj
 0002:00015798       ??_C@_0BE@MCAHNFI@InsertEnvelopePoint@ 0000000180076798     dllmain.obj
 0002:000157b0       ??_C@_0BG@MNGBGKCI@InsertEnvelopePointEx@ 00000001800767b0     dllmain.obj
 0002:000157c8       ??_C@_0M@LLCKLKPI@InsertMedia@ 00000001800767c8     dllmain.obj
 0002:000157d8       ??_C@_0BD@NDAMGELC@InsertMediaSection@ 00000001800767d8     dllmain.obj
 0002:000157f0       ??_C@_0BD@PLHAJKGF@InsertTrackAtIndex@ 00000001800767f0     dllmain.obj
 0002:00015808       ??_C@_0BC@LLMCLMJP@IsInRealTimeAudio@ 0000000180076808     dllmain.obj
 0002:00015820       ??_C@_0BM@OJACDFPG@IsItemTakeActiveForPlayback@ 0000000180076820     dllmain.obj
 0002:00015840       ??_C@_0BB@JIAFHIJF@IsMediaExtension@ 0000000180076840     dllmain.obj
 0002:00015858       ??_C@_0BE@EKACJFIN@IsMediaItemSelected@ 0000000180076858     dllmain.obj
 0002:00015870       ??_C@_0P@PKNGHICA@IsProjectDirty@ 0000000180076870     dllmain.obj
 0002:00015880       ??_C@_08PCIFKFJJ@IsREAPER@ 0000000180076880     dllmain.obj
 0002:00015890       ??_C@_0BA@PCBAKIOB@IsTrackSelected@ 0000000180076890     dllmain.obj
 0002:000158a0       ??_C@_0P@CKMOKGOA@IsTrackVisible@ 00000001800768a0     dllmain.obj
 0002:000158b0       ??_C@_0BA@IKLMMHOB@joystick_create@ 00000001800768b0     dllmain.obj
 0002:000158c0       ??_C@_0BB@NELFCELB@joystick_destroy@ 00000001800768c0     dllmain.obj
 0002:000158d8       ??_C@_0O@KKCDIDFC@joystick_enum@ 00000001800768d8     dllmain.obj
 0002:000158e8       ??_C@_0BB@HOOAHPEE@joystick_getaxis@ 00000001800768e8     dllmain.obj
 0002:00015900       ??_C@_0BH@CBILGPFB@joystick_getbuttonmask@ 0000000180076900     dllmain.obj
 0002:00015918       ??_C@_0BB@NGMJCGKG@joystick_getinfo@ 0000000180076918     dllmain.obj
 0002:00015930       ??_C@_0BA@KEJJFCBK@joystick_getpov@ 0000000180076930     dllmain.obj
 0002:00015940       ??_C@_0BA@POBKOGKO@joystick_update@ 0000000180076940     dllmain.obj
 0002:00015950       ??_C@_0BF@MLHCCABB@kbd_enumerateActions@ 0000000180076950     dllmain.obj
 0002:00015968       ??_C@_0BC@DCAPAIPC@kbd_formatKeyName@ 0000000180076968     dllmain.obj
 0002:00015980       ??_C@_0BD@IOFEHDKA@kbd_getCommandName@ 0000000180076980     dllmain.obj
 0002:00015998       ??_C@_0BD@HJNEPPMH@kbd_getTextFromCmd@ 0000000180076998     dllmain.obj
 0002:000159b0       ??_C@_0BD@JAAFFOFI@KBD_OnMainActionEx@ 00000001800769b0     dllmain.obj
 0002:000159c8       ??_C@_0BA@JMFGFOOK@kbd_OnMidiEvent@ 00000001800769c8     dllmain.obj
 0002:000159d8       ??_C@_0P@KFNMPGEA@kbd_OnMidiList@ 00000001800769d8     dllmain.obj
 0002:000159e8       ??_C@_0BH@BBLBMANM@kbd_ProcessActionsMenu@ 00000001800769e8     dllmain.obj
 0002:00015a00       ??_C@_0BN@IBDJNMD@kbd_processMidiEventActionEx@ 0000000180076a00     dllmain.obj
 0002:00015a20       ??_C@_0BC@LJDMNHED@kbd_reprocessMenu@ 0000000180076a20     dllmain.obj
 0002:00015a38       ??_C@_0BL@GPLLAODC@kbd_RunCommandThroughHooks@ 0000000180076a38     dllmain.obj
 0002:00015a58       ??_C@_0BJ@DKOKGLEG@kbd_translateAccelerator@ 0000000180076a58     dllmain.obj
 0002:00015a78       ??_C@_0BD@HJAFGGIO@kbd_translateMouse@ 0000000180076a78     dllmain.obj
 0002:00015a90       ??_C@_0O@PDPLEIOI@LICE__Destroy@ 0000000180076a90     dllmain.obj
 0002:00015aa0       ??_C@_0BC@DFCDOBL@LICE__DestroyFont@ 0000000180076aa0     dllmain.obj
 0002:00015ab8       ??_C@_0P@MFCELKHM@LICE__DrawText@ 0000000180076ab8     dllmain.obj
 0002:00015ac8       ??_C@_0O@CDJEEGBA@LICE__GetBits@ 0000000180076ac8     dllmain.obj
 0002:00015ad8       ??_C@_0M@KPEAKKKM@LICE__GetDC@ 0000000180076ad8     dllmain.obj
 0002:00015ae8       ??_C@_0BA@EMFDPPME@LICE__GetHeight@ 0000000180076ae8     dllmain.obj
 0002:00015af8       ??_C@_0BB@MMANACJE@LICE__GetRowSpan@ 0000000180076af8     dllmain.obj
 0002:00015b10       ??_C@_0P@LGPNLHLP@LICE__GetWidth@ 0000000180076b10     dllmain.obj
 0002:00015b20       ??_C@_0BA@OELMGGKP@LICE__IsFlipped@ 0000000180076b20     dllmain.obj
 0002:00015b30       ??_C@_0N@PGNMMPJC@LICE__resize@ 0000000180076b30     dllmain.obj
 0002:00015b40       ??_C@_0BB@FHMKCIKJ@LICE__SetBkColor@ 0000000180076b40     dllmain.obj
 0002:00015b58       ??_C@_0BD@IBDLBFDP@LICE__SetFromHFont@ 0000000180076b58     dllmain.obj
 0002:00015b70       ??_C@_0BD@NMCFFJE@LICE__SetTextColor@ 0000000180076b70     dllmain.obj
 0002:00015b88       ??_C@_0BJ@IKAGCOMG@LICE__SetTextCombineMode@ 0000000180076b88     dllmain.obj
 0002:00015ba8       ??_C@_08LNLKNFKH@LICE_Arc@ 0000000180076ba8     dllmain.obj
 0002:00015bb8       ??_C@_09PJKNOPMG@LICE_Blit@ 0000000180076bb8     dllmain.obj
 0002:00015bc8       ??_C@_09LKMLBCFE@LICE_Blur@ 0000000180076bc8     dllmain.obj
 0002:00015bd8       ??_C@_0BC@IJODJGNM@LICE_BorderedRect@ 0000000180076bd8     dllmain.obj
 0002:00015bf0       ??_C@_0M@NIBGIIJI@LICE_Circle@ 0000000180076bf0     dllmain.obj
 0002:00015c00       ??_C@_0L@PEJANMJI@LICE_Clear@ 0000000180076c00     dllmain.obj
 0002:00015c10       ??_C@_0P@HIBPOLBB@LICE_ClearRect@ 0000000180076c10     dllmain.obj
 0002:00015c20       ??_C@_0O@CDFEIMAH@LICE_ClipLine@ 0000000180076c20     dllmain.obj
 0002:00015c30       ??_C@_09HACBIPCK@LICE_Copy@ 0000000180076c30     dllmain.obj
 0002:00015c40       ??_C@_0BC@DALKCAKK@LICE_CreateBitmap@ 0000000180076c40     dllmain.obj
 0002:00015c58       ??_C@_0BA@LPFFPMFF@LICE_CreateFont@ 0000000180076c58     dllmain.obj
 0002:00015c68       ??_C@_0BB@IIAHFKBP@LICE_DrawCBezier@ 0000000180076c68     dllmain.obj
 0002:00015c80       ??_C@_0O@DENNIPBH@LICE_DrawChar@ 0000000180076c80     dllmain.obj
 0002:00015c90       ??_C@_0P@NGPLPGCP@LICE_DrawGlyph@ 0000000180076c90     dllmain.obj
 0002:00015ca0       ??_C@_0O@MOOJJKBA@LICE_DrawRect@ 0000000180076ca0     dllmain.obj
 0002:00015cb0       ??_C@_0O@FBNKCDCB@LICE_DrawText@ 0000000180076cb0     dllmain.obj
 0002:00015cc0       ??_C@_0BB@DCIANABD@LICE_FillCBezier@ 0000000180076cc0     dllmain.obj
 0002:00015cd8       ??_C@_0BA@HCMGIEKF@LICE_FillCircle@ 0000000180076cd8     dllmain.obj
 0002:00015ce8       ??_C@_0BH@FNDFMBHF@LICE_FillConvexPolygon@ 0000000180076ce8     dllmain.obj
 0002:00015d00       ??_C@_0O@MJAIAMHD@LICE_FillRect@ 0000000180076d00     dllmain.obj
 0002:00015d10       ??_C@_0BD@FNNDLLFH@LICE_FillTrapezoid@ 0000000180076d10     dllmain.obj
 0002:00015d28       ??_C@_0BC@HBEKCAOE@LICE_FillTriangle@ 0000000180076d28     dllmain.obj
 0002:00015d40       ??_C@_0O@FMEBPKDO@LICE_GetPixel@ 0000000180076d40     dllmain.obj
 0002:00015d50       ??_C@_0O@HCCGNGOA@LICE_GradRect@ 0000000180076d50     dllmain.obj
 0002:00015d60       ??_C@_09CHNFJEAA@LICE_Line@ 0000000180076d60     dllmain.obj
 0002:00015d70       ??_C@_0N@MJCCEAN@LICE_LineInt@ 0000000180076d70     dllmain.obj
 0002:00015d80       ??_C@_0N@ECEDLBJH@LICE_LoadPNG@ 0000000180076d80     dllmain.obj
 0002:00015d90       ??_C@_0BJ@HDBFLMPE@LICE_LoadPNGFromResource@ 0000000180076d90     dllmain.obj
 0002:00015db0       ??_C@_0BB@FCMNKGBK@LICE_MeasureText@ 0000000180076db0     dllmain.obj
 0002:00015dc8       ??_C@_0BF@NICDHLKA@LICE_MultiplyAddRect@ 0000000180076dc8     dllmain.obj
 0002:00015de0       ??_C@_0O@OIFLOEKN@LICE_PutPixel@ 0000000180076de0     dllmain.obj
 0002:00015df0       ??_C@_0BB@KHJMDJNM@LICE_RotatedBlit@ 0000000180076df0     dllmain.obj
 0002:00015e08       ??_C@_0P@NGICJNEG@LICE_RoundRect@ 0000000180076e08     dllmain.obj
 0002:00015e18       ??_C@_0BA@PHKJMNOB@LICE_ScaledBlit@ 0000000180076e18     dllmain.obj
 0002:00015e28       ??_C@_0BA@DFOBBAGO@LICE_SimpleFill@ 0000000180076e28     dllmain.obj
 0002:00015e38       ??_C@_0P@NIFIODOJ@LocalizeString@ 0000000180076e38     dllmain.obj
 0002:00015e48       ??_C@_0N@JLBFINDB@Loop_OnArrow@ 0000000180076e48     dllmain.obj
 0002:00015e58       ??_C@_0P@JIDOFFPK@Main_OnCommand@ 0000000180076e58     dllmain.obj
 0002:00015e68       ??_C@_0BB@GEOFIIKH@Main_OnCommandEx@ 0000000180076e68     dllmain.obj
 0002:00015e80       ??_C@_0BB@LNHBKEEG@Main_openProject@ 0000000180076e80     dllmain.obj
 0002:00015e98       ??_C@_0BB@INOGGAPO@Main_SaveProject@ 0000000180076e98     dllmain.obj
 0002:00015eb0       ??_C@_0BE@JADKJGPL@Main_UpdateLoopInfo@ 0000000180076eb0     dllmain.obj
 0002:00015ec8       ??_C@_0BB@HLIDHFPP@MarkProjectDirty@ 0000000180076ec8     dllmain.obj
 0002:00015ee0       ??_C@_0BE@DCECBFLI@MarkTrackItemsDirty@ 0000000180076ee0     dllmain.obj
 0002:00015ef8       ??_C@_0BD@NLGNMNAF@Master_GetPlayRate@ 0000000180076ef8     dllmain.obj
 0002:00015f10       ??_C@_0BJ@KICPGPNP@Master_GetPlayRateAtTime@ 0000000180076f10     dllmain.obj
 0002:00015f30       ??_C@_0BA@POJMIFHC@Master_GetTempo@ 0000000180076f30     dllmain.obj
 0002:00015f40       ??_C@_0BJ@CCDAIGBF@Master_NormalizePlayRate@ 0000000180076f40     dllmain.obj
 0002:00015f60       ??_C@_0BG@PBLILPPD@Master_NormalizeTempo@ 0000000180076f60     dllmain.obj
 0002:00015f78       ??_C@_02LKLDBFPJ@MB@       0000000180076f78     dllmain.obj
 0002:00015f80       ??_C@_0BL@DLDPICIB@MediaItemDescendsFromTrack@ 0000000180076f80     dllmain.obj
 0002:00015fa0       ??_C@_0P@BKPOHFOL@MIDI_CountEvts@ 0000000180076fa0     dllmain.obj
 0002:00015fb0       ??_C@_0O@JCBIMGDM@MIDI_DeleteCC@ 0000000180076fb0     dllmain.obj
 0002:00015fc0       ??_C@_0P@GDGFKABE@MIDI_DeleteEvt@ 0000000180076fc0     dllmain.obj
 0002:00015fd0       ??_C@_0BA@FIPCAHDL@MIDI_DeleteNote@ 0000000180076fd0     dllmain.obj
 0002:00015fe0       ??_C@_0BI@OIBOBFHH@MIDI_DeleteTextSysexEvt@ 0000000180076fe0     dllmain.obj
 0002:00015ff8       ??_C@_0BB@MDNEAGBJ@MIDI_DisableSort@ 0000000180076ff8     dllmain.obj
 0002:00016010       ??_C@_0P@CLNNGDOF@MIDI_EnumSelCC@ 0000000180077010     dllmain.obj
 0002:00016020       ??_C@_0BB@OIONALBM@MIDI_EnumSelEvts@ 0000000180077020     dllmain.obj
 0002:00016038       ??_C@_0BC@PGHEBID@MIDI_EnumSelNotes@ 0000000180077038     dllmain.obj
 0002:00016050       ??_C@_0BK@MKBBEMJP@MIDI_EnumSelTextSysexEvts@ 0000000180077050     dllmain.obj
 0002:00016070       ??_C@_0BG@HMFPKPAA@MIDI_eventlist_Create@ 0000000180077070     dllmain.obj
 0002:00016088       ??_C@_0BH@DEOBFDH@MIDI_eventlist_Destroy@ 0000000180077088     dllmain.obj
 0002:000160a0       ??_C@_0BA@JOFDPCEN@MIDI_GetAllEvts@ 00000001800770a0     dllmain.obj
 0002:000160b0       ??_C@_0L@IFGAPOHP@MIDI_GetCC@ 00000001800770b0     dllmain.obj
 0002:000160c0       ??_C@_0BA@PPKBJAKF@MIDI_GetCCShape@ 00000001800770c0     dllmain.obj
 0002:000160d0       ??_C@_0M@IMKHMIAG@MIDI_GetEvt@ 00000001800770d0     dllmain.obj
 0002:000160e0       ??_C@_0N@JCCFIEK@MIDI_GetGrid@ 00000001800770e0     dllmain.obj
 0002:000160f0       ??_C@_0N@HENKFOEA@MIDI_GetHash@ 00000001800770f0     dllmain.obj
 0002:00016100       ??_C@_0N@KLKELEBL@MIDI_GetNote@ 0000000180077100     dllmain.obj
 0002:00016110       ??_C@_0BM@JPBCNECI@MIDI_GetPPQPos_EndOfMeasure@ 0000000180077110     dllmain.obj
 0002:00016130       ??_C@_0BO@ECKDFMKH@MIDI_GetPPQPos_StartOfMeasure@ 0000000180077130     dllmain.obj
 0002:00016150       ??_C@_0BJ@LOEKKOGE@MIDI_GetPPQPosFromProjQN@ 0000000180077150     dllmain.obj
 0002:00016170       ??_C@_0BL@JNHPEBGA@MIDI_GetPPQPosFromProjTime@ 0000000180077170     dllmain.obj
 0002:00016190       ??_C@_0BJ@IOAHDLLP@MIDI_GetProjQNFromPPQPos@ 0000000180077190     dllmain.obj
 0002:000161b0       ??_C@_0BL@OMADMANB@MIDI_GetProjTimeFromPPQPos@ 00000001800771b0     dllmain.obj
 0002:000161d0       ??_C@_0O@IAOKJCNM@MIDI_GetScale@ 00000001800771d0     dllmain.obj
 0002:000161e0       ??_C@_0BF@NFLGODHL@MIDI_GetTextSysexEvt@ 00000001800771e0     dllmain.obj
 0002:000161f8       ??_C@_0BC@FOJDBKGD@MIDI_GetTrackHash@ 00000001800771f8     dllmain.obj
 0002:00016210       ??_C@_0O@MIEOBEEA@MIDI_InsertCC@ 0000000180077210     dllmain.obj
 0002:00016220       ??_C@_0P@DKIMMLNB@MIDI_InsertEvt@ 0000000180077220     dllmain.obj
 0002:00016230       ??_C@_0BA@LDKFNIGP@MIDI_InsertNote@ 0000000180077230     dllmain.obj
 0002:00016240       ??_C@_0BI@CKHGFFGG@MIDI_InsertTextSysexEvt@ 0000000180077240     dllmain.obj
 0002:00016258       ??_C@_0M@NNMEAIOO@midi_reinit@ 0000000180077258     dllmain.obj
 0002:00016268       ??_C@_0P@PJIMJPDM@MIDI_SelectAll@ 0000000180077268     dllmain.obj
 0002:00016278       ??_C@_0BA@IAHMEFAE@MIDI_SetAllEvts@ 0000000180077278     dllmain.obj
 0002:00016288       ??_C@_0L@BNCHLOPC@MIDI_SetCC@ 0000000180077288     dllmain.obj
 0002:00016298       ??_C@_0BA@OBIOCHOM@MIDI_SetCCShape@ 0000000180077298     dllmain.obj
 0002:000162a8       ??_C@_0M@BPDGHANL@MIDI_SetEvt@ 00000001800772a8     dllmain.obj
 0002:000162b8       ??_C@_0BE@EMCCKJEB@MIDI_SetItemExtents@ 00000001800772b8     dllmain.obj
 0002:000162d0       ??_C@_0N@FDFFILMK@MIDI_SetNote@ 00000001800772d0     dllmain.obj
 0002:000162e0       ??_C@_0BF@OHKAJBGC@MIDI_SetTextSysexEvt@ 00000001800772e0     dllmain.obj
 0002:000162f8       ??_C@_09IEEMLKNI@MIDI_Sort@ 00000001800772f8     dllmain.obj
 0002:00016308       ??_C@_0BF@GMNMBDNM@MIDIEditor_GetActive@ 0000000180077308     dllmain.obj
 0002:00016320       ??_C@_0BD@GAFKOOMC@MIDIEditor_GetMode@ 0000000180077320     dllmain.obj
 0002:00016338       ??_C@_0BK@FBHBGMAE@MIDIEditor_GetSetting_int@ 0000000180077338     dllmain.obj
 0002:00016358       ??_C@_0BK@CJDOFKNP@MIDIEditor_GetSetting_str@ 0000000180077358     dllmain.obj
 0002:00016378       ??_C@_0BD@OGCJCLDP@MIDIEditor_GetTake@ 0000000180077378     dllmain.obj
 0002:00016390       ??_C@_0CB@GOHDECHF@MIDIEditor_LastFocused_OnComman@ 0000000180077390     dllmain.obj
 0002:000163b8       ??_C@_0BF@HELEKKLF@MIDIEditor_OnCommand@ 00000001800773b8     dllmain.obj
 0002:000163d0       ??_C@_0BK@JPGPJGCI@MIDIEditor_SetSetting_int@ 00000001800773d0     dllmain.obj
 0002:000163f0       ??_C@_08HOCCADN@mkpanstr@  00000001800773f0     dllmain.obj
 0002:00016400       ??_C@_0M@IAFCFKCG@mkvolpanstr@ 0000000180077400     dllmain.obj
 0002:00016410       ??_C@_08CEPICHBH@mkvolstr@ 0000000180077410     dllmain.obj
 0002:00016420       ??_C@_0P@EDKPBHOH@MoveEditCursor@ 0000000180077420     dllmain.obj
 0002:00016430       ??_C@_0BF@OMHBNFOH@MoveMediaItemToTrack@ 0000000180077430     dllmain.obj
 0002:00016448       ??_C@_0O@GJFJIMKE@MuteAllTracks@ 0000000180077448     dllmain.obj
 0002:00016458       ??_C@_0P@PJMACFKI@my_getViewport@ 0000000180077458     dllmain.obj
 0002:00016468       ??_C@_0BD@CJJACHGC@NamedCommandLookup@ 0000000180077468     dllmain.obj
 0002:00016480       ??_C@_0O@PJJJFMOE@OnPauseButton@ 0000000180077480     dllmain.obj
 0002:00016490       ??_C@_0BA@MJHIGOHL@OnPauseButtonEx@ 0000000180077490     dllmain.obj
 0002:000164a0       ??_C@_0N@DIPGCHKB@OnPlayButton@ 00000001800774a0     dllmain.obj
 0002:000164b0       ??_C@_0P@IDKBLMOA@OnPlayButtonEx@ 00000001800774b0     dllmain.obj
 0002:000164c0       ??_C@_0N@ECOAEAAF@OnStopButton@ 00000001800774c0     dllmain.obj
 0002:000164d0       ??_C@_0P@JKBMELOA@OnStopButtonEx@ 00000001800774d0     dllmain.obj
 0002:000164e0       ??_C@_0BD@KAEDOJPO@OpenColorThemeFile@ 00000001800774e0     dllmain.obj
 0002:000164f8       ??_C@_0BC@HGCPBAPO@OpenMediaExplorer@ 00000001800774f8     dllmain.obj
 0002:00016510       ??_C@_0BG@OJCJBGGF@OscLocalMessageToHost@ 0000000180077510     dllmain.obj
 0002:00016528       ??_C@_0O@MGCNPKMD@parse_timestr@ 0000000180077528     dllmain.obj
 0002:00016538       ??_C@_0BC@PAFHNFMH@parse_timestr_len@ 0000000180077538     dllmain.obj
 0002:00016550       ??_C@_0BC@BIGDNECK@parse_timestr_pos@ 0000000180077550     dllmain.obj
 0002:00016568       ??_C@_0M@KMBKOEIE@parsepanstr@ 0000000180077568     dllmain.obj
 0002:00016578       ??_C@_0BA@IPHDBGKO@PCM_Sink_Create@ 0000000180077578     dllmain.obj
 0002:00016588       ??_C@_0BC@FFOHBHJA@PCM_Sink_CreateEx@ 0000000180077588     dllmain.obj
 0002:000165a0       ??_C@_0BI@EMAPILPI@PCM_Sink_CreateMIDIFile@ 00000001800775a0     dllmain.obj
 0002:000165b8       ??_C@_0BK@DHLIMBMH@PCM_Sink_CreateMIDIFileEx@ 00000001800775b8     dllmain.obj
 0002:000165d8       ??_C@_0O@JGOKNNGE@PCM_Sink_Enum@ 00000001800775d8     dllmain.obj
 0002:000165e8       ??_C@_0BG@DDFOLAFM@PCM_Sink_GetExtension@ 00000001800775e8     dllmain.obj
 0002:00016600       ??_C@_0BE@OECALGCO@PCM_Sink_ShowConfig@ 0000000180077600     dllmain.obj
 0002:00016618       ??_C@_0BK@MEEBJCNJ@PCM_Source_CreateFromFile@ 0000000180077618     dllmain.obj
 0002:00016638       ??_C@_0BM@NPEMPEKK@PCM_Source_CreateFromFileEx@ 0000000180077638     dllmain.obj
 0002:00016658       ??_C@_0BM@HIPNNIKN@PCM_Source_CreateFromSimple@ 0000000180077658     dllmain.obj
 0002:00016678       ??_C@_0BK@JLEEFLLA@PCM_Source_CreateFromType@ 0000000180077678     dllmain.obj
 0002:00016698       ??_C@_0BD@NCBEEBEK@PCM_Source_Destroy@ 0000000180077698     dllmain.obj
 0002:000166b0       ??_C@_0BE@NPGDJICO@PCM_Source_GetPeaks@ 00000001800776b0     dllmain.obj
 0002:000166c8       ??_C@_0BK@PBNKKICN@PCM_Source_GetSectionInfo@ 00000001800776c8     dllmain.obj
 0002:000166e8       ??_C@_0BB@KBPPNDAL@PeakBuild_Create@ 00000001800776e8     dllmain.obj
 0002:00016700       ??_C@_0BD@GNJJEHIP@PeakBuild_CreateEx@ 0000000180077700     dllmain.obj
 0002:00016718       ??_C@_0P@GHKJHGED@PeakGet_Create@ 0000000180077718     dllmain.obj
 0002:00016728       ??_C@_0BG@JBAOMIDM@PitchShiftSubModeMenu@ 0000000180077728     dllmain.obj
 0002:00016740       ??_C@_0M@OIIMJKJC@PlayPreview@ 0000000180077740     dllmain.obj
 0002:00016750       ??_C@_0O@MCBKMGJL@PlayPreviewEx@ 0000000180077750     dllmain.obj
 0002:00016760       ??_C@_0BB@EBFADCMF@PlayTrackPreview@ 0000000180077760     dllmain.obj
 0002:00016778       ??_C@_0BC@GDPDCHM@PlayTrackPreview2@ 0000000180077778     dllmain.obj
 0002:00016790       ??_C@_0BE@NKOKNNJA@PlayTrackPreview2Ex@ 0000000180077790     dllmain.obj
 0002:000167a8       ??_C@_0O@NJBPDFDE@plugin_getapi@ 00000001800777a8     dllmain.obj
 0002:000167b8       ??_C@_0BF@POELKDPO@plugin_getFilterList@ 00000001800777b8     dllmain.obj
 0002:000167d0       ??_C@_0CG@JKEGPPOJ@plugin_getImportableProjectFilt@ 00000001800777d0     dllmain.obj
 0002:000167f8       ??_C@_0BA@HGNAKOG@plugin_register@ 00000001800777f8     dllmain.obj
 0002:00016808       ??_C@_0BH@FACJCLFH@PluginWantsAlwaysRunFx@ 0000000180077808     dllmain.obj
 0002:00016820       ??_C@_0BB@JCMEJANG@PreventUIRefresh@ 0000000180077820     dllmain.obj
 0002:00016838       ??_C@_0BH@GGNMGJAL@projectconfig_var_addr@ 0000000180077838     dllmain.obj
 0002:00016850       ??_C@_0BK@JKLEMHHF@projectconfig_var_getoffs@ 0000000180077850     dllmain.obj
 0002:00016870       ??_C@_0BA@OMHOKOHN@PromptForAction@ 0000000180077870     dllmain.obj
 0002:00016880       ??_C@_0BA@HOACECKO@realloc_cmd_ptr@ 0000000180077880     dllmain.obj
 0002:00016890       ??_C@_0BH@BNMGOKLD@ReaperGetPitchShiftAPI@ 0000000180077890     dllmain.obj
 0002:000168a8       ??_C@_0P@KCMDODBN@ReaScriptError@ 00000001800778a8     dllmain.obj
 0002:000168b8       ??_C@_0BJ@LBPPMBAH@RecursiveCreateDirectory@ 00000001800778b8     dllmain.obj
 0002:000168d8       ??_C@_0BC@OECLENHK@reduce_open_files@ 00000001800778d8     dllmain.obj
 0002:000168f0       ??_C@_0P@HHKNBGFC@RefreshToolbar@ 00000001800778f0     dllmain.obj
 0002:00016900       ??_C@_0BA@GIGCMJLP@RefreshToolbar2@ 0000000180077900     dllmain.obj
 0002:00016910       ??_C@_0M@HDMMADGK@relative_fn@ 0000000180077910     dllmain.obj
 0002:00016920       ??_C@_0BA@EPEBHCLE@RemoveTrackSend@ 0000000180077920     dllmain.obj
 0002:00016930       ??_C@_0BC@NKCEPLHF@RenderFileSection@ 0000000180077930     dllmain.obj
 0002:00016948       ??_C@_0BG@DPINFAJ@ReorderSelectedTracks@ 0000000180077948     dllmain.obj
 0002:00016960       ??_C@_0BD@IDJDIMGH@Resample_EnumModes@ 0000000180077960     dllmain.obj
 0002:00016978       ??_C@_0BB@BFCFOCCK@Resampler_Create@ 0000000180077978     dllmain.obj
 0002:00016990       ??_C@_0L@CBOIPJCN@resolve_fn@ 0000000180077990     dllmain.obj
 0002:000169a0       ??_C@_0M@KIIOOAPN@resolve_fn2@ 00000001800779a0     dllmain.obj
 0002:000169b0       ??_C@_0BK@GLPELFHH@ReverseNamedCommandLookup@ 00000001800779b0     dllmain.obj
 0002:000169d0       ??_C@_0BG@ILDFHGNC@ScaleFromEnvelopeMode@ 00000001800779d0     dllmain.obj
 0002:000169e8       ??_C@_0BE@OCJAFGBD@ScaleToEnvelopeMode@ 00000001800779e8     dllmain.obj
 0002:00016a00       ??_C@_0BD@KJOIAKCB@screenset_register@ 0000000180077a00     dllmain.obj
 0002:00016a18       ??_C@_0BG@DIBIGHEK@screenset_registerNew@ 0000000180077a18     dllmain.obj
 0002:00016a30       ??_C@_0BF@LJGOCPMJ@screenset_unregister@ 0000000180077a30     dllmain.obj
 0002:00016a48       ??_C@_0BM@LODHPAP@screenset_unregisterByParam@ 0000000180077a48     dllmain.obj
 0002:00016a68       ??_C@_0BK@PGCNPDDH@screenset_updateLastFocus@ 0000000180077a68     dllmain.obj
 0002:00016a88       ??_C@_0BE@LHMMJPAM@SectionFromUniqueID@ 0000000180077a88     dllmain.obj
 0002:00016aa0       ??_C@_0BE@PPNEDCKN@SelectAllMediaItems@ 0000000180077aa0     dllmain.obj
 0002:00016ab8       ??_C@_0BG@IJAIBPPE@SelectProjectInstance@ 0000000180077ab8     dllmain.obj
 0002:00016ad0       ??_C@_0BE@DKBFJAF@SendLocalOscMessage@ 0000000180077ad0     dllmain.obj
 0002:00016ae8       ??_C@_0O@MLMDNCBL@SetActiveTake@ 0000000180077ae8     dllmain.obj
 0002:00016af8       ??_C@_0BC@ELOLFFMP@SetAutomationMode@ 0000000180077af8     dllmain.obj
 0002:00016b10       ??_C@_0O@NBAADDBN@SetCurrentBPM@ 0000000180077b10     dllmain.obj
 0002:00016b20       ??_C@_0BB@NCKHJHJH@SetCursorContext@ 0000000180077b20     dllmain.obj
 0002:00016b38       ??_C@_0O@MHPNOLDJ@SetEditCurPos@ 0000000180077b38     dllmain.obj
 0002:00016b48       ??_C@_0P@LCLCCBJC@SetEditCurPos2@ 0000000180077b48     dllmain.obj
 0002:00016b58       ??_C@_0BB@FOFJEFGO@SetEnvelopePoint@ 0000000180077b58     dllmain.obj
 0002:00016b70       ??_C@_0BD@GMHPBBLK@SetEnvelopePointEx@ 0000000180077b70     dllmain.obj
 0002:00016b88       ??_C@_0BG@KEBEEAPP@SetEnvelopeStateChunk@ 0000000180077b88     dllmain.obj
 0002:00016ba0       ??_C@_0M@KMNJGFPP@SetExtState@ 0000000180077ba0     dllmain.obj
 0002:00016bb0       ??_C@_0BM@MHANGGBN@SetGlobalAutomationOverride@ 0000000180077bb0     dllmain.obj
 0002:00016bd0       ??_C@_0BC@JMGGGGPN@SetItemStateChunk@ 0000000180077bd0     dllmain.obj
 0002:00016be8       ??_C@_0BJ@GBNMCAD@SetMasterTrackVisibility@ 0000000180077be8     dllmain.obj
 0002:00016c08       ??_C@_0BH@ENHCHIDC@SetMediaItemInfo_Value@ 0000000180077c08     dllmain.obj
 0002:00016c20       ??_C@_0BD@JPALENGA@SetMediaItemLength@ 0000000180077c20     dllmain.obj
 0002:00016c38       ??_C@_0BF@IKOOFFAD@SetMediaItemPosition@ 0000000180077c38     dllmain.obj
 0002:00016c50       ??_C@_0BF@EDDMPANO@SetMediaItemSelected@ 0000000180077c50     dllmain.obj
 0002:00016c68       ??_C@_0BI@CNBHFKMP@SetMediaItemTake_Source@ 0000000180077c68     dllmain.obj
 0002:00016c80       ??_C@_0BL@PHPPGIJB@SetMediaItemTakeInfo_Value@ 0000000180077c80     dllmain.obj
 0002:00016ca0       ??_C@_0BI@NKJJOAHH@SetMediaTrackInfo_Value@ 0000000180077ca0     dllmain.obj
 0002:00016cb8       ??_C@_0BC@JCBLGJJO@SetMIDIEditorGrid@ 0000000180077cb8     dllmain.obj
 0002:00016cd0       ??_C@_0P@KJDOMAAH@SetMixerScroll@ 0000000180077cd0     dllmain.obj
 0002:00016ce0       ??_C@_0BB@KGNPILAK@SetMouseModifier@ 0000000180077ce0     dllmain.obj
 0002:00016cf8       ??_C@_0BF@HKMGNHPK@SetOnlyTrackSelected@ 0000000180077cf8     dllmain.obj
 0002:00016d10       ??_C@_0P@GJPLGFMO@SetProjectGrid@ 0000000180077d10     dllmain.obj
 0002:00016d20       ??_C@_0BB@FFNFINON@SetProjectMarker@ 0000000180077d20     dllmain.obj
 0002:00016d38       ??_C@_0BC@DDJOBPDJ@SetProjectMarker2@ 0000000180077d38     dllmain.obj
 0002:00016d50       ??_C@_0BC@CKIFCOHI@SetProjectMarker3@ 0000000180077d50     dllmain.obj
 0002:00016d68       ??_C@_0BC@GFMELILP@SetProjectMarker4@ 0000000180077d68     dllmain.obj
 0002:00016d80       ??_C@_0BI@HMDMJHOJ@SetProjectMarkerByIndex@ 0000000180077d80     dllmain.obj
 0002:00016d98       ??_C@_0BJ@DENKDCDK@SetProjectMarkerByIndex2@ 0000000180077d98     dllmain.obj
 0002:00016db8       ??_C@_0BA@JIKBKFM@SetProjExtState@ 0000000180077db8     dllmain.obj
 0002:00016dc8       ??_C@_0BG@NNLIGOAE@SetRegionRenderMatrix@ 0000000180077dc8     dllmain.obj
 0002:00016de0       ??_C@_0BD@NLMAGMLI@SetRenderLastError@ 0000000180077de0     dllmain.obj
 0002:00016df8       ??_C@_0O@CLJFNCKC@SetTakeMarker@ 0000000180077df8     dllmain.obj
 0002:00016e08       ??_C@_0BF@BNONLGKB@SetTakeStretchMarker@ 0000000180077e08     dllmain.obj
 0002:00016e20       ??_C@_0BK@NCOOHIHN@SetTakeStretchMarkerSlope@ 0000000180077e20     dllmain.obj
 0002:00016e40       ??_C@_0BG@PMIMBOFG@SetTempoTimeSigMarker@ 0000000180077e40     dllmain.obj
 0002:00016e58       ??_C@_0O@HCKBAENF@SetThemeColor@ 0000000180077e58     dllmain.obj
 0002:00016e68       ??_C@_0BG@GCGNGJN@SetToggleCommandState@ 0000000180077e68     dllmain.obj
 0002:00016e80       ??_C@_0BH@DBAAAGJH@SetTrackAutomationMode@ 0000000180077e80     dllmain.obj
 0002:00016e98       ??_C@_0O@FKHECNJH@SetTrackColor@ 0000000180077e98     dllmain.obj
 0002:00016ea8       ??_C@_0BD@GLBJDMCG@SetTrackMIDILyrics@ 0000000180077ea8     dllmain.obj
 0002:00016ec0       ??_C@_0BF@PHEFMCOB@SetTrackMIDINoteName@ 0000000180077ec0     dllmain.obj
 0002:00016ed8       ??_C@_0BH@KDLICKKB@SetTrackMIDINoteNameEx@ 0000000180077ed8     dllmain.obj
 0002:00016ef0       ??_C@_0BB@OFNFBCKL@SetTrackSelected@ 0000000180077ef0     dllmain.obj
 0002:00016f08       ??_C@_0BH@IMKBDAEB@SetTrackSendInfo_Value@ 0000000180077f08     dllmain.obj
 0002:00016f20       ??_C@_0BC@BEGBLHGN@SetTrackSendUIPan@ 0000000180077f20     dllmain.obj
 0002:00016f38       ??_C@_0BC@JKCKHDJ@SetTrackSendUIVol@ 0000000180077f38     dllmain.obj
 0002:00016f50       ??_C@_0BD@JJKCGPKJ@SetTrackStateChunk@ 0000000180077f50     dllmain.obj
 0002:00016f68       ??_C@_0P@LHCJOBFF@ShowActionList@ 0000000180077f68     dllmain.obj
 0002:00016f78       ??_C@_0P@OOEKMIJD@ShowConsoleMsg@ 0000000180077f78     dllmain.obj
 0002:00016f88       ??_C@_0P@EMGMBJDI@ShowMessageBox@ 0000000180077f88     dllmain.obj
 0002:00016f98       ??_C@_0O@DDHHIOPE@ShowPopupMenu@ 0000000180077f98     dllmain.obj
 0002:00016fa8       ??_C@_09CNOONLI@SLIDER2DB@ 0000000180077fa8     dllmain.obj
 0002:00016fb8       ??_C@_0L@BOAIAHOL@SnapToGrid@ 0000000180077fb8     dllmain.obj
 0002:00016fc8       ??_C@_0O@KCJDOGDC@SoloAllTracks@ 0000000180077fc8     dllmain.obj
 0002:00016fd8       ??_C@_0O@MFNOGMEF@Splash_GetWnd@ 0000000180077fd8     dllmain.obj
 0002:00016fe8       ??_C@_0P@OJIIPHPK@SplitMediaItem@ 0000000180077fe8     dllmain.obj
 0002:00016ff8       ??_C@_0M@DJENOLAE@StopPreview@ 0000000180077ff8     dllmain.obj
 0002:00017008       ??_C@_0BB@MENLCPKF@StopTrackPreview@ 0000000180078008     dllmain.obj
 0002:00017020       ??_C@_0BC@ELAINIDJ@StopTrackPreview2@ 0000000180078020     dllmain.obj
 0002:00017038       ??_C@_0N@MLFHNOHA@stringToGuid@ 0000000180078038     dllmain.obj
 0002:00017048       ??_C@_0BB@KDOLPDDH@StuffMIDIMessage@ 0000000180078048     dllmain.obj
 0002:00017060       ??_C@_0BB@CHPIBLNM@TakeFX_AddByName@ 0000000180078060     dllmain.obj
 0002:00017078       ??_C@_0BC@FFNMMMON@TakeFX_CopyToTake@ 0000000180078078     dllmain.obj
 0002:00017090       ??_C@_0BD@BEJHIBOB@TakeFX_CopyToTrack@ 0000000180078090     dllmain.obj
 0002:000170a8       ??_C@_0O@JONIELGK@TakeFX_Delete@ 00000001800780a8     dllmain.obj
 0002:000170b8       ??_C@_0BE@CLLMALLD@TakeFX_EndParamEdit@ 00000001800780b8     dllmain.obj
 0002:000170d0       ??_C@_0BI@FPHEHCNK@TakeFX_FormatParamValue@ 00000001800780d0     dllmain.obj
 0002:000170e8       ??_C@_0CC@NHFCLLBG@TakeFX_FormatParamValueNormaliz@ 00000001800780e8     dllmain.obj
 0002:00017110       ??_C@_0BH@DBEBEAGJ@TakeFX_GetChainVisible@ 0000000180078110     dllmain.obj
 0002:00017128       ??_C@_0BA@IMGGCGHO@TakeFX_GetCount@ 0000000180078128     dllmain.obj
 0002:00017138       ??_C@_0BC@IEDOCKEE@TakeFX_GetEnabled@ 0000000180078138     dllmain.obj
 0002:00017150       ??_C@_0BD@KCFBFNHB@TakeFX_GetEnvelope@ 0000000180078150     dllmain.obj
 0002:00017168       ??_C@_0BJ@COABIFOG@TakeFX_GetFloatingWindow@ 0000000180078168     dllmain.obj
 0002:00017188       ??_C@_0BO@OBPLNPEN@TakeFX_GetFormattedParamValue@ 0000000180078188     dllmain.obj
 0002:000171a8       ??_C@_0BB@LIBLEKCL@TakeFX_GetFXGUID@ 00000001800781a8     dllmain.obj
 0002:000171c0       ??_C@_0BB@HJJJLMHD@TakeFX_GetFXName@ 00000001800781c0     dllmain.obj
 0002:000171d8       ??_C@_0BB@NFKPDAJA@TakeFX_GetIOSize@ 00000001800781d8     dllmain.obj
 0002:000171f0       ??_C@_0BK@MAEJFOCF@TakeFX_GetNamedConfigParm@ 00000001800781f0     dllmain.obj
 0002:00017210       ??_C@_0BE@OMBFJLLO@TakeFX_GetNumParams@ 0000000180078210     dllmain.obj
 0002:00017228       ??_C@_0BC@KGLENIKA@TakeFX_GetOffline@ 0000000180078228     dllmain.obj
 0002:00017240       ??_C@_0P@DDJODBMD@TakeFX_GetOpen@ 0000000180078240     dllmain.obj
 0002:00017250       ??_C@_0BA@LLJPDOLG@TakeFX_GetParam@ 0000000180078250     dllmain.obj
 0002:00017260       ??_C@_0BN@HJCAFNNK@TakeFX_GetParameterStepSizes@ 0000000180078260     dllmain.obj
 0002:00017280       ??_C@_0BC@OCEJBDNP@TakeFX_GetParamEx@ 0000000180078280     dllmain.obj
 0002:00017298       ??_C@_0BE@IAFKJENC@TakeFX_GetParamName@ 0000000180078298     dllmain.obj
 0002:000172b0       ??_C@_0BK@NHKBEMI@TakeFX_GetParamNormalized@ 00000001800782b0     dllmain.obj
 0002:000172d0       ??_C@_0BG@KLIKENCB@TakeFX_GetPinMappings@ 00000001800782d0     dllmain.obj
 0002:000172e8       ??_C@_0BB@MKGLMAHO@TakeFX_GetPreset@ 00000001800782e8     dllmain.obj
 0002:00017300       ??_C@_0BG@FGNDKDEE@TakeFX_GetPresetIndex@ 0000000180078300     dllmain.obj
 0002:00017318       ??_C@_0BN@FFJDEIC@TakeFX_GetUserPresetFilename@ 0000000180078318     dllmain.obj
 0002:00017338       ??_C@_0BH@ODILBJOO@TakeFX_NavigatePresets@ 0000000180078338     dllmain.obj
 0002:00017350       ??_C@_0BC@JKBBJNAN@TakeFX_SetEnabled@ 0000000180078350     dllmain.obj
 0002:00017368       ??_C@_0BK@DKGDGIMN@TakeFX_SetNamedConfigParm@ 0000000180078368     dllmain.obj
 0002:00017388       ??_C@_0BC@LIJLGPOJ@TakeFX_SetOffline@ 0000000180078388     dllmain.obj
 0002:000173a0       ??_C@_0P@MLGPAOBC@TakeFX_SetOpen@ 00000001800783a0     dllmain.obj
 0002:000173b0       ??_C@_0BA@EKLDCNML@TakeFX_SetParam@ 00000001800783b0     dllmain.obj
 0002:000173c0       ??_C@_0BK@PHFACCCA@TakeFX_SetParamNormalized@ 00000001800783c0     dllmain.obj
 0002:000173e0       ??_C@_0BG@GFJELHAN@TakeFX_SetPinMappings@ 00000001800783e0     dllmain.obj
 0002:000173f8       ??_C@_0BB@OECOOBOM@TakeFX_SetPreset@ 00000001800783f8     dllmain.obj
 0002:00017410       ??_C@_0BI@DPFHBLMP@TakeFX_SetPresetByIndex@ 0000000180078410     dllmain.obj
 0002:00017428       ??_C@_0M@LFDKPFDE@TakeFX_Show@ 0000000180078428     dllmain.obj
 0002:00017438       ??_C@_0L@GIHFCLIH@TakeIsMIDI@ 0000000180078438     dllmain.obj
 0002:00017448       ??_C@_0BG@GHKJBKCJ@ThemeLayout_GetLayout@ 0000000180078448     dllmain.obj
 0002:00017460       ??_C@_0BJ@BNDBIBEC@ThemeLayout_GetParameter@ 0000000180078460     dllmain.obj
 0002:00017480       ??_C@_0BH@MMMFBALH@ThemeLayout_RefreshAll@ 0000000180078480     dllmain.obj
 0002:00017498       ??_C@_0BG@EJOMDLLL@ThemeLayout_SetLayout@ 0000000180078498     dllmain.obj
 0002:000174b0       ??_C@_0BJ@GJIPENAO@ThemeLayout_SetParameter@ 00000001800784b0     dllmain.obj
 0002:000174d0       ??_C@_0N@GHEHFBNO@time_precise@ 00000001800784d0     dllmain.obj
 0002:000174e0       ??_C@_0BF@IILJHILP@TimeMap2_beatsToTime@ 00000001800784e0     dllmain.obj
 0002:000174f8       ??_C@_0BN@KKMPGCPK@TimeMap2_GetDividedBpmAtTime@ 00000001800784f8     dllmain.obj
 0002:00017518       ??_C@_0BL@PPHHMEJN@TimeMap2_GetNextChangeTime@ 0000000180078518     dllmain.obj
 0002:00017538       ??_C@_0BC@MJMIOFOG@TimeMap2_QNToTime@ 0000000180078538     dllmain.obj
 0002:00017550       ??_C@_0BF@HEHOAMCG@TimeMap2_timeToBeats@ 0000000180078550     dllmain.obj
 0002:00017568       ??_C@_0BC@BABHDEOD@TimeMap2_timeToQN@ 0000000180078568     dllmain.obj
 0002:00017580       ??_C@_0BF@PEHGNHAA@TimeMap_curFrameRate@ 0000000180078580     dllmain.obj
 0002:00017598       ??_C@_0BM@DCFONDBB@TimeMap_GetDividedBpmAtTime@ 0000000180078598     dllmain.obj
 0002:000175b8       ??_C@_0BH@EGBMJGIF@TimeMap_GetMeasureInfo@ 00000001800785b8     dllmain.obj
 0002:000175d0       ??_C@_0BM@DGFBCDJE@TimeMap_GetMetronomePattern@ 00000001800785d0     dllmain.obj
 0002:000175f0       ??_C@_0BJ@FHNBJBMK@TimeMap_GetTimeSigAtTime@ 00000001800785f0     dllmain.obj
 0002:00017610       ??_C@_0BF@HMFFINBO@TimeMap_QNToMeasures@ 0000000180078610     dllmain.obj
 0002:00017628       ??_C@_0BB@GCODNKA@TimeMap_QNToTime@ 0000000180078628     dllmain.obj
 0002:00017640       ??_C@_0BF@PFCEDONI@TimeMap_QNToTime_abs@ 0000000180078640     dllmain.obj
 0002:00017658       ??_C@_0BB@NPPBOMKF@TimeMap_timeToQN@ 0000000180078658     dllmain.obj
 0002:00017670       ??_C@_0BF@LHBOCCEN@TimeMap_timeToQN_abs@ 0000000180078670     dllmain.obj
 0002:00017688       ??_C@_0BG@GFDIGPEC@ToggleTrackSendUIMute@ 0000000180078688     dllmain.obj
 0002:000176a0       ??_C@_0BE@LMPPBBIO@Track_GetPeakHoldDB@ 00000001800786a0     dllmain.obj
 0002:000176b8       ??_C@_0BC@IBMLJMAA@Track_GetPeakInfo@ 00000001800786b8     dllmain.obj
 0002:000176d0       ??_C@_0BE@IAGFGNML@TrackCtl_SetToolTip@ 00000001800786d0     dllmain.obj
 0002:000176e8       ??_C@_0BC@JLAPMCKH@TrackFX_AddByName@ 00000001800786e8     dllmain.obj
 0002:00017700       ??_C@_0BD@JCLHJDIA@TrackFX_CopyToTake@ 0000000180078700     dllmain.obj
 0002:00017718       ??_C@_0BE@CHFDPHFL@TrackFX_CopyToTrack@ 0000000180078718     dllmain.obj
 0002:00017730       ??_C@_0P@PNIJNOIN@TrackFX_Delete@ 0000000180078730     dllmain.obj
 0002:00017740       ??_C@_0BF@DLJFFH@TrackFX_EndParamEdit@ 0000000180078740     dllmain.obj
 0002:00017758       ??_C@_0BJ@CJJKMGID@TrackFX_FormatParamValue@ 0000000180078758     dllmain.obj
 0002:00017778       ??_C@_0CD@JODJFFEH@TrackFX_FormatParamValueNormali@ 0000000180078778     dllmain.obj
 0002:000177a0       ??_C@_0BC@PNNBJHII@TrackFX_GetByName@ 00000001800787a0     dllmain.obj
 0002:000177b8       ??_C@_0BI@DLEIJCJ@TrackFX_GetChainVisible@ 00000001800787b8     dllmain.obj
 0002:000177d0       ??_C@_0BB@BNDMEHMP@TrackFX_GetCount@ 00000001800787d0     dllmain.obj
 0002:000177e8       ??_C@_0BD@EDFFHFCJ@TrackFX_GetEnabled@ 00000001800787e8     dllmain.obj
 0002:00017800       ??_C@_0O@BFHIPJBE@TrackFX_GetEQ@ 0000000180078800     dllmain.obj
 0002:00017810       ??_C@_0BJ@KKCGCGFE@TrackFX_GetEQBandEnabled@ 0000000180078810     dllmain.obj
 0002:00017830       ??_C@_0BD@PDPFDNHD@TrackFX_GetEQParam@ 0000000180078830     dllmain.obj
 0002:00017848       ??_C@_0BK@DMMAICAC@TrackFX_GetFloatingWindow@ 0000000180078848     dllmain.obj
 0002:00017868       ??_C@_0BP@EJOBAKEP@TrackFX_GetFormattedParamValue@ 0000000180078868     dllmain.obj
 0002:00017888       ??_C@_0BC@EOMJDFA@TrackFX_GetFXGUID@ 0000000180078888     dllmain.obj
 0002:000178a0       ??_C@_0BC@MFGOGFAI@TrackFX_GetFXName@ 00000001800788a0     dllmain.obj
 0002:000178b8       ??_C@_0BG@HAOIEPOI@TrackFX_GetInstrument@ 00000001800788b8     dllmain.obj
 0002:000178d0       ??_C@_0BC@GJFIOJOL@TrackFX_GetIOSize@ 00000001800788d0     dllmain.obj
 0002:000178e8       ??_C@_0BL@GHDMLJED@TrackFX_GetNamedConfigParm@ 00000001800788e8     dllmain.obj
 0002:00017908       ??_C@_0BF@MHJCAFFK@TrackFX_GetNumParams@ 0000000180078908     dllmain.obj
 0002:00017920       ??_C@_0BD@GBNPIHMN@TrackFX_GetOffline@ 0000000180078920     dllmain.obj
 0002:00017938       ??_C@_0BA@NJDBHIN@TrackFX_GetOpen@ 0000000180078938     dllmain.obj
 0002:00017948       ??_C@_0BB@CKMFFPAH@TrackFX_GetParam@ 0000000180078948     dllmain.obj
 0002:00017960       ??_C@_0BO@ECKAKHH@TrackFX_GetParameterStepSizes@ 0000000180078960     dllmain.obj
 0002:00017980       ??_C@_0BD@CFCCEMLC@TrackFX_GetParamEx@ 0000000180078980     dllmain.obj
 0002:00017998       ??_C@_0BF@KLNNAKDG@TrackFX_GetParamName@ 0000000180078998     dllmain.obj
 0002:000179b0       ??_C@_0BL@KKAPPDKO@TrackFX_GetParamNormalized@ 00000001800789b0     dllmain.obj
 0002:000179d0       ??_C@_0BH@IGCPOOAN@TrackFX_GetPinMappings@ 00000001800789d0     dllmain.obj
 0002:000179e8       ??_C@_0BC@HGJMBJAF@TrackFX_GetPreset@ 00000001800789e8     dllmain.obj
 0002:00017a00       ??_C@_0BH@HLHGAAGI@TrackFX_GetPresetIndex@ 0000000180078a00     dllmain.obj
 0002:00017a18       ??_C@_0BL@NPMOJJJF@TrackFX_GetRecChainVisible@ 0000000180078a18     dllmain.obj
 0002:00017a38       ??_C@_0BE@NNCICNCG@TrackFX_GetRecCount@ 0000000180078a38     dllmain.obj
 0002:00017a50       ??_C@_0BO@HIFDGDCP@TrackFX_GetUserPresetFilename@ 0000000180078a50     dllmain.obj
 0002:00017a70       ??_C@_0BI@NBHONAKO@TrackFX_NavigatePresets@ 0000000180078a70     dllmain.obj
 0002:00017a88       ??_C@_0BD@FNHKMCGA@TrackFX_SetEnabled@ 0000000180078a88     dllmain.obj
 0002:00017aa0       ??_C@_0BJ@MOHPJIOG@TrackFX_SetEQBandEnabled@ 0000000180078aa0     dllmain.obj
 0002:00017ac0       ??_C@_0BD@ONNKIKDK@TrackFX_SetEQParam@ 0000000180078ac0     dllmain.obj
 0002:00017ad8       ??_C@_0BL@JNBGIPKL@TrackFX_SetNamedConfigParm@ 0000000180078ad8     dllmain.obj
 0002:00017af8       ??_C@_0BD@HPPADAIE@TrackFX_SetOffline@ 0000000180078af8     dllmain.obj
 0002:00017b10       ??_C@_0BA@PFGCCIFM@TrackFX_SetOpen@ 0000000180078b10     dllmain.obj
 0002:00017b20       ??_C@_0BB@NLOJEMHK@TrackFX_SetParam@ 0000000180078b20     dllmain.obj
 0002:00017b38       ??_C@_0BL@FACFMFEG@TrackFX_SetParamNormalized@ 0000000180078b38     dllmain.obj
 0002:00017b58       ??_C@_0BH@EIDBBECB@TrackFX_SetPinMappings@ 0000000180078b58     dllmain.obj
 0002:00017b70       ??_C@_0BC@FINJDIJH@TrackFX_SetPreset@ 0000000180078b70     dllmain.obj
 0002:00017b88       ??_C@_0BJ@EJLJKPJG@TrackFX_SetPresetByIndex@ 0000000180078b88     dllmain.obj
 0002:00017ba8       ??_C@_0N@CELBMNEA@TrackFX_Show@ 0000000180078ba8     dllmain.obj
 0002:00017bb8       ??_C@_0BI@EFCINEHE@TrackList_AdjustWindows@ 0000000180078bb8     dllmain.obj
 0002:00017bd0       ??_C@_0CE@EPANKBOF@TrackList_UpdateAllExternalSurf@ 0000000180078bd0     dllmain.obj
 0002:00017bf8       ??_C@_0BA@NIFOCIFO@Undo_BeginBlock@ 0000000180078bf8     dllmain.obj
 0002:00017c08       ??_C@_0BB@GBHLHGKK@Undo_BeginBlock2@ 0000000180078c08     dllmain.obj
 0002:00017c20       ??_C@_0O@PDGCFMMM@Undo_CanRedo2@ 0000000180078c20     dllmain.obj
 0002:00017c30       ??_C@_0O@JJLHFNGF@Undo_CanUndo2@ 0000000180078c30     dllmain.obj
 0002:00017c40       ??_C@_0N@JCEFKPAL@Undo_DoRedo2@ 0000000180078c40     dllmain.obj
 0002:00017c50       ??_C@_0N@PIJAKOKC@Undo_DoUndo2@ 0000000180078c50     dllmain.obj
 0002:00017c60       ??_C@_0O@EGIMJADG@Undo_EndBlock@ 0000000180078c60     dllmain.obj
 0002:00017c70       ??_C@_0P@CCIMENHI@Undo_EndBlock2@ 0000000180078c70     dllmain.obj
 0002:00017c80       ??_C@_0BD@IADMBKHH@Undo_OnStateChange@ 0000000180078c80     dllmain.obj
 0002:00017c98       ??_C@_0BE@CDJBIMPE@Undo_OnStateChange2@ 0000000180078c98     dllmain.obj
 0002:00017cb0       ??_C@_0BI@LAINKEGL@Undo_OnStateChange_Item@ 0000000180078cb0     dllmain.obj
 0002:00017cc8       ??_C@_0BF@MKLCKKC@Undo_OnStateChangeEx@ 0000000180078cc8     dllmain.obj
 0002:00017ce0       ??_C@_0BG@NFKEDNJP@Undo_OnStateChangeEx2@ 0000000180078ce0     dllmain.obj
 0002:00017cf8       ??_C@_0BF@BHHAONJN@update_disk_counters@ 0000000180078cf8     dllmain.obj
 0002:00017d10       ??_C@_0O@JGNDJDPL@UpdateArrange@ 0000000180078d10     dllmain.obj
 0002:00017d20       ??_C@_0BE@FFEIBPEA@UpdateItemInProject@ 0000000180078d20     dllmain.obj
 0002:00017d38       ??_C@_0P@GJLICICF@UpdateTimeline@ 0000000180078d38     dllmain.obj
 0002:00017d48       ??_C@_0M@MANANGCF@ValidatePtr@ 0000000180078d48     dllmain.obj
 0002:00017d58       ??_C@_0N@KGLEFAOA@ValidatePtr2@ 0000000180078d58     dllmain.obj
 0002:00017d68       ??_C@_09CCFHDHMN@ViewPrefs@ 0000000180078d68     dllmain.obj
 0002:00017d78       ??_C@_0BM@HEEDKKGI@WDL_VirtualWnd_ScaledBlitBG@ 0000000180078d78     dllmain.obj
 0002:00017d98       ??_C@_0CN@ILMLCELO@DrivenByMoss?3?5Open?5the?5configur@ 0000000180078d98     dllmain.obj
 0002:00017dc8       ??_C@_0DA@PDADNNHB@DrivenByMoss?3?5Open?5the?5project?5@ 0000000180078dc8     dllmain.obj
 0002:00017df8       ??_C@_0CK@FGIFJMDL@Filled?5when?5the?5dialog?5is?5opene@ 0000000180078df8     dllmain.obj
 0002:00017e28       ??_C@_0BE@OCNCKLEO@DrivenByMoss4Reaper@ 0000000180078e28     dllmain.obj
 0002:00017e40       ??_C@_0BA@BMBAMCCC@?$DMDRIVEN_BY_MOSS@ 0000000180078e40     dllmain.obj
 0002:00017e50       ??_C@_02DKCKIIND@?$CFs@    0000000180078e50     dllmain.obj
 0002:00017e54       ??_C@_01PPODPGHN@?$DO@     0000000180078e54     dllmain.obj
 0002:00017e58       ??_C@_05EGBMJJAG@csurf@    0000000180078e58     dllmain.obj
 0002:00017e60       ??_C@_0DO@NHEJLHAN@Could?5not?5instantiate?5DrivenByM@ 0000000180078e60     dllmain.obj
 0002:00017ea0       ??_C@_0O@JKANKLID@projectconfig@ 0000000180078ea0     dllmain.obj
 0002:00017eb0       ??_C@_0BH@BJGAHMFH@DBM_OPEN_WINDOW_ACTION@ 0000000180078eb0     dllmain.obj
 0002:00017ec8       ??_C@_0L@DNBEILEA@command_id@ 0000000180078ec8     dllmain.obj
 0002:00017ee0       ??_C@_0EJ@GBFGODNN@Could?5not?5register?5ID?5for?5Drive@ 0000000180078ee0     dllmain.obj
 0002:00017f2c       ??_C@_06JPHPPGAF@gaccel@   0000000180078f2c     dllmain.obj
 0002:00017f38       ??_C@_0DE@KEBKOFFD@Could?5not?5register?5DrivenByMoss@ 0000000180078f38     dllmain.obj
 0002:00017f70       ??_C@_0BP@OOIKIKEM@DBM_OPEN_PROJECT_WINDOW_ACTION@ 0000000180078f70     dllmain.obj
 0002:00017f90       ??_C@_0ED@IFGCKIHO@Could?5not?5register?5ID?5for?5Drive@ 0000000180078f90     dllmain.obj
 0002:00017fd8       ??_C@_0DF@GMDLPKKG@Could?5not?5register?5DrivenByMoss@ 0000000180078fd8     dllmain.obj
 0002:00018010       ??_C@_0M@KBJCONNP@hookcommand@ 0000000180079010     dllmain.obj
 0002:00018020       ??_C@_0DB@IBNHDLIJ@Could?5not?5register?5DrivenByMoss@ 0000000180079020     dllmain.obj
 0002:00018058       ??_C@_0DE@NAOJCIPE@DrivenByMoss4Reaper?5?9?5Supports?5@ 0000000180079058     DrivenByMossSurface.obj
 0002:0001808c       ??_C@_05LBJMNBOG@empty@    000000018007908c     DrivenByMossSurface.obj
 0002:00018098       ??_C@_0BK@EHEKHIIM@Could?5not?5update?5device?3?5@ 0000000180079098     DrivenByMossSurface.obj
 0002:000180b8       ??_C@_0BJ@ONHHAEHD@Could?5not?5update?5device?4@ 00000001800790b8     DrivenByMossSurface.obj
 0002:000180d8       ??_C@_0P@EHLONKHB@IP_TRACKNUMBER@ 00000001800790d8     DrivenByMossSurface.obj
 0002:000180f0       ??_7IReaperControlSurface@@6B@ 00000001800790f0     DrivenByMossSurface.obj
 0002:000181a8       ??_7StopProcessor@@6B@     00000001800791a8     DrivenByMossSurface.obj
 0002:000181e8       ??_7DrivenByMossSurface@@6B@ 00000001800791e8     DrivenByMossSurface.obj
 0002:000182a0       ??_7OscParser@@6B@         00000001800792a0     DrivenByMossSurface.obj
 0002:000182d8       ??_7PlayProcessor@@6B@     00000001800792d8     DrivenByMossSurface.obj
 0002:00018310       ??_C@_06MDLIGPKC@active@   0000000180079310     GrooveProcessor.obj
 0002:00018318       ??_C@_06LFKBJBLO@amount@   0000000180079318     GrooveProcessor.obj
 0002:00018328       ??_7GrooveProcessor@@6B@   0000000180079328     GrooveProcessor.obj
 0002:00018368       ??_7IniFileProcessor@@6B@  0000000180079368     IniFileProcessor.obj
 0002:000183a0       ??_C@_0CP@KCPIDLPG@ERROR?3?5Could?5not?5store?5paramete@ 00000001800793a0     IniFileProcessor.obj
 0002:000183d0       ??_C@_01KICIPPFI@?2@       00000001800793d0     IniFileProcessor.obj
 0002:000183d8       ??_C@_0L@MJCKOOJK@REAPER?4ini@ 00000001800793d8     IniFileProcessor.obj
 0002:000183f0       ??_C@_0ED@FFCIGCNK@?9agentlib?3jdwp?$DNtransport?$DNdt_soc@ 00000001800793f0     JvmManager.obj
 0002:00018434       ??_C@_03GAEACAIP@?$CI?$CJV@ 0000000180079434     JvmManager.obj
 0002:00018438       ??_C@_08FIACBBDA@shutdown@ 0000000180079438     JvmManager.obj
 0002:00018448       ??_C@_0BJ@FAKLGBJH@Could?5not?5call?5shutdown?4@ 0000000180079448     JvmManager.obj
 0002:00018468       ??_C@_0N@FMPOIJDE@java?9runtime@ 0000000180079468     JvmManager.obj
 0002:00018478       ??_C@_0BB@IDHJDMHA@JNI_CreateJavaVM@ 0000000180079478     JvmManager.obj
 0002:00018490       ??_C@_0DP@IOAEGLJN@ERROR?3?5Could?5not?5lookup?5CreateJ@ 0000000180079490     JvmManager.obj
 0002:000184d0       ??_C@_0DC@GKECNGJC@ERROR?3?5Could?5not?5start?5Java?5Vir@ 00000001800794d0     JvmManager.obj
 0002:00018508       ??_C@_0CF@FGAOHDAP@Could?5not?5find?5Java?5dynamic?5lib@ 0000000180079508     JvmManager.obj
 0002:00018530       ??_C@_0O@HKABLOMK@?5Error?5Code?3?5@ 0000000180079530     JvmManager.obj
 0002:00018540       ??_C@_0CG@CBDFCFGD@Could?5not?5load?5Java?5dynamic?5lib@ 0000000180079540     JvmManager.obj
 0002:00018568       ??_C@_0BE@NKHIGJCB@?2bin?2server?2jvm?4dll@ 0000000180079568     JvmManager.obj
 0002:00018580       ??_C@_0CD@EPLMGNG@Java?5dynamic?5library?5not?5found?5@ 0000000180079580     JvmManager.obj
 0002:000185a8       ??_C@_0N@OCAIGKLH@processNoArg@ 00000001800795a8     JvmManager.obj
 0002:000185b8       ??_C@_0CI@HEGLGDKJ@?$CILjava?1lang?1String?$DLLjava?1lang?1S@ 00000001800795b8     JvmManager.obj
 0002:000185e0       ??_C@_0BB@IDBKPPEE@processStringArg@ 00000001800795e0     JvmManager.obj
 0002:000185f8       ??_C@_0DK@FECPGPEK@?$CILjava?1lang?1String?$DLLjava?1lang?1S@ 00000001800795f8     JvmManager.obj
 0002:00018638       ??_C@_0BC@HFCALFED@processStringArgs@ 0000000180079638     JvmManager.obj
 0002:00018650       ??_C@_0DL@MCNEPHIA@?$CILjava?1lang?1String?$DLLjava?1lang?1S@ 0000000180079650     JvmManager.obj
 0002:00018690       ??_C@_0O@OABCDPCM@processIntArg@ 0000000180079690     JvmManager.obj
 0002:000186a0       ??_C@_0CJ@CHBEFCJD@?$CILjava?1lang?1String?$DLLjava?1lang?1S@ 00000001800796a0     JvmManager.obj
 0002:000186d0       ??_C@_0BB@FHDHBGPB@processDoubleArg@ 00000001800796d0     JvmManager.obj
 0002:000186e8       ??_C@_0CJ@NFHOIKEO@?$CILjava?1lang?1String?$DLLjava?1lang?1S@ 00000001800796e8     JvmManager.obj
 0002:00018718       ??_C@_0O@NMIFLEBE@enableUpdates@ 0000000180079718     JvmManager.obj
 0002:00018728       ??_C@_0BH@BOPHNJNA@?$CILjava?1lang?1String?$DLZ?$CJV@ 0000000180079728     JvmManager.obj
 0002:00018740       ??_C@_0N@NOBBCGJP@delayUpdates@ 0000000180079740     JvmManager.obj
 0002:00018750       ??_C@_0BG@IKDDPPGD@?$CILjava?1lang?1String?$DL?$CJV@ 0000000180079750     JvmManager.obj
 0002:00018768       ??_C@_0P@FDHNODEC@processMidiArg@ 0000000180079768     JvmManager.obj
 0002:00018778       ??_C@_06NOBEKGOM@?$CIIII?$CJV@ 0000000180079778     JvmManager.obj
 0002:00018780       ??_C@_0BO@FLIEBOGA@de?1mossgrabers?1reaper?1MainApp@ 0000000180079780     JvmManager.obj
 0002:000187a0       ??_C@_0CI@CFKOIPIC@MainFrame?4class?5could?5not?5be?5re@ 00000001800797a0     JvmManager.obj
 0002:000187c8       ??_C@_0CL@PCNKPFEB@ERROR?3?5Could?5not?5register?5nativ@ 00000001800797c8     JvmManager.obj
 0002:000187f8       ??_C@_07HJMHMJAL@startup@  00000001800797f8     JvmManager.obj
 0002:00018800       ??_C@_0BP@PAIGBBBL@ERROR?3?5Could?5not?5call?5startup?4@ 0000000180079800     JvmManager.obj
 0002:00018820       ??_C@_0O@NEEDOPBG@displayWindow@ 0000000180079820     JvmManager.obj
 0002:00018830       ??_C@_0CF@CDHOJJPA@ERROR?3?5Could?5not?5call?5displayWi@ 0000000180079830     JvmManager.obj
 0002:00018858       ??_C@_0BF@BMIHIHAF@displayProjectWindow@ 0000000180079858     JvmManager.obj
 0002:00018870       ??_C@_0CM@CBLFEPDA@ERROR?3?5Could?5not?5call?5displayPr@ 0000000180079870     JvmManager.obj
 0002:000188a0       ??_C@_0M@DPNFOEFI@updateModel@ 00000001800798a0     JvmManager.obj
 0002:000188b0       ??_C@_0CD@PDOGHKH@ERROR?3?5Could?5not?5call?5updateMod@ 00000001800798b0     JvmManager.obj
 0002:000188d8       ??_C@_0BL@HHJBJIMF@setDefaultDocumentSettings@ 00000001800798d8     JvmManager.obj
 0002:000188f8       ??_C@_0DC@IJPMALMH@ERROR?3?5Could?5not?5call?5setDefaul@ 00000001800798f8     JvmManager.obj
 0002:00018930       ??_C@_0BF@FOHFOJOB@?$CI?$CJLjava?1lang?1String?$DL@ 0000000180079930     JvmManager.obj
 0002:00018948       ??_C@_0BN@IBCMBBIG@getFormattedDocumentSettings@ 0000000180079948     JvmManager.obj
 0002:00018968       ??_C@_0DE@PFCNDNME@ERROR?3?5Could?5not?5call?5getFormat@ 0000000180079968     JvmManager.obj
 0002:000189a0       ??_C@_0BN@FAIKPOFC@setFormattedDocumentSettings@ 00000001800799a0     JvmManager.obj
 0002:000189c0       ??_C@_0DE@HEECINOG@ERROR?3?5Could?5not?5call?5setFormat@ 00000001800799c0     JvmManager.obj
 0002:000189f8       ??_C@_0CO@BNCGPLKM@ERROR?3?5Could?5not?5change?5current@ 00000001800799f8     JvmManager.obj
 0002:00018a28       ??_C@_0BC@PPNMJDK@drivenbymoss?9libs@ 0000000180079a28     JvmManager.obj
 0002:00018a3c       ??_C@_04EHKLDEID@?4jar@    0000000180079a3c     JvmManager.obj
 0002:00018a44       ??_C@_01KMDKNFGN@?1@       0000000180079a44     JvmManager.obj
 0002:00018a48       ??_C@_0CF@EGHKGIFI@No?5JAR?5files?5found?5in?5library?5p@ 0000000180079a48     JvmManager.obj
 0002:00018a70       ??_C@_0BD@HCEIMOC@?9Djava?4class?4path?$DN@ 0000000180079a70     JvmManager.obj
 0002:00018a88       ??_C@_0CB@HNKEGBEC@Could?5not?5retrieve?5library?5path@ 0000000180079a88     JvmManager.obj
 0002:00018ab0       ??_C@_0BI@LBIFOBMO@reaper_drivenbymoss?4dll@ 0000000180079ab0     JvmManager.obj
 0002:00018ac8       ??_C@_02KHDDNBB@?2?$CK@    0000000180079ac8     JvmManager.obj
 0002:00018ad0       ??_C@_0CA@PJMFMMOK@Error?5looking?5up?5JAR?5files?5in?3?5@ 0000000180079ad0     JvmManager.obj
 0002:00018af0       ??_C@_08JCDFGHAO@toString@ 0000000180079af0     JvmManager.obj
 0002:00018b00       ??_C@_0BB@DDFKOHA@java?1lang?1Object@ 0000000180079b00     JvmManager.obj
 0002:00018b18       ??_C@_0CB@FPBIMHAE@de?1mossgrabers?1reaper?1Controlle@ 0000000180079b18     JvmManager.obj
 0002:00018b40       ??_C@_0CJ@FMMJNCBG@Controller?4class?5could?5not?5be?5r@ 0000000180079b40     JvmManager.obj
 0002:00018b6c       ??_C@_06OGCODMJI@exists@   0000000180079b6c     Marker.obj
 0002:00018b74       ??_C@_06EBGNBFIA@number@   0000000180079b74     Marker.obj
 0002:00018b7c       ??_C@_04MEMAJGDJ@name@     0000000180079b7c     Marker.obj
 0002:00018b90       ??_7Marker@@6B@            0000000180079b90     Marker.obj
 0002:00018ba0       ??_7MarkerProcessor@@6B@   0000000180079ba0     MarkerProcessor.obj
 0002:00018bd8       ??_C@_07GDIFMFMA@Marker?5@ 0000000180079bd8     MarkerProcessor.obj
 0002:00018be0       ??_C@_06OAFDKBLG@launch@   0000000180079be0     MarkerProcessor.obj
 0002:00018be8       ??_C@_04EHECDAIE@solo@     0000000180079be8     MastertrackProcessor.obj
 0002:00018bf0       ??_C@_06PMHNHABH@I_SOLO@   0000000180079bf0     MastertrackProcessor.obj
 0002:00018bf8       ??_C@_04EPOMLENO@mute@     0000000180079bf8     MastertrackProcessor.obj
 0002:00018c00       ??_C@_08NOKGDKI@autotrim@  0000000180079c00     MastertrackProcessor.obj
 0002:00018c10       ??_C@_08JALFBDNP@autoread@ 0000000180079c10     MastertrackProcessor.obj
 0002:00018c20       ??_C@_09PNAFLGAI@autotouch@ 0000000180079c20     MastertrackProcessor.obj
 0002:00018c30       ??_C@_09FFOJLEAK@autowrite@ 0000000180079c30     MastertrackProcessor.obj
 0002:00018c40       ??_C@_09BFAMOPPK@autolatch@ 0000000180079c40     MastertrackProcessor.obj
 0002:00018c4c       ??_C@_06EMCPHFGM@volume@   0000000180079c4c     MastertrackProcessor.obj
 0002:00018c54       ??_C@_03HOPGHEB@pan@       0000000180079c54     MastertrackProcessor.obj
 0002:00018c58       ??_C@_04CCHAHKJA@user@     0000000180079c58     MastertrackProcessor.obj
 0002:00018c60       ??_C@_0BH@FFJGIILI@Set?5master?5track?5color@ 0000000180079c60     MastertrackProcessor.obj
 0002:00018c80       ??_7MastertrackProcessor@@6B@ 0000000180079c80     MastertrackProcessor.obj
 0002:00018cb8       ??_C@_0CA@ILLJIJGB@Could?5not?5add?5function?4?5Cause?3?5@ 0000000180079cb8     Model.obj
 0002:00018cd8       ??_C@_0BI@GNBIJBIC@Could?5not?5add?5function?4@ 0000000180079cd8     Model.obj
 0002:00018cf0       ??_C@_0P@ODALKAKM@?1device?1param?1@ 0000000180079cf0     Model.obj
 0002:00018d00       ??_C@_0L@MAHBCFJ@?1eq?1param?1@ 0000000180079d00     Model.obj
 0002:00018d10       ??_C@_0N@LDKPODF@?1user?1param?1@ 0000000180079d10     Model.obj
 0002:00018d28       ??_7?$_Ref_count_obj2@VMarker@@@std@@6B@ 0000000180079d28     Model.obj
 0002:00018d50       ??_7?$_Ref_count_obj2@VParameter@@@std@@6B@ 0000000180079d50     Model.obj
 0002:00018d78       ??_7?$_Ref_count_obj2@VTrack@@@std@@6B@ 0000000180079d78     Model.obj
 0002:00018d98       ??_C@_04HCCHHEEF@rate@     0000000180079d98     NoteRepeatProcessor.obj
 0002:00018da0       ??_C@_0L@OJHCAPBL@notelength@ 0000000180079da0     NoteRepeatProcessor.obj
 0002:00018dac       ??_C@_04GMGOKAFF@mode@     0000000180079dac     NoteRepeatProcessor.obj
 0002:00018db8       ??_C@_08ICEJNDOI@velocity@ 0000000180079db8     NoteRepeatProcessor.obj
 0002:00018dd0       ??_7NoteRepeatProcessor@@6B@ 0000000180079dd0     NoteRepeatProcessor.obj
 0002:00018e10       ??_7TimeProcessor@@6B@     0000000180079e10     OscParser.obj
 0002:00018e88       ??_7RepeatProcessor@@6B@   0000000180079e88     OscParser.obj
 0002:00018ec8       ??_7RecordProcessor@@6B@   0000000180079ec8     OscParser.obj
 0002:00018f08       ??_7UndoProcessor@@6B@     0000000180079f08     OscParser.obj
 0002:00018f80       ??_7CursorProcessor@@6B@   0000000180079f80     OscParser.obj
 0002:00019030       ??_7MetronomeVolumeProcessor@@6B@ 000000018007a030     OscParser.obj
 0002:00019070       ??_7QuantizeProcessor@@6B@ 000000018007a070     OscParser.obj
 0002:000190b0       ??_7TempoProcessor@@6B@    000000018007a0b0     OscParser.obj
 0002:00019120       ??_8?$basic_istringstream@DU?$char_traits@D@std@@V?$allocator@D@2@@std@@7B@ 000000018007a120     OscParser.obj
 0002:00019130       ??_7RedoProcessor@@6B@     000000018007a130     OscParser.obj
 0002:00019170       ??_7?$basic_istringstream@DU?$char_traits@D@std@@V?$allocator@D@2@@std@@6B@ 000000018007a170     OscParser.obj
 0002:00019180       ??_7RefreshProcessor@@6B@  000000018007a180     OscParser.obj
 0002:000191b8       ??_C@_02ECNGHCIF@?$CL?$CL@ 000000018007a1b8     OscParser.obj
 0002:000191bc       ??_C@_02BAABKJLB@?9?9@     000000018007a1bc     OscParser.obj
 0002:000191c0       ??_C@_04GBHMDDO@play@      000000018007a1c0     OscParser.obj
 0002:000191c8       ??_C@_04PEGFANN@stop@      000000018007a1c8     OscParser.obj
 0002:000191d0       ??_C@_06KKGOIHDP@record@   000000018007a1d0     OscParser.obj
 0002:000191d8       ??_C@_06LGDBIFHB@repeat@   000000018007a1d8     OscParser.obj
 0002:000191e0       ??_C@_04CLCEDBPF@time@     000000018007a1e0     OscParser.obj
 0002:000191e8       ??_C@_05PAIENJFA@tempo@    000000018007a1e8     OscParser.obj
 0002:000191f0       ??_C@_06DDLLCOJG@action@   000000018007a1f0     OscParser.obj
 0002:000191f8       ??_C@_08ODBAGKK@quantize@  000000018007a1f8     OscParser.obj
 0002:00019208       ??_C@_09PKADDAKJ@metro_vol@ 000000018007a208     OscParser.obj
 0002:00019214       ??_C@_04HOKNPDPJ@undo@     000000018007a214     OscParser.obj
 0002:0001921c       ??_C@_04BLIMKIOI@redo@     000000018007a21c     OscParser.obj
 0002:00019224       ??_C@_06CHDIMBDP@cursor@   000000018007a224     OscParser.obj
 0002:00019230       ??_C@_07HPCLKEG@refresh@   000000018007a230     OscParser.obj
 0002:00019238       ??_C@_07KIBAGFOO@inifile@  000000018007a238     OscParser.obj
 0002:00019240       ??_C@_0BM@IOMHGOGJ@Could?5not?5process?5message?3?5@ 000000018007a240     OscParser.obj
 0002:00019260       ??_C@_0BL@GMEBGHAA@Could?5not?5process?5message?4@ 000000018007a260     OscParser.obj
 0002:00019280       ??_C@_0N@MCFBDBKC@No?5function?5@ 000000018007a280     OscParser.obj
 0002:00019290       ??_C@_0N@EHJGMBEM@?5registered?$CB@ 000000018007a290     OscParser.obj
 0002:000192a0       ??_C@_0BG@BBKNOMOH@invalid?5map?$DMK?0?5T?$DO?5key@ 000000018007a2a0     OscParser.obj
 0002:000192b8       ??_C@_0BC@KBDMBKEH@deque?$DMT?$DO?5too?5long@ 000000018007a2b8     OscParser.obj
 0002:000192d0       ??_C@_09LJPNEPHP@value?1str@ 000000018007a2d0     Parameter.obj
 0002:000192e0       ??_C@_0CH@NFNGGIIP@Could?5not?5create?5parameter?5addr@ 000000018007a2e0     Parameter.obj
 0002:00019308       ??_C@_0CE@EKDJDKEB@createSceneFromPlayingLauncherC@ 000000018007a308     ProjectProcessor.obj
 0002:0001932c       ??_C@_06LOBMEHPF@engine@   000000018007a32c     ProjectProcessor.obj
 0002:00019338       ??_C@_0M@PCFJMDJM@createScene@ 000000018007a338     ProjectProcessor.obj
 0002:00019348       ??_C@_0BC@JPDPANKG@Add?5region?5marker@ 000000018007a348     ProjectProcessor.obj
 0002:00019368       ??_7ProjectProcessor@@6B@  000000018007a368     ProjectProcessor.obj
 0002:000193d8       ??_C@_0CL@PNFFFBBA@Could?5not?5display?5error?5message@ 000000018007a3d8     ReaDebug.obj
 0002:00019408       ??_C@_0P@OOBKDDNB@drivenbymoss?3?5@ 000000018007a408     ReaDebug.obj
 0002:00019418       ??_C@_0P@CDIKMADL@Delete?5region?4@ 000000018007a418     SceneProcessor.obj
 0002:00019428       ??_C@_07BMHHHAIJ@?5?9?5Copy@ 000000018007a428     SceneProcessor.obj
 0002:00019430       ??_C@_0BB@LMMCMEDM@Duplicate?5region@ 000000018007a430     SceneProcessor.obj
 0002:00019450       ??_7SceneProcessor@@6B@    000000018007a450     SceneProcessor.obj
 0002:00019488       ??_C@_09NECIFLDG@projsrate@ 000000018007a488     Send.obj
 0002:00019494       ??_C@_05BEGCACKP@send?1@   000000018007a494     Send.obj
 0002:000194a0       ??_C@_0L@DKFGLLIJ@volume?1str@ 000000018007a4a0     Send.obj
 0002:000194b0       ??_C@_07FBJIEFMP@?$DMVOLENV@ 000000018007a4b0     Send.obj
 0002:000194b8       ??_C@_05MCNPPMKG@P_ENV@    000000018007a4b8     Send.obj
 0002:000194c8       ??_7Send@@6B@              000000018007a4c8     Send.obj
 0002:000194d0       ??_C@_0N@BFLOIAEN@LOCK?2s?$CL?$CI?2d?$CL?$CJ@ 000000018007a4d0     Track.obj
 0002:000194e0       ??_C@_0GB@NNIKFFMB@INQ?2s?$CL?$CI?$FL0?99?$FN?$CL?$CI?2?4?$FL0?99?$FN?$CL?$CJ?$DP?$CJ?2s?$CL?$CI?9?$DP@ 000000018007a4e0     Track.obj
 0002:00019544       ??_C@_05BJGJGKJC@depth@    000000018007a544     Track.obj
 0002:0001954c       ??_C@_05NAIABEH@GROUP@     000000018007a54c     Track.obj
 0002:00019554       ??_C@_06JGJPLCOO@HYBRID@   000000018007a554     Track.obj
 0002:0001955c       ??_C@_04GPMDFGEJ@type@     000000018007a55c     Track.obj
 0002:00019564       ??_C@_06JLHDELEF@recarm@   000000018007a564     Track.obj
 0002:00019570       ??_C@_08GPAPNGCJ@I_RECMON@ 000000018007a570     Track.obj
 0002:00019580       ??_C@_07LAMOHCEE@monitor@  000000018007a580     Track.obj
 0002:00019588       ??_C@_0M@BHLFLMFF@autoMonitor@ 000000018007a588     Track.obj
 0002:00019598       ??_C@_09MCEEKJCM@I_RECMODE@ 000000018007a598     Track.obj
 0002:000195a8       ??_C@_07HGDAJJBM@overdub@  000000018007a5a8     Track.obj
 0002:000195b0       ??_C@_07FNFIPECC@pan?1str@ 000000018007a5b0     Track.obj
 0002:000195b8       ??_C@_02CIKLPLM@vu@        000000018007a5b8     Track.obj
 0002:000195bc       ??_C@_06OBPHMPPP@vuleft@   000000018007a5bc     Track.obj
 0002:000195c8       ??_C@_07DHBMBHCL@vuright@  000000018007a5c8     Track.obj
 0002:000195d0       ??_C@_08CGIAAEC@automode@  000000018007a5d0     Track.obj
 0002:000195e0       ??_C@_0L@PNHKJPMJ@send?1count@ 000000018007a5e0     Track.obj
 0002:000195ec       ??_C@_06IDJCEMPA@Volume@   000000018007a5ec     Track.obj
 0002:000195f4       ??_C@_03KHNNMIHP@Pan@      000000018007a5f4     Track.obj
 0002:000195f8       ??_C@_04IOCNJLNK@Mute@     000000018007a5f8     Track.obj
 0002:00019600       ??_C@_0BF@OIEKEAOG@inQuantLengthEnabled@ 000000018007a600     Track.obj
 0002:00019618       ??_C@_0BC@BGAFBIPI@inQuantResolution@ 000000018007a618     Track.obj
 0002:00019630       ??_C@_08JAEGKKIH@scrollto@ 000000018007a630     TrackProcessor.obj
 0002:00019640       ??_C@_0N@PGBEDMAC@Delete?5track@ 000000018007a640     TrackProcessor.obj
 0002:00019650       ??_C@_0BA@GPAOPBHJ@clearAutomation@ 000000018007a650     TrackProcessor.obj
 0002:00019660       ??_C@_0L@IHNFAKFG@recordClip@ 000000018007a660     TrackProcessor.obj
 0002:00019670       ??_C@_0M@FDOLGILI@Delete?5item@ 000000018007a670     TrackProcessor.obj
 0002:00019680       ??_C@_0P@NDJCCHMC@Duplicate?5item@ 000000018007a680     TrackProcessor.obj
 0002:00019690       ??_C@_0L@ODMDAGOL@createClip@ 000000018007a690     TrackProcessor.obj
 0002:0001969c       ??_C@_03JPMDGPJ@pin@       000000018007a69c     TrackProcessor.obj
 0002:000196a0       ??_C@_0O@ECKJKGIJ@autotrim_read@ 000000018007a6a0     TrackProcessor.obj
 0002:000196b0       ??_C@_0BC@HICKANDF@autolatch_preview@ 000000018007a6b0     TrackProcessor.obj
 0002:000196c4       ??_C@_05HOLIDFGP@touch@    000000018007a6c4     TrackProcessor.obj
 0002:000196cc       ??_C@_04MIIPNNEF@send@     000000018007a6cc     TrackProcessor.obj
 0002:000196d8       ??_C@_0P@HPBJLGE@Set?5track?5name@ 000000018007a6d8     TrackProcessor.obj
 0002:000196e8       ??_C@_08CCLJBGDM@addTrack@ 000000018007a6e8     TrackProcessor.obj
 0002:000196f8       ??_C@_0L@GDMOLDFC@INSTRUMENT@ 000000018007a6f8     TrackProcessor.obj
 0002:00019708       ??_C@_0M@DDGLEMEL@Instrument?5@ 000000018007a708     TrackProcessor.obj
 0002:00019714       ??_C@_05GGBGONMB@AUDIO@    000000018007a714     TrackProcessor.obj
 0002:0001971c       ??_C@_06CHJDADIF@Audio?5@  000000018007a71c     TrackProcessor.obj
 0002:00019728       ??_C@_07HDFGDNHJ@Effect?5@ 000000018007a728     TrackProcessor.obj
 0002:00019730       ??_C@_0L@IJGBLIAE@I_RECINPUT@ 000000018007a730     TrackProcessor.obj
 0002:00019740       ??_C@_09KLDNBHGJ@Add?5track@ 000000018007a740     TrackProcessor.obj
 0002:00019750       ??_C@_08BKAKAKHB@I_RECARM@ 000000018007a750     TrackProcessor.obj
 0002:00019760       ??_C@_0BM@GGAHKAEH@Create?5Midi?5Clip?5and?5Record@ 000000018007a760     TrackProcessor.obj
 0002:00019780       ??_C@_0BB@MFHEMNGC@Record?5Midi?5Clip@ 000000018007a780     TrackProcessor.obj
 0002:00019798       ??_C@_0BA@OBFEAAKC@Set?5track?5color@ 000000018007a798     TrackProcessor.obj
 0002:000197a8       ??_C@_0N@GEEAPHJO@Enable?5track@ 000000018007a7a8     TrackProcessor.obj
 0002:000197b8       ??_C@_0O@FJOJKOCN@Disable?5track@ 000000018007a7b8     TrackProcessor.obj
 0002:000197c8       ??_C@_0CK@CMGONCKF@Delete?5all?5automation?5envelopes@ 000000018007a7c8     TrackProcessor.obj
 0002:00019800       ??_7TrackProcessor@@6B@    000000018007a800     TrackProcessor.obj
 0002:00019838       __real@3ddb7cdfd9d7bdbb    000000018007a838     DataCollector.obj
 0002:00019840       __real@3e60000000000000    000000018007a840     DataCollector.obj
 0002:00019848       __real@3f1a36e2eb1c432d    000000018007a848     ClipProcessor.obj
 0002:00019850       __real@3f50624dd2f1a9fc    000000018007a850     DataCollector.obj
 0002:00019858       __real@3fbd791c5f888822    000000018007a858     MastertrackProcessor.obj
 0002:00019860       __real@3fc0000000000000    000000018007a860     TrackProcessor.obj
 0002:00019868       __real@3fd0000000000000    000000018007a868     TrackProcessor.obj
 0002:00019870       __real@3fe0000000000000    000000018007a870     DataCollector.obj
 0002:00019878       __real@3ff0000000000000    000000018007a878     TrackProcessor.obj
 0002:00019880       __real@4000000000000000    000000018007a880     MastertrackProcessor.obj
 0002:00019888       __real@4008000000000000    000000018007a888     MastertrackProcessor.obj
 0002:00019890       __real@4010000000000000    000000018007a890     MastertrackProcessor.obj
 0002:00019898       __real@4018000000000000    000000018007a898     DataCollector.obj
 0002:000198a0       __real@401c000000000000    000000018007a8a0     TrackProcessor.obj
 0002:000198a8       __real@4020000000000000    000000018007a8a8     DeviceProcessor.obj
 0002:000198b0       __real@40215f2ced384f29    000000018007a8b0     DataCollector.obj
 0002:000198b8       __real@404e000000000000    000000018007a8b8     ProjectProcessor.obj
 0002:000198c0       __real@4050800000000000    000000018007a8c0     DataCollector.obj
 0002:000198c8       __real@4059000000000000    000000018007a8c8     DataCollector.obj
 0002:000198d0       __real@408f400000000000    000000018007a8d0     MastertrackProcessor.obj
 0002:000198d8       __real@40b7e00000000000    000000018007a8d8     TrackProcessor.obj
 0002:000198e0       __real@4202a05f20000000    000000018007a8e0     ActionProcessor.obj
 0002:000198e8       __real@bff0000000000000    000000018007a8e8     ClipProcessor.obj
 0002:000198f0       __real@c04e000000000000    000000018007a8f0     DataCollector.obj
 0002:000198f8       __real@c059000000000000    000000018007a8f8     DataCollector.obj
 0002:00019900       __real@c062c00000000000    000000018007a900     DataCollector.obj
 0002:00019910       __xmm@7fffffffffffffff7fffffffffffffff 000000018007a910     ClipProcessor.obj
 0002:00019ca0       _load_config_used          000000018007aca0     LIBCMT:loadcfg.obj
 0002:00019e00       ??_R4bad_function_call@std@@6B@ 000000018007ae00     libcpmt:xthrow.obj
 0002:00019e28       ??_R3bad_function_call@std@@8 000000018007ae28     libcpmt:xthrow.obj
 0002:00019e40       ??_R2bad_function_call@std@@8 000000018007ae40     libcpmt:xthrow.obj
 0002:00019e58       ??_R1A@?0A@EA@bad_function_call@std@@8 000000018007ae58     libcpmt:xthrow.obj
 0002:00019e80       ??_R4logic_error@std@@6B@  000000018007ae80     libcpmt:xthrow.obj
 0002:00019ea8       ??_R3logic_error@std@@8    000000018007aea8     libcpmt:xthrow.obj
 0002:00019ec0       ??_R2logic_error@std@@8    000000018007aec0     libcpmt:xthrow.obj
 0002:00019ed8       ??_R1A@?0A@EA@logic_error@std@@8 000000018007aed8     libcpmt:xthrow.obj
 0002:00019f00       ??_R4length_error@std@@6B@ 000000018007af00     libcpmt:xthrow.obj
 0002:00019f28       ??_R3length_error@std@@8   000000018007af28     libcpmt:xthrow.obj
 0002:00019f40       ??_R2length_error@std@@8   000000018007af40     libcpmt:xthrow.obj
 0002:00019f60       ??_R1A@?0A@EA@length_error@std@@8 000000018007af60     libcpmt:xthrow.obj
 0002:00019f88       ??_R4out_of_range@std@@6B@ 000000018007af88     libcpmt:xthrow.obj
 0002:00019fb0       ??_R3out_of_range@std@@8   000000018007afb0     libcpmt:xthrow.obj
 0002:00019fc8       ??_R2out_of_range@std@@8   000000018007afc8     libcpmt:xthrow.obj
 0002:00019fe8       ??_R1A@?0A@EA@out_of_range@std@@8 000000018007afe8     libcpmt:xthrow.obj
 0002:0001a010       ??_R4regex_error@std@@6B@  000000018007b010     libcpmt:xthrow.obj
 0002:0001a038       ??_R3regex_error@std@@8    000000018007b038     libcpmt:xthrow.obj
 0002:0001a050       ??_R2regex_error@std@@8    000000018007b050     libcpmt:xthrow.obj
 0002:0001a070       ??_R1A@?0A@EA@regex_error@std@@8 000000018007b070     libcpmt:xthrow.obj
 0002:0001a098       ??_R4_Locimp@locale@std@@6B@ 000000018007b098     libcpmt:locale0.obj
 0002:0001a0c0       ??_R3_Locimp@locale@std@@8 000000018007b0c0     libcpmt:locale0.obj
 0002:0001a0d8       ??_R2_Locimp@locale@std@@8 000000018007b0d8     libcpmt:locale0.obj
 0002:0001a100       ??_R1A@?0A@EA@_Locimp@locale@std@@8 000000018007b100     libcpmt:locale0.obj
 0002:0001a128       ??_R4_Generic_error_category@std@@6B@ 000000018007b128     libcpmt:thread0.obj
 0002:0001a150       ??_R3_Generic_error_category@std@@8 000000018007b150     libcpmt:thread0.obj
 0002:0001a168       ??_R2_Generic_error_category@std@@8 000000018007b168     libcpmt:thread0.obj
 0002:0001a180       ??_R1A@?0A@EA@_Generic_error_category@std@@8 000000018007b180     libcpmt:thread0.obj
 0002:0001a1a8       ??_R3stl_critical_section_interface@details@Concurrency@@8 000000018007b1a8     libcpmt:mutex.obj
 0002:0001a1c0       ??_R2stl_critical_section_interface@details@Concurrency@@8 000000018007b1c0     libcpmt:mutex.obj
 0002:0001a1d0       ??_R1A@?0A@EA@stl_critical_section_interface@details@Concurrency@@8 000000018007b1d0     libcpmt:mutex.obj
 0002:0001a1f8       ??_R4stl_critical_section_vista@details@Concurrency@@6B@ 000000018007b1f8     libcpmt:mutex.obj
 0002:0001a220       ??_R3stl_critical_section_vista@details@Concurrency@@8 000000018007b220     libcpmt:mutex.obj
 0002:0001a238       ??_R2stl_critical_section_vista@details@Concurrency@@8 000000018007b238     libcpmt:mutex.obj
 0002:0001a250       ??_R1A@?0A@EA@stl_critical_section_vista@details@Concurrency@@8 000000018007b250     libcpmt:mutex.obj
 0002:0001a278       ??_R4stl_critical_section_win7@details@Concurrency@@6B@ 000000018007b278     libcpmt:mutex.obj
 0002:0001a2a0       ??_R3stl_critical_section_win7@details@Concurrency@@8 000000018007b2a0     libcpmt:mutex.obj
 0002:0001a2b8       ??_R2stl_critical_section_win7@details@Concurrency@@8 000000018007b2b8     libcpmt:mutex.obj
 0002:0001a2d0       ??_R1A@?0A@EA@stl_critical_section_win7@details@Concurrency@@8 000000018007b2d0     libcpmt:mutex.obj
 0002:0001a2f8       ??_R4type_info@@6B@        000000018007b2f8     LIBCMT:std_type_info_static.obj
 0002:0001a320       ??_R3type_info@@8          000000018007b320     LIBCMT:std_type_info_static.obj
 0002:0001a338       ??_R2type_info@@8          000000018007b338     LIBCMT:std_type_info_static.obj
 0002:0001a348       ??_R1A@?0A@EA@type_info@@8 000000018007b348     LIBCMT:std_type_info_static.obj
 0002:0001a370       ??_R4bad_exception@std@@6B@ 000000018007b370     libvcruntime:frame.obj
 0002:0001a398       ??_R3bad_exception@std@@8  000000018007b398     libvcruntime:frame.obj
 0002:0001a3b0       ??_R2bad_exception@std@@8  000000018007b3b0     libvcruntime:frame.obj
 0002:0001a3c8       ??_R1A@?0A@EA@bad_exception@std@@8 000000018007b3c8     libvcruntime:frame.obj
 0002:0001a3f0       ??_R3_Node_back@std@@8     000000018007b3f0     ActionProcessor.obj
 0002:0001a408       ??_R4exception@std@@6B@    000000018007b408     ActionProcessor.obj
 0002:0001a430       ??_R4_Node_assert@std@@6B@ 000000018007b430     ActionProcessor.obj
 0002:0001a458       ??_R2bad_array_new_length@std@@8 000000018007b458     ActionProcessor.obj
 0002:0001a478       ??_R2system_error@std@@8   000000018007b478     ActionProcessor.obj
 0002:0001a4a0       ??_R1A@?0A@EA@system_error@std@@8 000000018007b4a0     ActionProcessor.obj
 0002:0001a4c8       ??_R3?$ctype@D@std@@8      000000018007b4c8     ActionProcessor.obj
 0002:0001a4e0       ??_R3_Node_assert@std@@8   000000018007b4e0     ActionProcessor.obj
 0002:0001a4f8       ??_R1A@?0A@EA@?$_Node_str@D@std@@8 000000018007b4f8     ActionProcessor.obj
 0002:0001a520       ??_R2?$num_put@DV?$ostreambuf_iterator@DU?$char_traits@D@std@@@std@@@std@@8 000000018007b520     ActionProcessor.obj
 0002:0001a548       ??_R4runtime_error@std@@6B@ 000000018007b548     ActionProcessor.obj
 0002:0001a570       ??_R1A@?0A@EA@_Node_end_rep@std@@8 000000018007b570     ActionProcessor.obj
 0002:0001a598       ??_R3_Node_if@std@@8       000000018007b598     ActionProcessor.obj
 0002:0001a5b0       ??_R3_Node_rep@std@@8      000000018007b5b0     ActionProcessor.obj
 0002:0001a5c8       ??_R4_System_error@std@@6B@ 000000018007b5c8     ActionProcessor.obj
 0002:0001a5f0       ??_R3_Facet_base@std@@8    000000018007b5f0     ActionProcessor.obj
 0002:0001a608       ??_R1A@?0A@EA@_Node_if@std@@8 000000018007b608     ActionProcessor.obj
 0002:0001a630       ??_R1A@?0A@EA@_Node_endif@std@@8 000000018007b630     ActionProcessor.obj
 0002:0001a658       ??_R1A@?0A@EA@_Node_back@std@@8 000000018007b658     ActionProcessor.obj
 0002:0001a680       ??_R1A@?0A@EA@bad_cast@std@@8 000000018007b680     ActionProcessor.obj
 0002:0001a6a8       ??_R2bad_alloc@std@@8      000000018007b6a8     ActionProcessor.obj
 0002:0001a6c0       ??_R4_Root_node@std@@6B@   000000018007b6c0     ActionProcessor.obj
 0002:0001a6e8       ??_R1A@?0A@EA@_Node_rep@std@@8 000000018007b6e8     ActionProcessor.obj
 0002:0001a710       ??_R3_Crt_new_delete@std@@8 000000018007b710     ActionProcessor.obj
 0002:0001a728       ??_R1A@?0A@EA@runtime_error@std@@8 000000018007b728     ActionProcessor.obj
 0002:0001a750       ??_R2_System_error@std@@8  000000018007b750     ActionProcessor.obj
 0002:0001a770       ??_R2?$_Node_str@D@std@@8  000000018007b770     ActionProcessor.obj
 0002:0001a788       ??_R2_Node_end_group@std@@8 000000018007b788     ActionProcessor.obj
 0002:0001a7a0       ??_R4?$_Node_str@D@std@@6B@ 000000018007b7a0     ActionProcessor.obj
 0002:0001a7c8       ??_R3_Node_capture@std@@8  000000018007b7c8     ActionProcessor.obj
 0002:0001a7e0       ??_R1A@?0A@EA@exception@std@@8 000000018007b7e0     ActionProcessor.obj
 0002:0001a808       ??_R2_Node_capture@std@@8  000000018007b808     ActionProcessor.obj
 0002:0001a820       ??_R4system_error@std@@6B@ 000000018007b820     ActionProcessor.obj
 0002:0001a848       ??_R4_Node_end_rep@std@@6B@ 000000018007b848     ActionProcessor.obj
 0002:0001a870       ??_R2_Node_assert@std@@8   000000018007b870     ActionProcessor.obj
 0002:0001a888       ??_R2?$_Node_class@DV?$regex_traits@D@std@@@std@@8 000000018007b888     ActionProcessor.obj
 0002:0001a8a0       ??_R1A@?0A@EA@_Facet_base@std@@8 000000018007b8a0     ActionProcessor.obj
 0002:0001a8c8       ??_R1A@?0A@EA@bad_alloc@std@@8 000000018007b8c8     ActionProcessor.obj
 0002:0001a8f0       ??_R4_Node_back@std@@6B@   000000018007b8f0     ActionProcessor.obj
 0002:0001a918       ??_R2_Node_rep@std@@8      000000018007b918     ActionProcessor.obj
 0002:0001a930       ??_R2_Root_node@std@@8     000000018007b930     ActionProcessor.obj
 0002:0001a948       ??_R3_System_error@std@@8  000000018007b948     ActionProcessor.obj
 0002:0001a960       ??_R2_Node_back@std@@8     000000018007b960     ActionProcessor.obj
 0002:0001a978       ??_R17?0A@EA@_Crt_new_delete@std@@8 000000018007b978     ActionProcessor.obj
 0002:0001a9a0       ??_R3_Node_end_group@std@@8 000000018007b9a0     ActionProcessor.obj
 0002:0001a9b8       ??_R4_Node_endif@std@@6B@  000000018007b9b8     ActionProcessor.obj
 0002:0001a9e0       ??_R4_Node_rep@std@@6B@    000000018007b9e0     ActionProcessor.obj
 0002:0001aa08       ??_R1A@?0A@EA@?$collate@D@std@@8 000000018007ba08     ActionProcessor.obj
 0002:0001aa30       ??_R3OscProcessor@@8       000000018007ba30     ActionProcessor.obj
 0002:0001aa48       ??_R4_Node_end_group@std@@6B@ 000000018007ba48     ActionProcessor.obj
 0002:0001aa70       ??_R2bad_cast@std@@8       000000018007ba70     ActionProcessor.obj
 0002:0001aa88       ??_R2exception@std@@8      000000018007ba88     ActionProcessor.obj
 0002:0001aa98       ??_R3_Node_base@std@@8     000000018007ba98     ActionProcessor.obj
 0002:0001aab0       ??_R4failure@ios_base@std@@6B@ 000000018007bab0     ActionProcessor.obj
 0002:0001aad8       ??_R2_Node_if@std@@8       000000018007bad8     ActionProcessor.obj
 0002:0001aaf0       ??_R2ActionProcessor@@8    000000018007baf0     ActionProcessor.obj
 0002:0001ab08       ??_R4?$collate@D@std@@6B@  000000018007bb08     ActionProcessor.obj
 0002:0001ab30       ??_R4_Iostream_error_category2@std@@6B@ 000000018007bb30     ActionProcessor.obj
 0002:0001ab58       ??_R4ActionProcessor@@6B@  000000018007bb58     ActionProcessor.obj
 0002:0001ab80       ??_R2_Node_end_rep@std@@8  000000018007bb80     ActionProcessor.obj
 0002:0001ab98       ??_R2error_category@std@@8 000000018007bb98     ActionProcessor.obj
 0002:0001aba8       ??_R1A@?0A@EA@_Iostream_error_category2@std@@8 000000018007bba8     ActionProcessor.obj
 0002:0001abd0       ??_R1A@?0A@EA@facet@locale@std@@8 000000018007bbd0     ActionProcessor.obj
 0002:0001abf8       ??_R2?$collate@D@std@@8    000000018007bbf8     ActionProcessor.obj
 0002:0001ac20       ??_R3?$_Node_class@DV?$regex_traits@D@std@@@std@@8 000000018007bc20     ActionProcessor.obj
 0002:0001ac38       ??_R2failure@ios_base@std@@8 000000018007bc38     ActionProcessor.obj
 0002:0001ac68       ??_R1A@?0A@EA@_Node_base@std@@8 000000018007bc68     ActionProcessor.obj
 0002:0001ac90       ??_R1A@?0A@EA@OscProcessor@@8 000000018007bc90     ActionProcessor.obj
 0002:0001acb8       ??_R4OscProcessor@@6B@     000000018007bcb8     ActionProcessor.obj
 0002:0001ace0       ??_R3failure@ios_base@std@@8 000000018007bce0     ActionProcessor.obj
 0002:0001acf8       ??_R2?$ctype@D@std@@8      000000018007bcf8     ActionProcessor.obj
 0002:0001ad28       ??_R2_Node_endif@std@@8    000000018007bd28     ActionProcessor.obj
 0002:0001ad40       ??_R3exception@std@@8      000000018007bd40     ActionProcessor.obj
 0002:0001ad58       ??_R4_Node_base@std@@6B@   000000018007bd58     ActionProcessor.obj
 0002:0001ad80       ??_R1A@?0A@EA@failure@ios_base@std@@8 000000018007bd80     ActionProcessor.obj
 0002:0001ada8       ??_R1A@?0A@EA@_Node_end_group@std@@8 000000018007bda8     ActionProcessor.obj
 0002:0001add0       ??_R2?$numpunct@D@std@@8   000000018007bdd0     ActionProcessor.obj
 0002:0001adf8       ??_R3facet@locale@std@@8   000000018007bdf8     ActionProcessor.obj
 0002:0001ae10       ??_R1A@?0A@EA@_Node_capture@std@@8 000000018007be10     ActionProcessor.obj
 0002:0001ae38       ??_R3ctype_base@std@@8     000000018007be38     ActionProcessor.obj
 0002:0001ae50       ??_R4_Node_capture@std@@6B@ 000000018007be50     ActionProcessor.obj
 0002:0001ae78       ??_R1A@?0A@EA@_System_error@std@@8 000000018007be78     ActionProcessor.obj
 0002:0001aea0       ??_R3bad_cast@std@@8       000000018007bea0     ActionProcessor.obj
 0002:0001aeb8       ??_R3_Node_end_rep@std@@8  000000018007beb8     ActionProcessor.obj
 0002:0001aed0       ??_R3error_category@std@@8 000000018007bed0     ActionProcessor.obj
 0002:0001aee8       ??_R4bad_alloc@std@@6B@    000000018007bee8     ActionProcessor.obj
 0002:0001af10       ??_R3ActionProcessor@@8    000000018007bf10     ActionProcessor.obj
 0002:0001af28       ??_R4bad_cast@std@@6B@     000000018007bf28     ActionProcessor.obj
 0002:0001af50       ??_R1A@?0A@EA@_Crt_new_delete@std@@8 000000018007bf50     ActionProcessor.obj
 0002:0001af78       ??_R3bad_array_new_length@std@@8 000000018007bf78     ActionProcessor.obj
 0002:0001af90       ??_R3bad_alloc@std@@8      000000018007bf90     ActionProcessor.obj
 0002:0001afa8       ??_R3_Node_endif@std@@8    000000018007bfa8     ActionProcessor.obj
 0002:0001afc0       ??_R4_Facet_base@std@@6B@  000000018007bfc0     ActionProcessor.obj
 0002:0001afe8       ??_R1A@?0A@EA@ActionProcessor@@8 000000018007bfe8     ActionProcessor.obj
 0002:0001b010       ??_R2OscProcessor@@8       000000018007c010     ActionProcessor.obj
 0002:0001b020       ??_R3?$numpunct@D@std@@8   000000018007c020     ActionProcessor.obj
 0002:0001b038       ??_R3_Iostream_error_category2@std@@8 000000018007c038     ActionProcessor.obj
 0002:0001b050       ??_R4?$numpunct@D@std@@6B@ 000000018007c050     ActionProcessor.obj
 0002:0001b078       ??_R2runtime_error@std@@8  000000018007c078     ActionProcessor.obj
 0002:0001b090       ??_R4bad_array_new_length@std@@6B@ 000000018007c090     ActionProcessor.obj
 0002:0001b0b8       ??_R1A@?0A@EA@?$num_put@DV?$ostreambuf_iterator@DU?$char_traits@D@std@@@std@@@std@@8 000000018007c0b8     ActionProcessor.obj
 0002:0001b0e0       ??_R1A@?0A@EA@ctype_base@std@@8 000000018007c0e0     ActionProcessor.obj
 0002:0001b108       ??_R1A@?0A@EA@?$numpunct@D@std@@8 000000018007c108     ActionProcessor.obj
 0002:0001b130       ??_R2_Iostream_error_category2@std@@8 000000018007c130     ActionProcessor.obj
 0002:0001b148       ??_R2_Crt_new_delete@std@@8 000000018007c148     ActionProcessor.obj
 0002:0001b158       ??_R1A@?0A@EA@?$ctype@D@std@@8 000000018007c158     ActionProcessor.obj
 0002:0001b180       ??_R4?$_Node_class@DV?$regex_traits@D@std@@@std@@6B@ 000000018007c180     ActionProcessor.obj
 0002:0001b1a8       ??_R1A@?0A@EA@bad_array_new_length@std@@8 000000018007c1a8     ActionProcessor.obj
 0002:0001b1d0       ??_R3?$collate@D@std@@8    000000018007c1d0     ActionProcessor.obj
 0002:0001b1e8       ??_R3?$_Node_str@D@std@@8  000000018007c1e8     ActionProcessor.obj
 0002:0001b200       ??_R1A@?0A@EA@_Root_node@std@@8 000000018007c200     ActionProcessor.obj
 0002:0001b228       ??_R3system_error@std@@8   000000018007c228     ActionProcessor.obj
 0002:0001b240       ??_R1A@?0A@EA@?$_Node_class@DV?$regex_traits@D@std@@@std@@8 000000018007c240     ActionProcessor.obj
 0002:0001b268       ??_R2_Facet_base@std@@8    000000018007c268     ActionProcessor.obj
 0002:0001b278       ??_R2facet@locale@std@@8   000000018007c278     ActionProcessor.obj
 0002:0001b298       ??_R3_Root_node@std@@8     000000018007c298     ActionProcessor.obj
 0002:0001b2b0       ??_R4?$ctype@D@std@@6B@    000000018007c2b0     ActionProcessor.obj
 0002:0001b2d8       ??_R3runtime_error@std@@8  000000018007c2d8     ActionProcessor.obj
 0002:0001b2f0       ??_R4_Node_if@std@@6B@     000000018007c2f0     ActionProcessor.obj
 0002:0001b318       ??_R2ctype_base@std@@8     000000018007c318     ActionProcessor.obj
 0002:0001b340       ??_R4?$num_put@DV?$ostreambuf_iterator@DU?$char_traits@D@std@@@std@@@std@@6B@ 000000018007c340     ActionProcessor.obj
 0002:0001b368       ??_R3?$num_put@DV?$ostreambuf_iterator@DU?$char_traits@D@std@@@std@@@std@@8 000000018007c368     ActionProcessor.obj
 0002:0001b380       ??_R2_Node_base@std@@8     000000018007c380     ActionProcessor.obj
 0002:0001b390       ??_R1A@?0A@EA@_Node_assert@std@@8 000000018007c390     ActionProcessor.obj
 0002:0001b3b8       ??_R1A@?0A@EA@error_category@std@@8 000000018007c3b8     ActionProcessor.obj
 0002:0001b3e0       ??_R1A@?0A@EA@ClipProcessor@@8 000000018007c3e0     ClipProcessor.obj
 0002:0001b408       ??_R3ClipProcessor@@8      000000018007c408     ClipProcessor.obj
 0002:0001b420       ??_R4ClipProcessor@@6B@    000000018007c420     ClipProcessor.obj
 0002:0001b448       ??_R2ClipProcessor@@8      000000018007c448     ClipProcessor.obj
 0002:0001b460       ??_R3?$basic_istream@DU?$char_traits@D@std@@@std@@8 000000018007c460     DataCollector.obj
 0002:0001b478       ??_R4?$basic_ostringstream@DU?$char_traits@D@std@@V?$allocator@D@2@@std@@6B@ 000000018007c478     DataCollector.obj
 0002:0001b4a0       ??_R4DataCollector@@6B@    000000018007c4a0     DataCollector.obj
 0002:0001b4c8       ??_R4?$basic_ostream@DU?$char_traits@D@std@@@std@@6B@ 000000018007c4c8     DataCollector.obj
 0002:0001b4f0       ??_R1A@?0A@EA@?$basic_istream@DU?$char_traits@D@std@@@std@@8 000000018007c4f0     DataCollector.obj
 0002:0001b518       ??_R3?$basic_ifstream@DU?$char_traits@D@std@@@std@@8 000000018007c518     DataCollector.obj
 0002:0001b530       ??_R2?$basic_stringbuf@DU?$char_traits@D@std@@V?$allocator@D@2@@std@@8 000000018007c530     DataCollector.obj
 0002:0001b548       ??_R3?$basic_ostringstream@DU?$char_traits@D@std@@V?$allocator@D@2@@std@@8 000000018007c548     DataCollector.obj
 0002:0001b560       ??_R2?$codecvt@DDU_Mbstatet@@@std@@8 000000018007c560     DataCollector.obj
 0002:0001b590       ??_R1A@?0A@EA@?$basic_ifstream@DU?$char_traits@D@std@@@std@@8 000000018007c590     DataCollector.obj
 0002:0001b5b8       ??_R17A@3EA@?$_Iosb@H@std@@8 000000018007c5b8     DataCollector.obj
 0002:0001b5e0       ??_R4ios_base@std@@6B@     000000018007c5e0     DataCollector.obj
 0002:0001b608       ??_R1A@?0A@EA@?$basic_streambuf@DU?$char_traits@D@std@@@std@@8 000000018007c608     DataCollector.obj
 0002:0001b630       ??_R2?$basic_istream@DU?$char_traits@D@std@@@std@@8 000000018007c630     DataCollector.obj
 0002:0001b658       ??_R4?$basic_ios@DU?$char_traits@D@std@@@std@@6B@ 000000018007c658     DataCollector.obj
 0002:0001b680       ??_R1A@?0A@EA@?$basic_ostringstream@DU?$char_traits@D@std@@V?$allocator@D@2@@std@@8 000000018007c680     DataCollector.obj
 0002:0001b6a8       ??_R3?$basic_stringbuf@DU?$char_traits@D@std@@V?$allocator@D@2@@std@@8 000000018007c6a8     DataCollector.obj
 0002:0001b6c0       ??_R2?$basic_ostream@DU?$char_traits@D@std@@@std@@8 000000018007c6c0     DataCollector.obj
 0002:0001b6e8       ??_R3?$basic_ios@DU?$char_traits@D@std@@@std@@8 000000018007c6e8     DataCollector.obj
 0002:0001b700       ??_R2codecvt_base@std@@8   000000018007c700     DataCollector.obj
 0002:0001b728       ??_R1A@?0A@EA@codecvt_base@std@@8 000000018007c728     DataCollector.obj
 0002:0001b750       ??_R4?$basic_ifstream@DU?$char_traits@D@std@@@std@@6B@ 000000018007c750     DataCollector.obj
 0002:0001b778       ??_R1A@?0A@EA@ios_base@std@@8 000000018007c778     DataCollector.obj
 0002:0001b7a0       ??_R1A@?0A@EA@?$basic_ostream@DU?$char_traits@D@std@@@std@@8 000000018007c7a0     DataCollector.obj
 0002:0001b7c8       ??_R3codecvt_base@std@@8   000000018007c7c8     DataCollector.obj
 0002:0001b7e0       ??_R2DataCollector@@8      000000018007c7e0     DataCollector.obj
 0002:0001b7f0       ??_R4?$basic_filebuf@DU?$char_traits@D@std@@@std@@6B@ 000000018007c7f0     DataCollector.obj
 0002:0001b818       ??_R3DataCollector@@8      000000018007c818     DataCollector.obj
 0002:0001b830       ??_R2?$basic_streambuf@DU?$char_traits@D@std@@@std@@8 000000018007c830     DataCollector.obj
 0002:0001b840       ??_R1A@?0A@EA@?$_Iosb@H@std@@8 000000018007c840     DataCollector.obj
 0002:0001b868       ??_R1A@?0A@EA@?$basic_stringbuf@DU?$char_traits@D@std@@V?$allocator@D@2@@std@@8 000000018007c868     DataCollector.obj
 0002:0001b890       ??_R4?$basic_stringbuf@DU?$char_traits@D@std@@V?$allocator@D@2@@std@@6B@ 000000018007c890     DataCollector.obj
 0002:0001b8b8       ??_R3?$codecvt@DDU_Mbstatet@@@std@@8 000000018007c8b8     DataCollector.obj
 0002:0001b8d0       ??_R1A@?0A@EA@?$basic_filebuf@DU?$char_traits@D@std@@@std@@8 000000018007c8d0     DataCollector.obj
 0002:0001b8f8       ??_R1A@A@3FA@?$basic_ios@DU?$char_traits@D@std@@@std@@8 000000018007c8f8     DataCollector.obj
 0002:0001b920       ??_R3?$basic_filebuf@DU?$char_traits@D@std@@@std@@8 000000018007c920     DataCollector.obj
 0002:0001b938       ??_R4?$basic_streambuf@DU?$char_traits@D@std@@@std@@6B@ 000000018007c938     DataCollector.obj
 0002:0001b960       ??_R2ios_base@std@@8       000000018007c960     DataCollector.obj
 0002:0001b978       ??_R4?$codecvt@DDU_Mbstatet@@@std@@6B@ 000000018007c978     DataCollector.obj
 0002:0001b9a0       ??_R3?$basic_ostream@DU?$char_traits@D@std@@@std@@8 000000018007c9a0     DataCollector.obj
 0002:0001b9b8       ??_R3ios_base@std@@8       000000018007c9b8     DataCollector.obj
 0002:0001b9d0       ??_R2?$basic_filebuf@DU?$char_traits@D@std@@@std@@8 000000018007c9d0     DataCollector.obj
 0002:0001b9e8       ??_R3?$basic_streambuf@DU?$char_traits@D@std@@@std@@8 000000018007c9e8     DataCollector.obj
 0002:0001ba00       ??_R2?$_Iosb@H@std@@8      000000018007ca00     DataCollector.obj
 0002:0001ba10       ??_R1A@A@3EA@ios_base@std@@8 000000018007ca10     DataCollector.obj
 0002:0001ba38       ??_R1A@?0A@EA@?$basic_ios@DU?$char_traits@D@std@@@std@@8 000000018007ca38     DataCollector.obj
 0002:0001ba60       ??_R2?$basic_ifstream@DU?$char_traits@D@std@@@std@@8 000000018007ca60     DataCollector.obj
 0002:0001ba90       ??_R3?$_Iosb@H@std@@8      000000018007ca90     DataCollector.obj
 0002:0001baa8       ??_R17?0A@EA@?$_Iosb@H@std@@8 000000018007caa8     DataCollector.obj
 0002:0001bad0       ??_R4?$basic_istream@DU?$char_traits@D@std@@@std@@6B@ 000000018007cad0     DataCollector.obj
 0002:0001baf8       ??_R1A@?0A@EA@DataCollector@@8 000000018007caf8     DataCollector.obj
 0002:0001bb20       ??_R2?$basic_ios@DU?$char_traits@D@std@@@std@@8 000000018007cb20     DataCollector.obj
 0002:0001bb40       ??_R2?$basic_ostringstream@DU?$char_traits@D@std@@V?$allocator@D@2@@std@@8 000000018007cb40     DataCollector.obj
 0002:0001bb70       ??_R1A@?0A@EA@?$codecvt@DDU_Mbstatet@@@std@@8 000000018007cb70     DataCollector.obj
 0002:0001bb98       ??_R2DeviceProcessor@@8    000000018007cb98     DeviceProcessor.obj
 0002:0001bbb0       ??_R1A@?0A@EA@DeviceProcessor@@8 000000018007cbb0     DeviceProcessor.obj
 0002:0001bbd8       ??_R4DeviceProcessor@@6B@  000000018007cbd8     DeviceProcessor.obj
 0002:0001bc00       ??_R3DeviceProcessor@@8    000000018007cc00     DeviceProcessor.obj
 0002:0001bc18       ??_R4DrivenByMossSurface@@6B@ 000000018007cc18     DrivenByMossSurface.obj
 0002:0001bc40       ??_R1A@?0A@EA@OscParser@@8 000000018007cc40     DrivenByMossSurface.obj
 0002:0001bc68       ??_R2StopProcessor@@8      000000018007cc68     DrivenByMossSurface.obj
 0002:0001bc80       ??_R1A@?0A@EA@PlayProcessor@@8 000000018007cc80     DrivenByMossSurface.obj
 0002:0001bca8       ??_R2PlayProcessor@@8      000000018007cca8     DrivenByMossSurface.obj
 0002:0001bcc0       ??_R2OscParser@@8          000000018007ccc0     DrivenByMossSurface.obj
 0002:0001bcd0       ??_R3PlayProcessor@@8      000000018007ccd0     DrivenByMossSurface.obj
 0002:0001bce8       ??_R1A@?0A@EA@StopProcessor@@8 000000018007cce8     DrivenByMossSurface.obj
 0002:0001bd10       ??_R3DrivenByMossSurface@@8 000000018007cd10     DrivenByMossSurface.obj
 0002:0001bd28       ??_R4IReaperControlSurface@@6B@ 000000018007cd28     DrivenByMossSurface.obj
 0002:0001bd50       ??_R4OscParser@@6B@        000000018007cd50     DrivenByMossSurface.obj
 0002:0001bd78       ??_R3OscParser@@8          000000018007cd78     DrivenByMossSurface.obj
 0002:0001bd90       ??_R1A@?0A@EA@DrivenByMossSurface@@8 000000018007cd90     DrivenByMossSurface.obj
 0002:0001bdb8       ??_R3IReaperControlSurface@@8 000000018007cdb8     DrivenByMossSurface.obj
 0002:0001bdd0       ??_R4PlayProcessor@@6B@    000000018007cdd0     DrivenByMossSurface.obj
 0002:0001bdf8       ??_R1A@?0A@EA@IReaperControlSurface@@8 000000018007cdf8     DrivenByMossSurface.obj
 0002:0001be20       ??_R2DrivenByMossSurface@@8 000000018007ce20     DrivenByMossSurface.obj
 0002:0001be38       ??_R3StopProcessor@@8      000000018007ce38     DrivenByMossSurface.obj
 0002:0001be50       ??_R4StopProcessor@@6B@    000000018007ce50     DrivenByMossSurface.obj
 0002:0001be78       ??_R2IReaperControlSurface@@8 000000018007ce78     DrivenByMossSurface.obj
 0002:0001be88       ??_R2GrooveProcessor@@8    000000018007ce88     GrooveProcessor.obj
 0002:0001bea0       ??_R3GrooveProcessor@@8    000000018007cea0     GrooveProcessor.obj
 0002:0001beb8       ??_R1A@?0A@EA@GrooveProcessor@@8 000000018007ceb8     GrooveProcessor.obj
 0002:0001bee0       ??_R4GrooveProcessor@@6B@  000000018007cee0     GrooveProcessor.obj
 0002:0001bf08       ??_R3IniFileProcessor@@8   000000018007cf08     IniFileProcessor.obj
 0002:0001bf20       ??_R4IniFileProcessor@@6B@ 000000018007cf20     IniFileProcessor.obj
 0002:0001bf48       ??_R2IniFileProcessor@@8   000000018007cf48     IniFileProcessor.obj
 0002:0001bf60       ??_R1A@?0A@EA@IniFileProcessor@@8 000000018007cf60     IniFileProcessor.obj
 0002:0001bf88       ??_R3Marker@@8             000000018007cf88     Marker.obj
 0002:0001bfa0       ??_R4Marker@@6B@           000000018007cfa0     Marker.obj
 0002:0001bfc8       ??_R1A@?0A@EA@Marker@@8    000000018007cfc8     Marker.obj
 0002:0001bff0       ??_R2Marker@@8             000000018007cff0     Marker.obj
 0002:0001c000       ??_R2MarkerProcessor@@8    000000018007d000     MarkerProcessor.obj
 0002:0001c018       ??_R1A@?0A@EA@MarkerProcessor@@8 000000018007d018     MarkerProcessor.obj
 0002:0001c040       ??_R3MarkerProcessor@@8    000000018007d040     MarkerProcessor.obj
 0002:0001c058       ??_R4MarkerProcessor@@6B@  000000018007d058     MarkerProcessor.obj
 0002:0001c080       ??_R1A@?0A@EA@MastertrackProcessor@@8 000000018007d080     MastertrackProcessor.obj
 0002:0001c0a8       ??_R4MastertrackProcessor@@6B@ 000000018007d0a8     MastertrackProcessor.obj
 0002:0001c0d0       ??_R3MastertrackProcessor@@8 000000018007d0d0     MastertrackProcessor.obj
 0002:0001c0e8       ??_R2MastertrackProcessor@@8 000000018007d0e8     MastertrackProcessor.obj
 0002:0001c100       ??_R3?$_Ref_count_obj2@VTrack@@@std@@8 000000018007d100     Model.obj
 0002:0001c118       ??_R1A@?0A@EA@?$_Ref_count_obj2@VMarker@@@std@@8 000000018007d118     Model.obj
 0002:0001c140       ??_R3?$_Ref_count_obj2@VParameter@@@std@@8 000000018007d140     Model.obj
 0002:0001c158       ??_R1A@?0A@EA@?$_Ref_count_obj2@VTrack@@@std@@8 000000018007d158     Model.obj
 0002:0001c180       ??_R1A@?0A@EA@_Ref_count_base@std@@8 000000018007d180     Model.obj
 0002:0001c1a8       ??_R3?$_Ref_count_obj2@VMarker@@@std@@8 000000018007d1a8     Model.obj
 0002:0001c1c0       ??_R4?$_Ref_count_obj2@VTrack@@@std@@6B@ 000000018007d1c0     Model.obj
 0002:0001c1e8       ??_R4?$_Ref_count_obj2@VMarker@@@std@@6B@ 000000018007d1e8     Model.obj
 0002:0001c210       ??_R2?$_Ref_count_obj2@VParameter@@@std@@8 000000018007d210     Model.obj
 0002:0001c228       ??_R4?$_Ref_count_obj2@VParameter@@@std@@6B@ 000000018007d228     Model.obj
 0002:0001c250       ??_R2?$_Ref_count_obj2@VTrack@@@std@@8 000000018007d250     Model.obj
 0002:0001c268       ??_R1A@?0A@EA@?$_Ref_count_obj2@VParameter@@@std@@8 000000018007d268     Model.obj
 0002:0001c290       ??_R3_Ref_count_base@std@@8 000000018007d290     Model.obj
 0002:0001c2a8       ??_R2_Ref_count_base@std@@8 000000018007d2a8     Model.obj
 0002:0001c2b8       ??_R2?$_Ref_count_obj2@VMarker@@@std@@8 000000018007d2b8     Model.obj
 0002:0001c2d0       ??_R4NoteRepeatProcessor@@6B@ 000000018007d2d0     NoteRepeatProcessor.obj
 0002:0001c2f8       ??_R3NoteRepeatProcessor@@8 000000018007d2f8     NoteRepeatProcessor.obj
 0002:0001c310       ??_R2NoteRepeatProcessor@@8 000000018007d310     NoteRepeatProcessor.obj
 0002:0001c328       ??_R1A@?0A@EA@NoteRepeatProcessor@@8 000000018007d328     NoteRepeatProcessor.obj
 0002:0001c378       ??_R4RedoProcessor@@6B@    000000018007d378     OscParser.obj
 0002:0001c3a0       ??_R1A@?0A@EA@?$basic_istringstream@DU?$char_traits@D@std@@V?$allocator@D@2@@std@@8 000000018007d3a0     OscParser.obj
 0002:0001c3c8       ??_R3UndoProcessor@@8      000000018007d3c8     OscParser.obj
 0002:0001c3e0       ??_R2?$basic_istringstream@DU?$char_traits@D@std@@V?$allocator@D@2@@std@@8 000000018007d3e0     OscParser.obj
 0002:0001c410       ??_R4MetronomeVolumeProcessor@@6B@ 000000018007d410     OscParser.obj
 0002:0001c438       ??_R3RefreshProcessor@@8   000000018007d438     OscParser.obj
 0002:0001c450       ??_R1A@?0A@EA@RepeatProcessor@@8 000000018007d450     OscParser.obj
 0002:0001c478       ??_R1A@?0A@EA@TempoProcessor@@8 000000018007d478     OscParser.obj
 0002:0001c4d0       ??_R3RepeatProcessor@@8    000000018007d4d0     OscParser.obj
 0002:0001c560       ??_R3?$_Func_base@X$$V@std@@8 000000018007d560     OscParser.obj
 0002:0001c590       ??_R2TempoProcessor@@8     000000018007d590     OscParser.obj
 0002:0001c5a8       ??_R4RecordProcessor@@6B@  000000018007d5a8     OscParser.obj
 0002:0001c5d0       ??_R3MetronomeVolumeProcessor@@8 000000018007d5d0     OscParser.obj
 0002:0001c600       ??_R4TempoProcessor@@6B@   000000018007d600     OscParser.obj
 0002:0001c650       ??_R2RepeatProcessor@@8    000000018007d650     OscParser.obj
 0002:0001c668       ??_R1A@?0A@EA@RedoProcessor@@8 000000018007d668     OscParser.obj
 0002:0001c690       ??_R4RefreshProcessor@@6B@ 000000018007d690     OscParser.obj
 0002:0001c6b8       ??_R4RepeatProcessor@@6B@  000000018007d6b8     OscParser.obj
 0002:0001c6e0       ??_R3RedoProcessor@@8      000000018007d6e0     OscParser.obj
 0002:0001c720       ??_R3CursorProcessor@@8    000000018007d720     OscParser.obj
 0002:0001c738       ??_R1A@?0A@EA@CursorProcessor@@8 000000018007d738     OscParser.obj
 0002:0001c760       ??_R3TempoProcessor@@8     000000018007d760     OscParser.obj
 0002:0001c778       ??_R3?$basic_istringstream@DU?$char_traits@D@std@@V?$allocator@D@2@@std@@8 000000018007d778     OscParser.obj
 0002:0001c790       ??_R2RecordProcessor@@8    000000018007d790     OscParser.obj
 0002:0001c7a8       ??_R3TimeProcessor@@8      000000018007d7a8     OscParser.obj
 0002:0001c7d8       ??_R2UndoProcessor@@8      000000018007d7d8     OscParser.obj
 0002:0001c7f0       ??_R2RedoProcessor@@8      000000018007d7f0     OscParser.obj
 0002:0001c820       ??_R2MetronomeVolumeProcessor@@8 000000018007d820     OscParser.obj
 0002:0001c838       ??_R2RefreshProcessor@@8   000000018007d838     OscParser.obj
 0002:0001c850       ??_R2?$_Func_base@X$$V@std@@8 000000018007d850     OscParser.obj
 0002:0001c860       ??_R1A@?0A@EA@?$_Func_base@X$$V@std@@8 000000018007d860     OscParser.obj
 0002:0001c888       ??_R1A@?0A@EA@RefreshProcessor@@8 000000018007d888     OscParser.obj
 0002:0001c8b0       ??_R4UndoProcessor@@6B@    000000018007d8b0     OscParser.obj
 0002:0001c8f0       ??_R3QuantizeProcessor@@8  000000018007d8f0     OscParser.obj
 0002:0001c908       ??_R2TimeProcessor@@8      000000018007d908     OscParser.obj
 0002:0001c920       ??_R4TimeProcessor@@6B@    000000018007d920     OscParser.obj
 0002:0001c948       ??_R1A@?0A@EA@TimeProcessor@@8 000000018007d948     OscParser.obj
 0002:0001c970       ??_R4CursorProcessor@@6B@  000000018007d970     OscParser.obj
 0002:0001c9c0       ??_R1A@?0A@EA@QuantizeProcessor@@8 000000018007d9c0     OscParser.obj
 0002:0001c9e8       ??_R2QuantizeProcessor@@8  000000018007d9e8     OscParser.obj
 0002:0001ca00       ??_R4?$basic_istringstream@DU?$char_traits@D@std@@V?$allocator@D@2@@std@@6B@ 000000018007da00     OscParser.obj
 0002:0001ca50       ??_R1A@?0A@EA@UndoProcessor@@8 000000018007da50     OscParser.obj
 0002:0001ca78       ??_R3RecordProcessor@@8    000000018007da78     OscParser.obj
 0002:0001caa8       ??_R4QuantizeProcessor@@6B@ 000000018007daa8     OscParser.obj
 0002:0001cae8       ??_R1A@?0A@EA@RecordProcessor@@8 000000018007dae8     OscParser.obj
 0002:0001cb38       ??_R1A@?0A@EA@MetronomeVolumeProcessor@@8 000000018007db38     OscParser.obj
 0002:0001cba0       ??_R2CursorProcessor@@8    000000018007dba0     OscParser.obj
 0002:0001cbb8       ??_R1A@?0A@EA@ProjectProcessor@@8 000000018007dbb8     ProjectProcessor.obj
 0002:0001cbe0       ??_R4ProjectProcessor@@6B@ 000000018007dbe0     ProjectProcessor.obj
 0002:0001cc08       ??_R2ProjectProcessor@@8   000000018007dc08     ProjectProcessor.obj
 0002:0001cc20       ??_R3ProjectProcessor@@8   000000018007dc20     ProjectProcessor.obj
 0002:0001ccb8       ??_R2SceneProcessor@@8     000000018007dcb8     SceneProcessor.obj
 0002:0001ccd0       ??_R3SceneProcessor@@8     000000018007dcd0     SceneProcessor.obj
 0002:0001cce8       ??_R1A@?0A@EA@SceneProcessor@@8 000000018007dce8     SceneProcessor.obj
 0002:0001cd10       ??_R4SceneProcessor@@6B@   000000018007dd10     SceneProcessor.obj
 0002:0001cd38       ??_R1A@?0A@EA@Send@@8      000000018007dd38     Send.obj
 0002:0001cd60       ??_R2Send@@8               000000018007dd60     Send.obj
 0002:0001cd70       ??_R4Send@@6B@             000000018007dd70     Send.obj
 0002:0001cd98       ??_R3Send@@8               000000018007dd98     Send.obj
 0002:0001cdb0       ??_R1A@?0A@EA@TrackProcessor@@8 000000018007ddb0     TrackProcessor.obj
 0002:0001cdd8       ??_R4TrackProcessor@@6B@   000000018007ddd8     TrackProcessor.obj
 0002:0001ce00       ??_R2TrackProcessor@@8     000000018007de00     TrackProcessor.obj
 0002:0001ce18       ??_R3TrackProcessor@@8     000000018007de18     TrackProcessor.obj
 0002:0001ce2c       __volatile_metadata        000000018007de2c     <linker-defined>
 0002:0001d358       __rtc_iaa                  000000018007e358     LIBCMT:initsect.obj
 0002:0001d360       __rtc_izz                  000000018007e360     LIBCMT:initsect.obj
 0002:0001d368       __rtc_taa                  000000018007e368     LIBCMT:initsect.obj
 0002:0001d370       __rtc_tzz                  000000018007e370     LIBCMT:initsect.obj
 0002:00023e38       _TI2?AVbad_alloc@std@@     0000000180084e38     libcpmt:xthrow.obj
 0002:00023e58       _CTA2?AVbad_alloc@std@@    0000000180084e58     libcpmt:xthrow.obj
 0002:00023e70       _CT??_R0?AVlogic_error@std@@@8??0logic_error@std@@QEAA@AEBV01@@Z24 0000000180084e70     libcpmt:xthrow.obj
 0002:00023e98       _TI3?AVlength_error@std@@  0000000180084e98     libcpmt:xthrow.obj
 0002:00023eb8       _CTA3?AVlength_error@std@@ 0000000180084eb8     libcpmt:xthrow.obj
 0002:00023ed8       _CT??_R0?AVlength_error@std@@@8??0length_error@std@@QEAA@AEBV01@@Z24 0000000180084ed8     libcpmt:xthrow.obj
 0002:00023f00       _TI3?AVout_of_range@std@@  0000000180084f00     libcpmt:xthrow.obj
 0002:00023f20       _CTA3?AVout_of_range@std@@ 0000000180084f20     libcpmt:xthrow.obj
 0002:00023f40       _CT??_R0?AVout_of_range@std@@@8??0out_of_range@std@@QEAA@AEBV01@@Z24 0000000180084f40     libcpmt:xthrow.obj
 0002:00023f68       _TI2?AVruntime_error@std@@ 0000000180084f68     libcpmt:xthrow.obj
 0002:00023f88       _CTA2?AVruntime_error@std@@ 0000000180084f88     libcpmt:xthrow.obj
 0002:00023fa0       _TI2?AVbad_function_call@std@@ 0000000180084fa0     libcpmt:xthrow.obj
 0002:00023fc0       _CTA2?AVbad_function_call@std@@ 0000000180084fc0     libcpmt:xthrow.obj
 0002:00023fd8       _CT??_R0?AVbad_function_call@std@@@8??0bad_function_call@std@@QEAA@AEBV01@@Z24 0000000180084fd8     libcpmt:xthrow.obj
 0002:00024000       _TI3?AVregex_error@std@@   0000000180085000     libcpmt:xthrow.obj
 0002:00024020       _CTA3?AVregex_error@std@@  0000000180085020     libcpmt:xthrow.obj
 0002:00024040       _CT??_R0?AVregex_error@std@@@8??0regex_error@std@@QEAA@AEBV01@@Z32 0000000180085040     libcpmt:xthrow.obj
 0002:00024068       _TI4?AVsystem_error@std@@  0000000180085068     libcpmt:thread0.obj
 0002:00024088       _CTA4?AVsystem_error@std@@ 0000000180085088     libcpmt:thread0.obj
 0002:000240b0       _TI2?AVbad_exception@std@@ 00000001800850b0     libvcruntime:frame.obj
 0002:000240d0       _CTA2?AVbad_exception@std@@ 00000001800850d0     libvcruntime:frame.obj
 0002:000240e8       _CT??_R0?AVbad_exception@std@@@8??0bad_exception@std@@QEAA@AEBV01@@Z24 00000001800850e8     libvcruntime:frame.obj
 0002:00024110       _CTA3?AVbad_array_new_length@std@@ 0000000180085110     ActionProcessor.obj
 0002:00024130       _CTA2?AVbad_cast@std@@     0000000180085130     ActionProcessor.obj
 0002:00024148       _CT??_R0?AVsystem_error@std@@@8??0system_error@std@@QEAA@AEBV01@@Z40 0000000180085148     ActionProcessor.obj
 0002:00024170       _TI2?AVbad_cast@std@@      0000000180085170     ActionProcessor.obj
 0002:00024190       _TI5?AVfailure@ios_base@std@@ 0000000180085190     ActionProcessor.obj
 0002:000241b0       _CT??_R0?AVbad_array_new_length@std@@@8??0bad_array_new_length@std@@QEAA@AEBV01@@Z24 00000001800851b0     ActionProcessor.obj
 0002:000241d8       _CT??_R0?AVruntime_error@std@@@8??0runtime_error@std@@QEAA@AEBV01@@Z24 00000001800851d8     ActionProcessor.obj
 0002:00024200       _CT??_R0?AVbad_cast@std@@@8??0bad_cast@std@@QEAA@AEBV01@@Z24 0000000180085200     ActionProcessor.obj
 0002:00024228       _CT??_R0?AVbad_alloc@std@@@8??0bad_alloc@std@@QEAA@AEBV01@@Z24 0000000180085228     ActionProcessor.obj
 0002:00024250       _CT??_R0?AV_System_error@std@@@8??0_System_error@std@@QEAA@AEBV01@@Z40 0000000180085250     ActionProcessor.obj
 0002:00024278       _CTA5?AVfailure@ios_base@std@@ 0000000180085278     ActionProcessor.obj
 0002:000242a8       _CT??_R0?AVfailure@ios_base@std@@@8??0failure@ios_base@std@@QEAA@AEBV012@@Z40 00000001800852a8     ActionProcessor.obj
 0002:000242d0       _CT??_R0?AVexception@std@@@8??0exception@std@@QEAA@AEBV01@@Z24 00000001800852d0     ActionProcessor.obj
 0002:000242f8       _TI3?AVbad_array_new_length@std@@ 00000001800852f8     ActionProcessor.obj
 0002:0002437c       __IMPORT_DESCRIPTOR_KERNEL32 000000018008537c     kernel32:KERNEL32.dll
 0002:00024390       __IMPORT_DESCRIPTOR_USER32 0000000180085390     user32:USER32.dll
 0002:000243a4       __NULL_IMPORT_DESCRIPTOR   00000001800853a4     kernel32:KERNEL32.dll
 0003:00000004       ?_Sync@ios_base@std@@0_NA  0000000180086004     libcpmt:ios.obj
 0003:00000008       ?_Static@?1???$_Immortalize_memcpy_image@V_Generic_error_category@std@@@std@@YAAEBV_Generic_error_category@1@XZ@4V21@B 0000000180086008     libcpmt:thread0.obj
 0003:00000018       ?valid@?1???$_Xfiopen@D@std@@YAPEAU_iobuf@@PEBDHH@Z@4QBHB 0000000180086018     libcpmt:fiopen.obj
 0003:00000060       __scrt_native_dllmain_reason 0000000180086060     LIBCMT:utility.obj
 0003:00000068       __security_cookie_complement 0000000180086068     LIBCMT:gs_cookie.obj
 0003:00000070       __security_cookie          0000000180086070     LIBCMT:gs_cookie.obj
 0003:00000080       _fltused                   0000000180086080     LIBCMT:fltused.obj
 0003:00000088       __isa_available            0000000180086088     LIBCMT:cpu_disp.obj
 0003:0000008c       __isa_enabled              000000018008608c     LIBCMT:cpu_disp.obj
 0003:00000090       __memcpy_nt_iters          0000000180086090     LIBCMT:cpu_disp.obj
 0003:00000098       __memset_nt_iters          0000000180086098     LIBCMT:cpu_disp.obj
 0003:000000b0       __acrt_lconv_c             00000001800860b0     libucrt:localeconv.obj
 0003:00000148       __acrt_lconv               0000000180086148     libucrt:localeconv.obj
 0003:00000150       __acrt_lconv_static_decimal 0000000180086150     libucrt:localeconv.obj
 0003:00000154       __acrt_lconv_static_W_decimal 0000000180086154     libucrt:localeconv.obj
 0003:00000160       _iob                       0000000180086160     libucrt:_file.obj
 0003:00000268       _pctype                    0000000180086268     libucrt:ctype.obj
 0003:00000270       _pwctype                   0000000180086270     libucrt:ctype.obj
 0003:00000280       __abort_behavior           0000000180086280     libucrt:abort.obj
 0003:000002a0       __acrt_initial_locale_data 00000001800862a0     libucrt:nlsdata.obj
 0003:000003f8       __acrt_initial_locale_pointers 00000001800863f8     libucrt:nlsdata.obj
 0003:00000408       __acrt_wide_c_locale_string 0000000180086408     libucrt:nlsdata.obj
 0003:0000040c       __mb_cur_max               000000018008640c     libucrt:nlsdata.obj
 0003:00000410       __badioinfo                0000000180086410     libucrt:ioinit.obj
 0003:00000460       _lookuptrailbytes          0000000180086460     libucrt:read.obj
 0003:00000560       __globallocalestatus       0000000180086560     libucrt:glstatus.obj
 0003:00000710       __acrt_initial_multibyte_data 0000000180086710     libucrt:mbctype.obj
 0003:00000c60       ?_Static@?1???$_Immortalize_memcpy_image@V_Iostream_error_category2@std@@@std@@YAAEBV_Iostream_error_category2@1@XZ@4U?$_Constexpr_immortalize_impl@V_Iostream_error_category2@std@@@1@A 0000000180086c60     ActionProcessor.obj
 0003:00000c70       ?openDBMProjectWindowAccel@@3Ugaccel_register_t@@A 0000000180086c70     dllmain.obj
 0003:00000c80       ?pcreg@@3Uproject_config_extension_t@@A 0000000180086c80     dllmain.obj
 0003:00000ca0       ?openDBMConfigureWindowAccel@@3Ugaccel_register_t@@A 0000000180086ca0     dllmain.obj
 0003:00000cd0       ??_R0?AVlogic_error@std@@@8 0000000180086cd0     libcpmt:xthrow.obj
 0003:00000cf8       ??_R0?AVlength_error@std@@@8 0000000180086cf8     libcpmt:xthrow.obj
 0003:00000d20       ??_R0?AVbad_function_call@std@@@8 0000000180086d20     libcpmt:xthrow.obj
 0003:00000d50       ??_R0?AVregex_error@std@@@8 0000000180086d50     libcpmt:xthrow.obj
 0003:00000d78       ??_R0?AVbad_exception@std@@@8 0000000180086d78     libvcruntime:frame.obj
 0003:00000da0       ??_R0?AVfailure@ios_base@std@@@8 0000000180086da0     ActionProcessor.obj
 0003:00000dd0       ??_R0?AVruntime_error@std@@@8 0000000180086dd0     ActionProcessor.obj
 0003:00000df8       ??_R0?AVbad_alloc@std@@@8  0000000180086df8     ActionProcessor.obj
 0003:00000e20       ??_R0?AVsystem_error@std@@@8 0000000180086e20     ActionProcessor.obj
 0003:00000e48       ??_R0?AVbad_cast@std@@@8   0000000180086e48     ActionProcessor.obj
 0003:00000e70       ??_R0?AV_System_error@std@@@8 0000000180086e70     ActionProcessor.obj
 0003:00000e98       ??_R0?AVexception@std@@@8  0000000180086e98     ActionProcessor.obj
 0003:00000ec0       ??_R0?AVbad_array_new_length@std@@@8 0000000180086ec0     ActionProcessor.obj
 0003:00000ef0       ??_R0?AVout_of_range@std@@@8 0000000180086ef0     DataCollector.obj
 0003:00000f20       ??_R0?AV?$basic_string@DU?$char_traits@D@std@@V?$allocator@D@2@@std@@@8 0000000180086f20     Model.obj
 0003:00001100       ??_R0?AV_Locimp@locale@std@@@8 0000000180087100     libcpmt:locale0.obj
 0003:00001130       ??_R0?AV_Generic_error_category@std@@@8 0000000180087130     libcpmt:thread0.obj
 0003:00001170       ??_R0?AVstl_critical_section_interface@details@Concurrency@@@8 0000000180087170     libcpmt:mutex.obj
 0003:000011c0       ??_R0?AVstl_critical_section_vista@details@Concurrency@@@8 00000001800871c0     libcpmt:mutex.obj
 0003:00001210       ??_R0?AVstl_critical_section_win7@details@Concurrency@@@8 0000000180087210     libcpmt:mutex.obj
 0003:00001258       ??_R0?AVtype_info@@@8      0000000180087258     LIBCMT:std_type_info_static.obj
 0003:00001278       ??_R0?AV_Node_if@std@@@8   0000000180087278     ActionProcessor.obj
 0003:000012a0       ??_R0?AV?$collate@D@std@@@8 00000001800872a0     ActionProcessor.obj
 0003:000012c8       ??_R0?AVActionProcessor@@@8 00000001800872c8     ActionProcessor.obj
 0003:000012f0       ??_R0?AV?$_Node_str@D@std@@@8 00000001800872f0     ActionProcessor.obj
 0003:00001318       ??_R0?AVerror_category@std@@@8 0000000180087318     ActionProcessor.obj
 0003:00001348       ??_R0?AV?$ctype@D@std@@@8  0000000180087348     ActionProcessor.obj
 0003:00001370       ??_R0?AV_Node_end_rep@std@@@8 0000000180087370     ActionProcessor.obj
 0003:00001398       ??_R0?AV_Node_end_group@std@@@8 0000000180087398     ActionProcessor.obj
 0003:000013c8       ??_R0?AV_Node_back@std@@@8 00000001800873c8     ActionProcessor.obj
 0003:000013f0       ??_R0?AV_Facet_base@std@@@8 00000001800873f0     ActionProcessor.obj
 0003:00001418       ??_R0?AVOscProcessor@@@8   0000000180087418     ActionProcessor.obj
 0003:00001440       ??_R0?AU_Crt_new_delete@std@@@8 0000000180087440     ActionProcessor.obj
 0003:00001470       ??_R0?AV_Iostream_error_category2@std@@@8 0000000180087470     ActionProcessor.obj
 0003:000014a8       ??_R0?AV?$numpunct@D@std@@@8 00000001800874a8     ActionProcessor.obj
 0003:000014d0       ??_R0?AV_Node_base@std@@@8 00000001800874d0     ActionProcessor.obj
 0003:000014f8       ??_R0?AUctype_base@std@@@8 00000001800874f8     ActionProcessor.obj
 0003:00001520       ??_R0?AV_Root_node@std@@@8 0000000180087520     ActionProcessor.obj
 0003:00001548       ??_R0?AVfacet@locale@std@@@8 0000000180087548     ActionProcessor.obj
 0003:00001570       ??_R0?AV_Node_assert@std@@@8 0000000180087570     ActionProcessor.obj
 0003:00001598       ??_R0?AV_Node_rep@std@@@8  0000000180087598     ActionProcessor.obj
 0003:000015c0       ??_R0?AV?$_Node_class@DV?$regex_traits@D@std@@@std@@@8 00000001800875c0     ActionProcessor.obj
 0003:00001608       ??_R0?AV_Node_capture@std@@@8 0000000180087608     ActionProcessor.obj
 0003:00001630       ??_R0?AV_Node_endif@std@@@8 0000000180087630     ActionProcessor.obj
 0003:00001660       ??_R0?AV?$num_put@DV?$ostreambuf_iterator@DU?$char_traits@D@std@@@std@@@std@@@8 0000000180087660     ActionProcessor.obj
 0003:000016c0       ??_R0?AVClipProcessor@@@8  00000001800876c0     ClipProcessor.obj
 0003:000016f0       ??_R0?AV?$basic_filebuf@DU?$char_traits@D@std@@@std@@@8 00000001800876f0     DataCollector.obj
 0003:00001738       ??_R0?AV?$codecvt@DDU_Mbstatet@@@std@@@8 0000000180087738     DataCollector.obj
 0003:00001770       ??_R0?AV?$basic_ifstream@DU?$char_traits@D@std@@@std@@@8 0000000180087770     DataCollector.obj
 0003:000017c0       ??_R0?AV?$basic_stringbuf@DU?$char_traits@D@std@@V?$allocator@D@2@@std@@@8 00000001800877c0     DataCollector.obj
 0003:00001818       ??_R0?AVios_base@std@@@8   0000000180087818     DataCollector.obj
 0003:00001840       ??_R0?AVcodecvt_base@std@@@8 0000000180087840     DataCollector.obj
 0003:00001868       ??_R0?AV?$_Iosb@H@std@@@8  0000000180087868     DataCollector.obj
 0003:00001890       ??_R0?AV?$basic_streambuf@DU?$char_traits@D@std@@@std@@@8 0000000180087890     DataCollector.obj
 0003:000018e0       ??_R0?AV?$basic_ostringstream@DU?$char_traits@D@std@@V?$allocator@D@2@@std@@@8 00000001800878e0     DataCollector.obj
 0003:00001940       ??_R0?AV?$basic_istream@DU?$char_traits@D@std@@@std@@@8 0000000180087940     DataCollector.obj
 0003:00001988       ??_R0?AV?$basic_ios@DU?$char_traits@D@std@@@std@@@8 0000000180087988     DataCollector.obj
 0003:000019c8       ??_R0?AVDataCollector@@@8  00000001800879c8     DataCollector.obj
 0003:000019f0       ??_R0?AV?$basic_ostream@DU?$char_traits@D@std@@@std@@@8 00000001800879f0     DataCollector.obj
 0003:00001a38       ??_R0?AVDeviceProcessor@@@8 0000000180087a38     DeviceProcessor.obj
 0003:00001a60       ??_R0?AVIReaperControlSurface@@@8 0000000180087a60     DrivenByMossSurface.obj
 0003:00001a90       ??_R0?AVDrivenByMossSurface@@@8 0000000180087a90     DrivenByMossSurface.obj
 0003:00001ac0       ??_R0?AVPlayProcessor@@@8  0000000180087ac0     DrivenByMossSurface.obj
 0003:00001ae8       ??_R0?AVStopProcessor@@@8  0000000180087ae8     DrivenByMossSurface.obj
 0003:00001b10       ??_R0?AVOscParser@@@8      0000000180087b10     DrivenByMossSurface.obj
 0003:00001b30       ??_R0?AVGrooveProcessor@@@8 0000000180087b30     GrooveProcessor.obj
 0003:00001b58       ??_R0?AVIniFileProcessor@@@8 0000000180087b58     IniFileProcessor.obj
 0003:00001b80       ??_R0?AVMarker@@@8         0000000180087b80     Marker.obj
 0003:00001ba0       ??_R0?AVMarkerProcessor@@@8 0000000180087ba0     MarkerProcessor.obj
 0003:00001bc8       ??_R0?AVMastertrackProcessor@@@8 0000000180087bc8     MastertrackProcessor.obj
 0003:00001bf8       ??_R0?AV?$_Ref_count_obj2@VParameter@@@std@@@8 0000000180087bf8     Model.obj
 0003:00001c38       ??_R0?AV?$_Ref_count_obj2@VTrack@@@std@@@8 0000000180087c38     Model.obj
 0003:00001c70       ??_R0?AV_Ref_count_base@std@@@8 0000000180087c70     Model.obj
 0003:00001ca0       ??_R0?AV?$_Ref_count_obj2@VMarker@@@std@@@8 0000000180087ca0     Model.obj
 0003:00001cd8       ??_R0?AVNoteRepeatProcessor@@@8 0000000180087cd8     NoteRepeatProcessor.obj
 0003:00001d08       ??_R0?AVQuantizeProcessor@@@8 0000000180087d08     OscParser.obj
 0003:00001e08       ??_R0?AVUndoProcessor@@@8  0000000180087e08     OscParser.obj
 0003:00001e30       ??_R0?AVRecordProcessor@@@8 0000000180087e30     OscParser.obj
 0003:00001e58       ??_R0?AVRepeatProcessor@@@8 0000000180087e58     OscParser.obj
 0003:00001e80       ??_R0?AVRedoProcessor@@@8  0000000180087e80     OscParser.obj
 0003:00001ea8       ??_R0?AVRefreshProcessor@@@8 0000000180087ea8     OscParser.obj
 0003:00001ed0       ??_R0?AV?$_Func_base@X$$V@std@@@8 0000000180087ed0     OscParser.obj
 0003:00001f00       ??_R0?AV?$basic_istringstream@DU?$char_traits@D@std@@V?$allocator@D@2@@std@@@8 0000000180087f00     OscParser.obj
 0003:00002038       ??_R0?AVTempoProcessor@@@8 0000000180088038     OscParser.obj
 0003:00002060       ??_R0?AVCursorProcessor@@@8 0000000180088060     OscParser.obj
 0003:00002088       ??_R0?AVTimeProcessor@@@8  0000000180088088     OscParser.obj
 0003:000020b0       ??_R0?AVMetronomeVolumeProcessor@@@8 00000001800880b0     OscParser.obj
 0003:00002148       ??_R0?AVProjectProcessor@@@8 0000000180088148     ProjectProcessor.obj
 0003:000021d8       ??_R0?AVSceneProcessor@@@8 00000001800881d8     SceneProcessor.obj
 0003:00002200       ??_R0?AVSend@@@8           0000000180088200     Send.obj
 0003:00002220       ??_R0?AVTrackProcessor@@@8 0000000180088220     TrackProcessor.obj
 0003:000023a0       ?_Id_cnt@id@locale@std@@0HA 00000001800883a0     libcpmt:locale0.obj
 0003:000023a8       ?_Clocptr@_Locimp@locale@std@@0PEAV123@EA 00000001800883a8     libcpmt:locale0.obj
 0003:000023b0       ?id@?$ctype@_W@std@@2V0locale@2@A 00000001800883b0     libcpmt:locale0.obj
 0003:000023b8       ?id@?$ctype@D@std@@2V0locale@2@A 00000001800883b8     libcpmt:locale0.obj
 0003:000023c0       ?id@?$codecvt@GDU_Mbstatet@@@std@@2V0locale@2@A 00000001800883c0     libcpmt:locale0.obj
 0003:000023c8       ?id@?$ctype@G@std@@2V0locale@2@A 00000001800883c8     libcpmt:locale0.obj
 0003:000023e0       ?id@?$codecvt@_WDU_Mbstatet@@@std@@2V0locale@2@A 00000001800883e0     libcpmt:locale0.obj
 0003:00002410       ?_Index@ios_base@std@@0HA  0000000180088410     libcpmt:ios.obj
 0003:0000247c       ?__stl_sync_api_impl_mode@@3W4__stl_sync_api_modes_enum@@A 000000018008847c     libcpmt:mutex.obj
 0003:00002488       ?id@?$num_get@DV?$istreambuf_iterator@DU?$char_traits@D@std@@@std@@@std@@2V0locale@2@A 0000000180088488     libcpmt:locale.obj
 0003:00002490       ?_Ptr_cin@std@@3PEAV?$basic_istream@DU?$char_traits@D@std@@@1@EA 0000000180088490     libcpmt:iosptrs.obj
 0003:00002498       ?_Ptr_cout@std@@3PEAV?$basic_ostream@DU?$char_traits@D@std@@@1@EA 0000000180088498     libcpmt:iosptrs.obj
 0003:000024a0       ?_Ptr_cerr@std@@3PEAV?$basic_ostream@DU?$char_traits@D@std@@@1@EA 00000001800884a0     libcpmt:iosptrs.obj
 0003:000024a8       ?_Ptr_clog@std@@3PEAV?$basic_ostream@DU?$char_traits@D@std@@@1@EA 00000001800884a8     libcpmt:iosptrs.obj
 0003:000024b0       ?_Ptr_wcin@std@@3PEAV?$basic_istream@_WU?$char_traits@_W@std@@@1@EA 00000001800884b0     libcpmt:iosptrs.obj
 0003:000024b8       ?_Ptr_wcout@std@@3PEAV?$basic_ostream@_WU?$char_traits@_W@std@@@1@EA 00000001800884b8     libcpmt:iosptrs.obj
 0003:000024c0       ?_Ptr_wcerr@std@@3PEAV?$basic_ostream@_WU?$char_traits@_W@std@@@1@EA 00000001800884c0     libcpmt:iosptrs.obj
 0003:000024c8       ?_Ptr_wclog@std@@3PEAV?$basic_ostream@_WU?$char_traits@_W@std@@@1@EA 00000001800884c8     libcpmt:iosptrs.obj
 0003:00002530       __KERNEL32Functions        0000000180088530     libcpmt:winapisupp.obj
 0003:00002670       ?id@?$time_put@_WV?$ostreambuf_iterator@_WU?$char_traits@_W@std@@@std@@@std@@2V0locale@2@A 0000000180088670     libcpmt:wlocale.obj
 0003:00002678       ?id@?$num_get@_WV?$istreambuf_iterator@_WU?$char_traits@_W@std@@@std@@@std@@2V0locale@2@A 0000000180088678     libcpmt:wlocale.obj
 0003:00002680       ?id@?$num_put@_WV?$ostreambuf_iterator@_WU?$char_traits@_W@std@@@std@@@std@@2V0locale@2@A 0000000180088680     libcpmt:wlocale.obj
 0003:00002688       ?id@?$numpunct@_W@std@@2V0locale@2@A 0000000180088688     libcpmt:wlocale.obj
 0003:00002690       ?id@?$collate@_W@std@@2V0locale@2@A 0000000180088690     libcpmt:wlocale.obj
 0003:00002698       ?id@?$messages@_W@std@@2V0locale@2@A 0000000180088698     libcpmt:wlocale.obj
 0003:000026a0       ?id@?$money_get@_WV?$istreambuf_iterator@_WU?$char_traits@_W@std@@@std@@@std@@2V0locale@2@A 00000001800886a0     libcpmt:wlocale.obj
 0003:000026a8       ?id@?$money_put@_WV?$ostreambuf_iterator@_WU?$char_traits@_W@std@@@std@@@std@@2V0locale@2@A 00000001800886a8     libcpmt:wlocale.obj
 0003:000026b0       ?id@?$moneypunct@_W$0A@@std@@2V0locale@2@A 00000001800886b0     libcpmt:wlocale.obj
 0003:000026b8       ?id@?$moneypunct@_W$00@std@@2V0locale@2@A 00000001800886b8     libcpmt:wlocale.obj
 0003:000026c0       ?id@?$time_get@_WV?$istreambuf_iterator@_WU?$char_traits@_W@std@@@std@@@std@@2V0locale@2@A 00000001800886c0     libcpmt:wlocale.obj
 0003:000026c8       ?id@?$num_get@GV?$istreambuf_iterator@GU?$char_traits@G@std@@@std@@@std@@2V0locale@2@A 00000001800886c8     libcpmt:wlocale.obj
 0003:000026d0       ?id@?$num_put@GV?$ostreambuf_iterator@GU?$char_traits@G@std@@@std@@@std@@2V0locale@2@A 00000001800886d0     libcpmt:wlocale.obj
 0003:000026d8       ?id@?$numpunct@G@std@@2V0locale@2@A 00000001800886d8     libcpmt:wlocale.obj
 0003:000026e0       ?id@?$collate@G@std@@2V0locale@2@A 00000001800886e0     libcpmt:wlocale.obj
 0003:000026e8       ?id@?$messages@G@std@@2V0locale@2@A 00000001800886e8     libcpmt:wlocale.obj
 0003:000026f0       ?id@?$money_get@GV?$istreambuf_iterator@GU?$char_traits@G@std@@@std@@@std@@2V0locale@2@A 00000001800886f0     libcpmt:wlocale.obj
 0003:000026f8       ?id@?$money_put@GV?$ostreambuf_iterator@GU?$char_traits@G@std@@@std@@@std@@2V0locale@2@A 00000001800886f8     libcpmt:wlocale.obj
 0003:00002700       ?id@?$moneypunct@G$0A@@std@@2V0locale@2@A 0000000180088700     libcpmt:wlocale.obj
 0003:00002708       ?id@?$moneypunct@G$00@std@@2V0locale@2@A 0000000180088708     libcpmt:wlocale.obj
 0003:00002710       ?id@?$time_get@GV?$istreambuf_iterator@GU?$char_traits@G@std@@@std@@@std@@2V0locale@2@A 0000000180088710     libcpmt:wlocale.obj
 0003:00002718       ?id@?$time_put@GV?$ostreambuf_iterator@GU?$char_traits@G@std@@@std@@@std@@2V0locale@2@A 0000000180088718     libcpmt:wlocale.obj
 0003:00002720       ?id@?$messages@D@std@@2V0locale@2@A 0000000180088720     libcpmt:xlocale.obj
 0003:00002728       ?id@?$money_get@DV?$istreambuf_iterator@DU?$char_traits@D@std@@@std@@@std@@2V0locale@2@A 0000000180088728     libcpmt:xlocale.obj
 0003:00002730       ?id@?$money_put@DV?$ostreambuf_iterator@DU?$char_traits@D@std@@@std@@@std@@2V0locale@2@A 0000000180088730     libcpmt:xlocale.obj
 0003:00002738       ?id@?$moneypunct@D$0A@@std@@2V0locale@2@A 0000000180088738     libcpmt:xlocale.obj
 0003:00002740       ?id@?$moneypunct@D$00@std@@2V0locale@2@A 0000000180088740     libcpmt:xlocale.obj
 0003:00002748       ?id@?$time_get@DV?$istreambuf_iterator@DU?$char_traits@D@std@@@std@@@std@@2V0locale@2@A 0000000180088748     libcpmt:xlocale.obj
 0003:00002750       ?id@?$time_put@DV?$ostreambuf_iterator@DU?$char_traits@D@std@@@std@@@std@@2V0locale@2@A 0000000180088750     libcpmt:xlocale.obj
 0003:00002758       __scrt_current_native_startup_state 0000000180088758     LIBCMT:utility.obj
 0003:00002760       __scrt_native_startup_lock 0000000180088760     LIBCMT:utility.obj
 0003:000027a8       __castguard_check_failure_os_handled_fptr 00000001800887a8     LIBCMT:guard_support.obj
 0003:00002d20       __favor                    0000000180088d20     LIBCMT:cpu_disp.obj
 0003:00002d24       __scrt_debugger_hook_flag  0000000180088d24     LIBCMT:utility_desktop.obj
 0003:00002d30       ?__type_info_root_node@@3U__type_info_node@@A 0000000180088d30     LIBCMT:tncleanup.obj
 0003:00002d40       ?_OptionsStorage@?1??__local_stdio_scanf_options@@9@4_KA 0000000180088d40     LIBCMT:default_local_stdio_options.obj
 0003:00002d48       ?__WinRTOutOfMemoryExceptionCallback@@3P6APEAXXZEA 0000000180088d48     libvcruntime:ehhelpers.obj
 0003:00002dd0       __pPurecall                0000000180088dd0     libvcruntime:purevirt_data.obj
 0003:00002e08       ?pArgList@UnDecorator@@0PEAVReplicator@@EA 0000000180088e08     libvcruntime:undname.obj
 0003:00002e10       ?pZNameList@UnDecorator@@0PEAVReplicator@@EA 0000000180088e10     libvcruntime:undname.obj
 0003:00002e18       ?pTemplateArgList@UnDecorator@@0PEAVReplicator@@EA 0000000180088e18     libvcruntime:undname.obj
 0003:00002e20       ?gName@UnDecorator@@0PEBDEB 0000000180088e20     libvcruntime:undname.obj
 0003:00002e28       ?name@UnDecorator@@0PEBDEB 0000000180088e28     libvcruntime:undname.obj
 0003:00002e30       ?disableFlags@UnDecorator@@0KA 0000000180088e30     libvcruntime:undname.obj
 0003:00002e34       ?fExplicitTemplateParams@UnDecorator@@0_NA 0000000180088e34     libvcruntime:undname.obj
 0003:00002e35       ?fGetTemplateArgumentList@UnDecorator@@0_NA 0000000180088e35     libvcruntime:undname.obj
 0003:00002e38       ?m_pGetParameter@UnDecorator@@0P6APEADJ@ZEA 0000000180088e38     libvcruntime:undname.obj
 0003:00002e40       ?m_CHPENameOffset@UnDecorator@@0KA 0000000180088e40     libvcruntime:undname.obj
 0003:00002e44       ?m_recursionLevel@UnDecorator@@0KA 0000000180088e44     libvcruntime:undname.obj
 0003:00002eb0       __acrt_lconv_static_null   0000000180088eb0     libucrt:localeconv.obj
 0003:00002eb4       __acrt_lconv_static_W_null 0000000180088eb4     libucrt:localeconv.obj
 0003:00002ec0       _nstream                   0000000180088ec0     libucrt:_file.obj
 0003:00002ec8       __piob                     0000000180088ec8     libucrt:_file.obj
 0003:00002ed0       _cflush                    0000000180088ed0     libucrt:_file.obj
 0003:00003130       ?c_exit_complete@?1???R<lambda_6e4b09c48022b2350581041d5f6b0c4c>@@QEBA@XZ@4_NA 0000000180089130     libucrt:exit.obj
 0003:00003248       _environ_table             0000000180089248     libucrt:environment_initialization.obj
 0003:00003250       _wenviron_table            0000000180089250     libucrt:environment_initialization.obj
 0003:00003258       __dcrt_initial_wide_environment 0000000180089258     libucrt:environment_initialization.obj
 0003:00003260       __dcrt_initial_narrow_environment 0000000180089260     libucrt:environment_initialization.obj
 0003:00003268       __acrt_atexit_table        0000000180089268     libucrt:onexit.obj
 0003:00003280       __acrt_at_quick_exit_table 0000000180089280     libucrt:onexit.obj
 0003:000032a8       __acrt_stdout_buffer       00000001800892a8     libucrt:_sftbuf.obj
 0003:000032b0       __acrt_stderr_buffer       00000001800892b0     libucrt:_sftbuf.obj
 0003:000032b8       __acrt_locale_changed_data 00000001800892b8     libucrt:wsetlocale.obj
 0003:000032c0       __acrt_current_locale_data 00000001800892c0     libucrt:nlsdata.obj
 0003:000032d0       __pioinfo                  00000001800892d0     libucrt:ioinit.obj
 0003:000036d0       _nhandle                   00000001800896d0     libucrt:ioinit.obj
 0003:000038b8       __fma3_is_available        00000001800898b8     libucrt:fma3_available.obj
 0003:000038bc       __use_fma3_lib             00000001800898bc     libucrt:fma3_available.obj
 0003:000038c0       ?_timezone@@3V?$dual_state_global@J@__crt_state_management@@A 00000001800898c0     libucrt:timeset.obj
 0003:000038c4       ?_daylight@@3V?$dual_state_global@H@__crt_state_management@@A 00000001800898c4     libucrt:timeset.obj
 0003:000038c8       ?_dstbias@@3V?$dual_state_global@J@__crt_state_management@@A 00000001800898c8     libucrt:timeset.obj
 0003:000039a0       _mbctype                   00000001800899a0     libucrt:mbctype.obj
 0003:000039a8       _mbcasemap                 00000001800899a8     libucrt:mbctype.obj
 0003:000039b0       __acrt_current_multibyte_data 00000001800899b0     libucrt:mbctype.obj
 0003:000039c0       _pgmptr                    00000001800899c0     libucrt:argv_data.obj
 0003:000039c8       __argc                     00000001800899c8     libucrt:argv_data.obj
 0003:000039d0       __argv                     00000001800899d0     libucrt:argv_data.obj
 0003:000039d8       __wargv                    00000001800899d8     libucrt:argv_data.obj
 0003:000039e0       _acmdln                    00000001800899e0     libucrt:argv_data.obj
 0003:000039e8       _wcmdln                    00000001800899e8     libucrt:argv_data.obj
 0003:000039f0       __acrt_heap                00000001800899f0     libucrt:heap_handle.obj
 0003:00003a04       _commode                   0000000180089a04     libucrt:ncommode.obj
 0003:00003a20       _umaskval                  0000000180089a20     libucrt:umask.obj
 0003:00003a24       _fmode                     0000000180089a24     libucrt:txtmode.obj
 0003:00003a28       ?_OptionsStorage@?1??__local_stdio_printf_options@@9@4_KA 0000000180089a28     ActionProcessor.obj
 0003:00003a30       ?_Psave@?$_Facetptr@V?$numpunct@D@std@@@std@@2PEBVfacet@locale@2@EB 0000000180089a30     ActionProcessor.obj
 0003:00003a38       ?_Psave@?$_Facetptr@V?$collate@D@std@@@std@@2PEBVfacet@locale@2@EB 0000000180089a38     ActionProcessor.obj
 0003:00003a40       ?_Psave@?$_Facetptr@V?$num_put@DV?$ostreambuf_iterator@DU?$char_traits@D@std@@@std@@@std@@@std@@2PEBVfacet@locale@2@EB 0000000180089a40     ActionProcessor.obj
 0003:00003a48       ?_Psave@?$_Facetptr@V?$ctype@D@std@@@std@@2PEBVfacet@locale@2@EB 0000000180089a48     ActionProcessor.obj
 0003:00003a50       ?_Stinit@?1??_Init@?$basic_filebuf@DU?$char_traits@D@std@@@std@@IEAAXPEAU_iobuf@@W4_Initfl@23@@Z@4U_Mbstatet@@A 0000000180089a50     DataCollector.obj
 0003:00003a58       ?_Psave@?$_Facetptr@V?$codecvt@DDU_Mbstatet@@@std@@@std@@2PEBVfacet@locale@2@EB 0000000180089a58     DataCollector.obj
 0003:00003a60       ?Undo_DoRedo2@@3P6AHPEAVReaProject@@@ZEA 0000000180089a60     dllmain.obj
 0003:00003a68       ?mkpanstr@@3P6AXPEADN@ZEA  0000000180089a68     dllmain.obj
 0003:00003a70       ?MIDIEditor_SetSetting_int@@3P6A_NPEAUHWND__@@PEBDH@ZEA 0000000180089a70     dllmain.obj
 0003:00003a78       ?MIDI_SetEvt@@3P6A_NPEAVMediaItem_Take@@HPEB_N1PEBNPEBDH1@ZEA 0000000180089a78     dllmain.obj
 0003:00003a80       ?CreateTrackAudioAccessor@@3P6APEAVAudioAccessor@@PEAVMediaTrack@@@ZEA 0000000180089a80     dllmain.obj
 0003:00003a88       ?CountSelectedTracks2@@3P6AHPEAVReaProject@@_N@ZEA 0000000180089a88     dllmain.obj
 0003:00003a90       ?GetMediaItemTake_Item@@3P6APEAVMediaItem@@PEAVMediaItem_Take@@@ZEA 0000000180089a90     dllmain.obj
 0003:00003a98       ?GetMediaSourceType@@3P6AXPEAVPCM_source@@PEADH@ZEA 0000000180089a98     dllmain.obj
 0003:00003aa0       ?PCM_Source_CreateFromType@@3P6APEAVPCM_source@@PEBD@ZEA 0000000180089aa0     dllmain.obj
 0003:00003aa8       ?GetPlayPosition2Ex@@3P6ANPEAVReaProject@@@ZEA 0000000180089aa8     dllmain.obj
 0003:00003ab0       ?GetDisplayedMediaItemColor2@@3P6AHPEAVMediaItem@@PEAVMediaItem_Take@@@ZEA 0000000180089ab0     dllmain.obj
 0003:00003ab8       ?parsepanstr@@3P6ANPEBD@ZEA 0000000180089ab8     dllmain.obj
 0003:00003ac0       ?ClearAllRecArmed@@3P6AXXZEA 0000000180089ac0     dllmain.obj
 0003:00003ac8       ?LICE_ClipLine@@3P6A_NPEAH000HHHH@ZEA 0000000180089ac8     dllmain.obj
 0003:00003ad0       ?Resample_EnumModes@@3P6APEBDH@ZEA 0000000180089ad0     dllmain.obj
 0003:00003ad8       ?SetMasterTrackVisibility@@3P6AHH@ZEA 0000000180089ad8     dllmain.obj
 0003:00003ae0       ?GetNumAudioOutputs@@3P6AHXZEA 0000000180089ae0     dllmain.obj
 0003:00003ae8       ?SetAutomationMode@@3P6AXH_N@ZEA 0000000180089ae8     dllmain.obj
 0003:00003af0       ?GetTrackDepth@@3P6AHPEAVMediaTrack@@@ZEA 0000000180089af0     dllmain.obj
 0003:00003af8       ?GetMediaItemTake_Source@@3P6APEAVPCM_source@@PEAVMediaItem_Take@@@ZEA 0000000180089af8     dllmain.obj
